
mecrisp-stellaris-kl25z128.elf:     file format elf32-littlearm


Disassembly of section .text:

00000000 <addresszero>:
       0:	1ffff338 	svcne	0x00fff338
       4:	00002bd9 	ldrdeq	r2, [r0], -r9
       8:	00000411 	andeq	r0, r0, r1, lsl r4
       c:	00000411 	andeq	r0, r0, r1, lsl r4
	...
      2c:	00000411 	andeq	r0, r0, r1, lsl r4
	...
      38:	00000411 	andeq	r0, r0, r1, lsl r4
      3c:	00002b1b 	andeq	r2, r0, fp, lsl fp
      40:	00000411 	andeq	r0, r0, r1, lsl r4
      44:	00000411 	andeq	r0, r0, r1, lsl r4
      48:	00000411 	andeq	r0, r0, r1, lsl r4
      4c:	00000411 	andeq	r0, r0, r1, lsl r4
      50:	00000411 	andeq	r0, r0, r1, lsl r4
      54:	00000411 	andeq	r0, r0, r1, lsl r4
      58:	00000411 	andeq	r0, r0, r1, lsl r4
      5c:	00000411 	andeq	r0, r0, r1, lsl r4
      60:	00000411 	andeq	r0, r0, r1, lsl r4
      64:	00000411 	andeq	r0, r0, r1, lsl r4
      68:	00000411 	andeq	r0, r0, r1, lsl r4
      6c:	00000411 	andeq	r0, r0, r1, lsl r4
      70:	00000411 	andeq	r0, r0, r1, lsl r4
      74:	00000411 	andeq	r0, r0, r1, lsl r4
      78:	00000411 	andeq	r0, r0, r1, lsl r4
      7c:	00002b3f 	andeq	r2, r0, pc, lsr fp
      80:	00002b63 	andeq	r2, r0, r3, ror #22
      84:	00000411 	andeq	r0, r0, r1, lsl r4
      88:	00000411 	andeq	r0, r0, r1, lsl r4
      8c:	00000411 	andeq	r0, r0, r1, lsl r4
      90:	00000411 	andeq	r0, r0, r1, lsl r4
      94:	00000411 	andeq	r0, r0, r1, lsl r4
      98:	00000411 	andeq	r0, r0, r1, lsl r4
      9c:	00000411 	andeq	r0, r0, r1, lsl r4
      a0:	00000411 	andeq	r0, r0, r1, lsl r4
      a4:	00002b87 	andeq	r2, r0, r7, lsl #23
      a8:	00000411 	andeq	r0, r0, r1, lsl r4
      ac:	00000411 	andeq	r0, r0, r1, lsl r4
      b0:	00000411 	andeq	r0, r0, r1, lsl r4
      b4:	00000411 	andeq	r0, r0, r1, lsl r4
      b8:	00002bad 	andeq	r2, r0, sp, lsr #23
      bc:	00002bd1 	ldrdeq	r2, [r0], -r1
      c0:	ffffffff 			; <UNDEFINED> instruction: 0xffffffff
      c4:	ffffffff 			; <UNDEFINED> instruction: 0xffffffff
      c8:	ffffffff 			; <UNDEFINED> instruction: 0xffffffff
      cc:	ffffffff 			; <UNDEFINED> instruction: 0xffffffff
      d0:	ffffffff 			; <UNDEFINED> instruction: 0xffffffff
      d4:	ffffffff 			; <UNDEFINED> instruction: 0xffffffff
      d8:	ffffffff 			; <UNDEFINED> instruction: 0xffffffff
      dc:	ffffffff 			; <UNDEFINED> instruction: 0xffffffff
      e0:	ffffffff 			; <UNDEFINED> instruction: 0xffffffff
      e4:	ffffffff 			; <UNDEFINED> instruction: 0xffffffff
      e8:	ffffffff 			; <UNDEFINED> instruction: 0xffffffff
      ec:	ffffffff 			; <UNDEFINED> instruction: 0xffffffff
      f0:	ffffffff 			; <UNDEFINED> instruction: 0xffffffff
      f4:	ffffffff 			; <UNDEFINED> instruction: 0xffffffff
      f8:	ffffffff 			; <UNDEFINED> instruction: 0xffffffff
      fc:	ffffffff 			; <UNDEFINED> instruction: 0xffffffff
     100:	ffffffff 			; <UNDEFINED> instruction: 0xffffffff
     104:	ffffffff 			; <UNDEFINED> instruction: 0xffffffff
     108:	ffffffff 			; <UNDEFINED> instruction: 0xffffffff
     10c:	ffffffff 			; <UNDEFINED> instruction: 0xffffffff
     110:	ffffffff 			; <UNDEFINED> instruction: 0xffffffff
     114:	ffffffff 			; <UNDEFINED> instruction: 0xffffffff
     118:	ffffffff 			; <UNDEFINED> instruction: 0xffffffff
     11c:	ffffffff 			; <UNDEFINED> instruction: 0xffffffff
     120:	ffffffff 			; <UNDEFINED> instruction: 0xffffffff
     124:	ffffffff 			; <UNDEFINED> instruction: 0xffffffff
     128:	ffffffff 			; <UNDEFINED> instruction: 0xffffffff
     12c:	ffffffff 			; <UNDEFINED> instruction: 0xffffffff
     130:	ffffffff 			; <UNDEFINED> instruction: 0xffffffff
     134:	ffffffff 			; <UNDEFINED> instruction: 0xffffffff
     138:	ffffffff 			; <UNDEFINED> instruction: 0xffffffff
     13c:	ffffffff 			; <UNDEFINED> instruction: 0xffffffff
     140:	ffffffff 			; <UNDEFINED> instruction: 0xffffffff
     144:	ffffffff 			; <UNDEFINED> instruction: 0xffffffff
     148:	ffffffff 			; <UNDEFINED> instruction: 0xffffffff
     14c:	ffffffff 			; <UNDEFINED> instruction: 0xffffffff
     150:	ffffffff 			; <UNDEFINED> instruction: 0xffffffff
     154:	ffffffff 			; <UNDEFINED> instruction: 0xffffffff
     158:	ffffffff 			; <UNDEFINED> instruction: 0xffffffff
     15c:	ffffffff 			; <UNDEFINED> instruction: 0xffffffff
     160:	ffffffff 			; <UNDEFINED> instruction: 0xffffffff
     164:	ffffffff 			; <UNDEFINED> instruction: 0xffffffff
     168:	ffffffff 			; <UNDEFINED> instruction: 0xffffffff
     16c:	ffffffff 			; <UNDEFINED> instruction: 0xffffffff
     170:	ffffffff 			; <UNDEFINED> instruction: 0xffffffff
     174:	ffffffff 			; <UNDEFINED> instruction: 0xffffffff
     178:	ffffffff 			; <UNDEFINED> instruction: 0xffffffff
     17c:	ffffffff 			; <UNDEFINED> instruction: 0xffffffff
     180:	ffffffff 			; <UNDEFINED> instruction: 0xffffffff
     184:	ffffffff 			; <UNDEFINED> instruction: 0xffffffff
     188:	ffffffff 			; <UNDEFINED> instruction: 0xffffffff
     18c:	ffffffff 			; <UNDEFINED> instruction: 0xffffffff
     190:	ffffffff 			; <UNDEFINED> instruction: 0xffffffff
     194:	ffffffff 			; <UNDEFINED> instruction: 0xffffffff
     198:	ffffffff 			; <UNDEFINED> instruction: 0xffffffff
     19c:	ffffffff 			; <UNDEFINED> instruction: 0xffffffff
     1a0:	ffffffff 			; <UNDEFINED> instruction: 0xffffffff
     1a4:	ffffffff 			; <UNDEFINED> instruction: 0xffffffff
     1a8:	ffffffff 			; <UNDEFINED> instruction: 0xffffffff
     1ac:	ffffffff 			; <UNDEFINED> instruction: 0xffffffff
     1b0:	ffffffff 			; <UNDEFINED> instruction: 0xffffffff
     1b4:	ffffffff 			; <UNDEFINED> instruction: 0xffffffff
     1b8:	ffffffff 			; <UNDEFINED> instruction: 0xffffffff
     1bc:	ffffffff 			; <UNDEFINED> instruction: 0xffffffff
     1c0:	ffffffff 			; <UNDEFINED> instruction: 0xffffffff
     1c4:	ffffffff 			; <UNDEFINED> instruction: 0xffffffff
     1c8:	ffffffff 			; <UNDEFINED> instruction: 0xffffffff
     1cc:	ffffffff 			; <UNDEFINED> instruction: 0xffffffff
     1d0:	ffffffff 			; <UNDEFINED> instruction: 0xffffffff
     1d4:	ffffffff 			; <UNDEFINED> instruction: 0xffffffff
     1d8:	ffffffff 			; <UNDEFINED> instruction: 0xffffffff
     1dc:	ffffffff 			; <UNDEFINED> instruction: 0xffffffff
     1e0:	ffffffff 			; <UNDEFINED> instruction: 0xffffffff
     1e4:	ffffffff 			; <UNDEFINED> instruction: 0xffffffff
     1e8:	ffffffff 			; <UNDEFINED> instruction: 0xffffffff
     1ec:	ffffffff 			; <UNDEFINED> instruction: 0xffffffff
     1f0:	ffffffff 			; <UNDEFINED> instruction: 0xffffffff
     1f4:	ffffffff 			; <UNDEFINED> instruction: 0xffffffff
     1f8:	ffffffff 			; <UNDEFINED> instruction: 0xffffffff
     1fc:	ffffffff 			; <UNDEFINED> instruction: 0xffffffff
     200:	ffffffff 			; <UNDEFINED> instruction: 0xffffffff
     204:	ffffffff 			; <UNDEFINED> instruction: 0xffffffff
     208:	ffffffff 			; <UNDEFINED> instruction: 0xffffffff
     20c:	ffffffff 			; <UNDEFINED> instruction: 0xffffffff
     210:	ffffffff 			; <UNDEFINED> instruction: 0xffffffff
     214:	ffffffff 			; <UNDEFINED> instruction: 0xffffffff
     218:	ffffffff 			; <UNDEFINED> instruction: 0xffffffff
     21c:	ffffffff 			; <UNDEFINED> instruction: 0xffffffff
     220:	ffffffff 			; <UNDEFINED> instruction: 0xffffffff
     224:	ffffffff 			; <UNDEFINED> instruction: 0xffffffff
     228:	ffffffff 			; <UNDEFINED> instruction: 0xffffffff
     22c:	ffffffff 			; <UNDEFINED> instruction: 0xffffffff
     230:	ffffffff 			; <UNDEFINED> instruction: 0xffffffff
     234:	ffffffff 			; <UNDEFINED> instruction: 0xffffffff
     238:	ffffffff 			; <UNDEFINED> instruction: 0xffffffff
     23c:	ffffffff 			; <UNDEFINED> instruction: 0xffffffff
     240:	ffffffff 			; <UNDEFINED> instruction: 0xffffffff
     244:	ffffffff 			; <UNDEFINED> instruction: 0xffffffff
     248:	ffffffff 			; <UNDEFINED> instruction: 0xffffffff
     24c:	ffffffff 			; <UNDEFINED> instruction: 0xffffffff
     250:	ffffffff 			; <UNDEFINED> instruction: 0xffffffff
     254:	ffffffff 			; <UNDEFINED> instruction: 0xffffffff
     258:	ffffffff 			; <UNDEFINED> instruction: 0xffffffff
     25c:	ffffffff 			; <UNDEFINED> instruction: 0xffffffff
     260:	ffffffff 			; <UNDEFINED> instruction: 0xffffffff
     264:	ffffffff 			; <UNDEFINED> instruction: 0xffffffff
     268:	ffffffff 			; <UNDEFINED> instruction: 0xffffffff
     26c:	ffffffff 			; <UNDEFINED> instruction: 0xffffffff
     270:	ffffffff 			; <UNDEFINED> instruction: 0xffffffff
     274:	ffffffff 			; <UNDEFINED> instruction: 0xffffffff
     278:	ffffffff 			; <UNDEFINED> instruction: 0xffffffff
     27c:	ffffffff 			; <UNDEFINED> instruction: 0xffffffff
     280:	ffffffff 			; <UNDEFINED> instruction: 0xffffffff
     284:	ffffffff 			; <UNDEFINED> instruction: 0xffffffff
     288:	ffffffff 			; <UNDEFINED> instruction: 0xffffffff
     28c:	ffffffff 			; <UNDEFINED> instruction: 0xffffffff
     290:	ffffffff 			; <UNDEFINED> instruction: 0xffffffff
     294:	ffffffff 			; <UNDEFINED> instruction: 0xffffffff
     298:	ffffffff 			; <UNDEFINED> instruction: 0xffffffff
     29c:	ffffffff 			; <UNDEFINED> instruction: 0xffffffff
     2a0:	ffffffff 			; <UNDEFINED> instruction: 0xffffffff
     2a4:	ffffffff 			; <UNDEFINED> instruction: 0xffffffff
     2a8:	ffffffff 			; <UNDEFINED> instruction: 0xffffffff
     2ac:	ffffffff 			; <UNDEFINED> instruction: 0xffffffff
     2b0:	ffffffff 			; <UNDEFINED> instruction: 0xffffffff
     2b4:	ffffffff 			; <UNDEFINED> instruction: 0xffffffff
     2b8:	ffffffff 			; <UNDEFINED> instruction: 0xffffffff
     2bc:	ffffffff 			; <UNDEFINED> instruction: 0xffffffff
     2c0:	ffffffff 			; <UNDEFINED> instruction: 0xffffffff
     2c4:	ffffffff 			; <UNDEFINED> instruction: 0xffffffff
     2c8:	ffffffff 			; <UNDEFINED> instruction: 0xffffffff
     2cc:	ffffffff 			; <UNDEFINED> instruction: 0xffffffff
     2d0:	ffffffff 			; <UNDEFINED> instruction: 0xffffffff
     2d4:	ffffffff 			; <UNDEFINED> instruction: 0xffffffff
     2d8:	ffffffff 			; <UNDEFINED> instruction: 0xffffffff
     2dc:	ffffffff 			; <UNDEFINED> instruction: 0xffffffff
     2e0:	ffffffff 			; <UNDEFINED> instruction: 0xffffffff
     2e4:	ffffffff 			; <UNDEFINED> instruction: 0xffffffff
     2e8:	ffffffff 			; <UNDEFINED> instruction: 0xffffffff
     2ec:	ffffffff 			; <UNDEFINED> instruction: 0xffffffff
     2f0:	ffffffff 			; <UNDEFINED> instruction: 0xffffffff
     2f4:	ffffffff 			; <UNDEFINED> instruction: 0xffffffff
     2f8:	ffffffff 			; <UNDEFINED> instruction: 0xffffffff
     2fc:	ffffffff 			; <UNDEFINED> instruction: 0xffffffff
     300:	ffffffff 			; <UNDEFINED> instruction: 0xffffffff
     304:	ffffffff 			; <UNDEFINED> instruction: 0xffffffff
     308:	ffffffff 			; <UNDEFINED> instruction: 0xffffffff
     30c:	ffffffff 			; <UNDEFINED> instruction: 0xffffffff
     310:	ffffffff 			; <UNDEFINED> instruction: 0xffffffff
     314:	ffffffff 			; <UNDEFINED> instruction: 0xffffffff
     318:	ffffffff 			; <UNDEFINED> instruction: 0xffffffff
     31c:	ffffffff 			; <UNDEFINED> instruction: 0xffffffff
     320:	ffffffff 			; <UNDEFINED> instruction: 0xffffffff
     324:	ffffffff 			; <UNDEFINED> instruction: 0xffffffff
     328:	ffffffff 			; <UNDEFINED> instruction: 0xffffffff
     32c:	ffffffff 			; <UNDEFINED> instruction: 0xffffffff
     330:	ffffffff 			; <UNDEFINED> instruction: 0xffffffff
     334:	ffffffff 			; <UNDEFINED> instruction: 0xffffffff
     338:	ffffffff 			; <UNDEFINED> instruction: 0xffffffff
     33c:	ffffffff 			; <UNDEFINED> instruction: 0xffffffff
     340:	ffffffff 			; <UNDEFINED> instruction: 0xffffffff
     344:	ffffffff 			; <UNDEFINED> instruction: 0xffffffff
     348:	ffffffff 			; <UNDEFINED> instruction: 0xffffffff
     34c:	ffffffff 			; <UNDEFINED> instruction: 0xffffffff
     350:	ffffffff 			; <UNDEFINED> instruction: 0xffffffff
     354:	ffffffff 			; <UNDEFINED> instruction: 0xffffffff
     358:	ffffffff 			; <UNDEFINED> instruction: 0xffffffff
     35c:	ffffffff 			; <UNDEFINED> instruction: 0xffffffff
     360:	ffffffff 			; <UNDEFINED> instruction: 0xffffffff
     364:	ffffffff 			; <UNDEFINED> instruction: 0xffffffff
     368:	ffffffff 			; <UNDEFINED> instruction: 0xffffffff
     36c:	ffffffff 			; <UNDEFINED> instruction: 0xffffffff
     370:	ffffffff 			; <UNDEFINED> instruction: 0xffffffff
     374:	ffffffff 			; <UNDEFINED> instruction: 0xffffffff
     378:	ffffffff 			; <UNDEFINED> instruction: 0xffffffff
     37c:	ffffffff 			; <UNDEFINED> instruction: 0xffffffff
     380:	ffffffff 			; <UNDEFINED> instruction: 0xffffffff
     384:	ffffffff 			; <UNDEFINED> instruction: 0xffffffff
     388:	ffffffff 			; <UNDEFINED> instruction: 0xffffffff
     38c:	ffffffff 			; <UNDEFINED> instruction: 0xffffffff
     390:	ffffffff 			; <UNDEFINED> instruction: 0xffffffff
     394:	ffffffff 			; <UNDEFINED> instruction: 0xffffffff
     398:	ffffffff 			; <UNDEFINED> instruction: 0xffffffff
     39c:	ffffffff 			; <UNDEFINED> instruction: 0xffffffff
     3a0:	ffffffff 			; <UNDEFINED> instruction: 0xffffffff
     3a4:	ffffffff 			; <UNDEFINED> instruction: 0xffffffff
     3a8:	ffffffff 			; <UNDEFINED> instruction: 0xffffffff
     3ac:	ffffffff 			; <UNDEFINED> instruction: 0xffffffff
     3b0:	ffffffff 			; <UNDEFINED> instruction: 0xffffffff
     3b4:	ffffffff 			; <UNDEFINED> instruction: 0xffffffff
     3b8:	ffffffff 			; <UNDEFINED> instruction: 0xffffffff
     3bc:	ffffffff 			; <UNDEFINED> instruction: 0xffffffff
     3c0:	ffffffff 			; <UNDEFINED> instruction: 0xffffffff
     3c4:	ffffffff 			; <UNDEFINED> instruction: 0xffffffff
     3c8:	ffffffff 			; <UNDEFINED> instruction: 0xffffffff
     3cc:	ffffffff 			; <UNDEFINED> instruction: 0xffffffff
     3d0:	ffffffff 			; <UNDEFINED> instruction: 0xffffffff
     3d4:	ffffffff 			; <UNDEFINED> instruction: 0xffffffff
     3d8:	ffffffff 			; <UNDEFINED> instruction: 0xffffffff
     3dc:	ffffffff 			; <UNDEFINED> instruction: 0xffffffff
     3e0:	ffffffff 			; <UNDEFINED> instruction: 0xffffffff
     3e4:	ffffffff 			; <UNDEFINED> instruction: 0xffffffff
     3e8:	ffffffff 			; <UNDEFINED> instruction: 0xffffffff
     3ec:	ffffffff 			; <UNDEFINED> instruction: 0xffffffff
     3f0:	ffffffff 			; <UNDEFINED> instruction: 0xffffffff
     3f4:	ffffffff 			; <UNDEFINED> instruction: 0xffffffff
     3f8:	ffffffff 			; <UNDEFINED> instruction: 0xffffffff
     3fc:	ffffffff 			; <UNDEFINED> instruction: 0xffffffff
     400:	ffffffff 			; <UNDEFINED> instruction: 0xffffffff
     404:	ffffffff 			; <UNDEFINED> instruction: 0xffffffff
     408:	ffffffff 			; <UNDEFINED> instruction: 0xffffffff
     40c:	ffffffff 			; <UNDEFINED> instruction: 0xffffffff

00000410 <nullhandler>:
     410:	b500      	push	{lr}
     412:	f000 ff2a 	bl	126a <dotgaensefuesschen>
     416:	686e5516 	stmdavs	lr!, {r1, r2, r4, r8, sl, ip, lr}^
     41a:	6c646e61 	stclvs	14, cr6, [r4], #-388	; 0xfffffe7c
     41e:	49206465 	stmdbmi	r0!, {r0, r2, r5, r6, sl, sp, lr}
     422:	7265746e 	rsbvc	r7, r5, #1845493760	; 0x6e000000
     426:	74707572 	ldrbtvc	r7, [r0], #-1394	; 0x572
     42a:	000a2120 	andeq	r2, sl, r0, lsr #2
     42e:	bd00      	pop	{pc}
     430:	00004000 	andeq	r4, r0, r0
     434:	64050000 	strvs	r0, [r5], #-0
     438:	68747065 	ldmdavs	r4!, {r0, r2, r5, r6, ip, sp, lr}^
     43c:	49e6      	ldr	r1, [pc, #920]	; (7d8 <nullhandler+0x3c8>)
     43e:	1bc9      	subs	r1, r1, r7
     440:	0889      	lsrs	r1, r1, #2
     442:	3f04      	subs	r7, #4
     444:	603e      	str	r6, [r7, #0]
     446:	000e      	movs	r6, r1
     448:	4770      	bx	lr
     44a:	46c0      	nop			; (mov r8, r8)
     44c:	00000430 	andeq	r0, r0, r0, lsr r4
     450:	64030061 	strvs	r0, [r3], #-97	; 0x61
     454:	3f047075 	svccc	0x00047075
     458:	603e      	str	r6, [r7, #0]
     45a:	4770      	bx	lr
     45c:	0000044c 	andeq	r0, r0, ip, asr #8
     460:	64040061 	strvs	r0, [r4], #-97	; 0x61
     464:	00706f72 	rsbseq	r6, r0, r2, ror pc
     468:	cf40      	ldmia	r7!, {r6}
     46a:	4770      	bx	lr
     46c:	0000045c 	andeq	r0, r0, ip, asr r4
     470:	3f040061 	svccc	0x00040061
     474:	00707564 	rsbseq	r7, r0, r4, ror #10
     478:	2e00      	cmp	r6, #0
     47a:	d001      	beq.n	480 <nullhandler+0x70>
     47c:	3f04      	subs	r7, #4
     47e:	603e      	str	r6, [r7, #0]
     480:	4770      	bx	lr
     482:	46c0      	nop			; (mov r8, r8)
     484:	0000046c 	andeq	r0, r0, ip, ror #8
     488:	73040062 	movwvc	r0, #16482	; 0x4062
     48c:	00706177 	rsbseq	r6, r0, r7, ror r1
     490:	6839      	ldr	r1, [r7, #0]
     492:	603e      	str	r6, [r7, #0]
     494:	000e      	movs	r6, r1
     496:	4770      	bx	lr
     498:	00000484 	andeq	r0, r0, r4, lsl #9
     49c:	6e030062 	cdpvs	0, 0, cr0, cr3, cr2, {3}
     4a0:	37047069 	strcc	r7, [r4, -r9, rrx]
     4a4:	4770      	bx	lr
     4a6:	46c0      	nop			; (mov r8, r8)
     4a8:	00000498 	muleq	r0, r8, r4
     4ac:	6f040062 	svcvs	0x00040062
     4b0:	00726576 	rsbseq	r6, r2, r6, ror r5
     4b4:	6839      	ldr	r1, [r7, #0]
     4b6:	3f04      	subs	r7, #4
     4b8:	603e      	str	r6, [r7, #0]
     4ba:	000e      	movs	r6, r1
     4bc:	4770      	bx	lr
     4be:	46c0      	nop			; (mov r8, r8)
     4c0:	000004a8 	andeq	r0, r0, r8, lsr #9
     4c4:	74040062 	strvc	r0, [r4], #-98	; 0x62
     4c8:	006b6375 	rsbeq	r6, fp, r5, ror r3
     4cc:	cf01      	ldmia	r7!, {r0}
     4ce:	3f08      	subs	r7, #8
     4d0:	607e      	str	r6, [r7, #4]
     4d2:	6038      	str	r0, [r7, #0]
     4d4:	4770      	bx	lr
     4d6:	46c0      	nop			; (mov r8, r8)
     4d8:	000004c0 	andeq	r0, r0, r0, asr #9
     4dc:	72030063 	andvc	r0, r3, #99	; 0x63
     4e0:	cf03746f 	svcgt	0x0003746f
     4e4:	3f08      	subs	r7, #8
     4e6:	6078      	str	r0, [r7, #4]
     4e8:	603e      	str	r6, [r7, #0]
     4ea:	000e      	movs	r6, r1
     4ec:	4770      	bx	lr
     4ee:	46c0      	nop			; (mov r8, r8)
     4f0:	000004d8 	ldrdeq	r0, [r0], -r8
     4f4:	2d040063 	stccs	0, cr0, [r4, #-396]	; 0xfffffe74
     4f8:	00746f72 	rsbseq	r6, r4, r2, ror pc
     4fc:	cf03      	ldmia	r7!, {r0, r1}
     4fe:	3f08      	subs	r7, #8
     500:	607e      	str	r6, [r7, #4]
     502:	6039      	str	r1, [r7, #0]
     504:	0006      	movs	r6, r0
     506:	4770      	bx	lr
     508:	000004f0 	strdeq	r0, [r0], -r0	; <UNPREDICTABLE>
     50c:	70040020 	andvc	r0, r4, r0, lsr #32
     510:	006b6369 	rsbeq	r6, fp, r9, ror #6
     514:	00b0      	lsls	r0, r6, #2
     516:	583e      	ldr	r6, [r7, r0]
     518:	4770      	bx	lr
     51a:	46c0      	nop			; (mov r8, r8)
     51c:	00000508 	andeq	r0, r0, r8, lsl #10
     520:	3e020020 	cdpcc	0, 0, cr0, cr2, cr0, {1}
     524:	b4400072 	strblt	r0, [r0], #-114	; 0x72
     528:	cf40      	ldmia	r7!, {r6}
     52a:	4770      	bx	lr
     52c:	0000051c 	andeq	r0, r0, ip, lsl r5
     530:	72020020 	andvc	r0, r2, #32
     534:	3f04003e 	svccc	0x0004003e
     538:	603e      	str	r6, [r7, #0]
     53a:	bc40      	pop	{r6}
     53c:	4770      	bx	lr
     53e:	46c0      	nop			; (mov r8, r8)
     540:	0000052c 	andeq	r0, r0, ip, lsr #10
     544:	72020020 	andvc	r0, r2, #32
     548:	3f040040 	svccc	0x00040040
     54c:	603e      	str	r6, [r7, #0]
     54e:	9e00      	ldr	r6, [sp, #0]
     550:	4770      	bx	lr
     552:	46c0      	nop			; (mov r8, r8)
     554:	00000540 	andeq	r0, r0, r0, asr #10
     558:	74040060 	strvc	r0, [r4], #-96	; 0x60
     55c:	00657572 	rsbeq	r7, r5, r2, ror r5
     560:	3f04      	subs	r7, #4
     562:	603e      	str	r6, [r7, #0]
     564:	2600      	movs	r6, #0
     566:	43f6      	mvns	r6, r6
     568:	4770      	bx	lr
     56a:	46c0      	nop			; (mov r8, r8)
     56c:	00000554 	andeq	r0, r0, r4, asr r5
     570:	66050060 	strvs	r0, [r5], -r0, rrx
     574:	65736c61 	ldrbvs	r6, [r3, #-3169]!	; 0xc61
     578:	3f04      	subs	r7, #4
     57a:	603e      	str	r6, [r7, #0]
     57c:	2600      	movs	r6, #0
     57e:	4770      	bx	lr
     580:	0000056c 	andeq	r0, r0, ip, ror #10
     584:	6103006a 	tstvs	r3, sl, rrx
     588:	cf01646e 	svcgt	0x0001646e
     58c:	4006      	ands	r6, r0
     58e:	4770      	bx	lr
     590:	4006      	ands	r6, r0
     592:	46c0      	nop			; (mov r8, r8)
     594:	00000580 	andeq	r0, r0, r0, lsl #11
     598:	6203006a 	andvs	r0, r3, #106	; 0x6a
     59c:	cf016369 	svcgt	0x00016369
     5a0:	43b0      	bics	r0, r6
     5a2:	0006      	movs	r6, r0
     5a4:	4770      	bx	lr
     5a6:	4386      	bics	r6, r0
     5a8:	00000594 	muleq	r0, r4, r5
     5ac:	6f02006a 	svcvs	0x0002006a
     5b0:	cf010072 	svcgt	0x00010072
     5b4:	4306      	orrs	r6, r0
     5b6:	4770      	bx	lr
     5b8:	4306      	orrs	r6, r0
     5ba:	46c0      	nop			; (mov r8, r8)
     5bc:	000005a8 	andeq	r0, r0, r8, lsr #11
     5c0:	7803004a 	stmdavc	r3, {r1, r3, r6}
     5c4:	cf01726f 	svcgt	0x0001726f
     5c8:	4046      	eors	r6, r0
     5ca:	4770      	bx	lr
     5cc:	4046      	eors	r6, r0
     5ce:	46c0      	nop			; (mov r8, r8)
     5d0:	000005bc 			; <UNDEFINED> instruction: 0x000005bc
     5d4:	6e030061 	cdpvs	0, 0, cr0, cr3, cr1, {3}
     5d8:	43f6746f 	mvnsmi	r7, #1862270976	; 0x6f000000
     5dc:	4770      	bx	lr
     5de:	46c0      	nop			; (mov r8, r8)
     5e0:	000005d0 	ldrdeq	r0, [r0], -r0	; <UNPREDICTABLE>
     5e4:	63030041 	movwvs	r0, #12353	; 0x3041
     5e8:	00307a6c 	eorseq	r7, r0, ip, ror #20
     5ec:	d006      	beq.n	5fc <nullhandler+0x1ec>
     5ee:	2600      	movs	r6, #0
     5f0:	0040      	lsls	r0, r0, #1
     5f2:	d002      	beq.n	5fa <nullhandler+0x1ea>
     5f4:	d201      	bcs.n	5fa <nullhandler+0x1ea>
     5f6:	3601      	adds	r6, #1
     5f8:	e7fa      	b.n	5f0 <nullhandler+0x1e0>
     5fa:	4770      	bx	lr
     5fc:	2620      	movs	r6, #32
     5fe:	4770      	bx	lr
     600:	000005e0 	andeq	r0, r0, r0, ror #11
     604:	73030061 	movwvc	r0, #12385	; 0x3061
     608:	08767268 	ldmdaeq	r6!, {r3, r5, r6, r9, ip, sp, lr}^
     60c:	4770      	bx	lr
     60e:	46c0      	nop			; (mov r8, r8)
     610:	00000600 	andeq	r0, r0, r0, lsl #12
     614:	73030061 	movwvc	r0, #12385	; 0x3061
     618:	00766c68 	rsbseq	r6, r6, r8, ror #24
     61c:	4770      	bx	lr
     61e:	46c0      	nop			; (mov r8, r8)
     620:	00000610 	andeq	r0, r0, r0, lsl r6
     624:	7206006c 	andvc	r0, r6, #108	; 0x6c
     628:	66696873 			; <UNDEFINED> instruction: 0x66696873
     62c:	cf010074 	svcgt	0x00010074
     630:	40f0      	lsrs	r0, r6
     632:	0006      	movs	r6, r0
     634:	4770      	bx	lr
     636:	06200836 			; <UNDEFINED> instruction: 0x06200836
     63a:	004a0000 	subeq	r0, sl, r0
     63e:	73726107 	cmnvc	r2, #-1073741823	; 0xc0000001
     642:	74666968 	strbtvc	r6, [r6], #-2408	; 0x968
     646:	cf01      	ldmia	r7!, {r0}
     648:	4130      	asrs	r0, r6
     64a:	0006      	movs	r6, r0
     64c:	4770      	bx	lr
     64e:	4106      	asrs	r6, r0
     650:	00000638 	andeq	r0, r0, r8, lsr r6
     654:	6c06006c 	stcvs	0, cr0, [r6], {108}	; 0x6c
     658:	66696873 			; <UNDEFINED> instruction: 0x66696873
     65c:	cf010074 	svcgt	0x00010074
     660:	40b0      	lsls	r0, r6
     662:	0006      	movs	r6, r0
     664:	4770      	bx	lr
     666:	06500036 			; <UNDEFINED> instruction: 0x06500036
     66a:	00610000 	rsbeq	r0, r1, r0
     66e:	003d3002 	eorseq	r3, sp, r2
     672:	3e01      	subs	r6, #1
     674:	41b6      	sbcs	r6, r6
     676:	4770      	bx	lr
     678:	00000668 	andeq	r0, r0, r8, ror #12
     67c:	30030061 	andcc	r0, r3, r1, rrx
     680:	3e013e3c 	mcrcc	14, 0, r3, cr1, cr12, {1}
     684:	41b6      	sbcs	r6, r6
     686:	43f6      	mvns	r6, r6
     688:	4770      	bx	lr
     68a:	46c0      	nop			; (mov r8, r8)
     68c:	00000678 	andeq	r0, r0, r8, ror r6
     690:	30020061 	andcc	r0, r2, r1, rrx
     694:	17f6003c 			; <UNDEFINED> instruction: 0x17f6003c
     698:	4770      	bx	lr
     69a:	46c0      	nop			; (mov r8, r8)
     69c:	0000068c 	andeq	r0, r0, ip, lsl #13
     6a0:	3e020042 	cdpcc	0, 0, cr0, cr2, cr2, {2}
     6a4:	cf01003d 	svcgt	0x0001003d
     6a8:	42b0      	cmp	r0, r6
     6aa:	da01      	bge.n	6b0 <nullhandler+0x2a0>
     6ac:	2600      	movs	r6, #0
     6ae:	4770      	bx	lr
     6b0:	2600      	movs	r6, #0
     6b2:	43f6      	mvns	r6, r6
     6b4:	4770      	bx	lr
     6b6:	46c0      	nop			; (mov r8, r8)
     6b8:	0000069c 	muleq	r0, ip, r6
     6bc:	3c020042 	stccc	0, cr0, [r2], {66}	; 0x42
     6c0:	cf01003d 	svcgt	0x0001003d
     6c4:	42b0      	cmp	r0, r6
     6c6:	dd01      	ble.n	6cc <nullhandler+0x2bc>
     6c8:	2600      	movs	r6, #0
     6ca:	4770      	bx	lr
     6cc:	2600      	movs	r6, #0
     6ce:	43f6      	mvns	r6, r6
     6d0:	4770      	bx	lr
     6d2:	46c0      	nop			; (mov r8, r8)
     6d4:	000006b8 			; <UNDEFINED> instruction: 0x000006b8
     6d8:	3c010042 	stccc	0, cr0, [r1], {66}	; 0x42
     6dc:	cf01      	ldmia	r7!, {r0}
     6de:	42b0      	cmp	r0, r6
     6e0:	da02      	bge.n	6e8 <nullhandler+0x2d8>
     6e2:	2600      	movs	r6, #0
     6e4:	43f6      	mvns	r6, r6
     6e6:	4770      	bx	lr
     6e8:	2600      	movs	r6, #0
     6ea:	4770      	bx	lr
     6ec:	000006d4 	ldrdeq	r0, [r0], -r4
     6f0:	3e010042 	cdpcc	0, 0, cr0, cr1, cr2, {2}
     6f4:	cf01      	ldmia	r7!, {r0}
     6f6:	42b0      	cmp	r0, r6
     6f8:	dd02      	ble.n	700 <nullhandler+0x2f0>
     6fa:	2600      	movs	r6, #0
     6fc:	43f6      	mvns	r6, r6
     6fe:	4770      	bx	lr
     700:	2600      	movs	r6, #0
     702:	4770      	bx	lr
     704:	000006ec 	andeq	r0, r0, ip, ror #13
     708:	75030062 	strvc	r0, [r3, #-98]	; 0x62
     70c:	cf013d3e 	svcgt	0x00013d3e
     710:	1b86      	subs	r6, r0, r6
     712:	41b6      	sbcs	r6, r6
     714:	43f6      	mvns	r6, r6
     716:	4770      	bx	lr
     718:	00000704 	andeq	r0, r0, r4, lsl #14
     71c:	75030062 	strvc	r0, [r3, #-98]	; 0x62
     720:	cf013d3c 	svcgt	0x00013d3c
     724:	1a36      	subs	r6, r6, r0
     726:	41b6      	sbcs	r6, r6
     728:	43f6      	mvns	r6, r6
     72a:	4770      	bx	lr
     72c:	00000718 	andeq	r0, r0, r8, lsl r7
     730:	75020062 	strvc	r0, [r2, #-98]	; 0x62
     734:	cf01003c 	svcgt	0x0001003c
     738:	1b86      	subs	r6, r0, r6
     73a:	41b6      	sbcs	r6, r6
     73c:	4770      	bx	lr
     73e:	46c0      	nop			; (mov r8, r8)
     740:	0000072c 	andeq	r0, r0, ip, lsr #14
     744:	75020062 	strvc	r0, [r2, #-98]	; 0x62
     748:	cf01003e 	svcgt	0x0001003e
     74c:	1a36      	subs	r6, r6, r0
     74e:	41b6      	sbcs	r6, r6
     750:	4770      	bx	lr
     752:	46c0      	nop			; (mov r8, r8)
     754:	00000740 	andeq	r0, r0, r0, asr #14
     758:	3c02006b 	stccc	0, cr0, [r2], {107}	; 0x6b
     75c:	cf01003e 	svcgt	0x0001003e
     760:	1a36      	subs	r6, r6, r0
     762:	d001      	beq.n	768 <nullhandler+0x358>
     764:	2600      	movs	r6, #0
     766:	43f6      	mvns	r6, r6
     768:	4770      	bx	lr
     76a:	46c0      	nop			; (mov r8, r8)
     76c:	00000754 	andeq	r0, r0, r4, asr r7
     770:	3d01006b 	stccc	0, cr0, [r1, #-428]	; 0xfffffe54
     774:	cf01      	ldmia	r7!, {r0}
     776:	1a36      	subs	r6, r6, r0
     778:	3e01      	subs	r6, #1
     77a:	41b6      	sbcs	r6, r6
     77c:	4770      	bx	lr
     77e:	46c0      	nop			; (mov r8, r8)
     780:	0000076c 	andeq	r0, r0, ip, ror #14
     784:	6d030062 	stcvs	0, cr0, [r3, #-392]	; 0xfffffe78
     788:	cf016e69 	svcgt	0x00016e69
     78c:	42b0      	cmp	r0, r6
     78e:	da00      	bge.n	792 <nullhandler+0x382>
     790:	0006      	movs	r6, r0
     792:	4770      	bx	lr
     794:	00000780 	andeq	r0, r0, r0, lsl #15
     798:	6d030062 	stcvs	0, cr0, [r3, #-392]	; 0xfffffe78
     79c:	cf017861 	svcgt	0x00017861
     7a0:	42b0      	cmp	r0, r6
     7a2:	db00      	blt.n	7a6 <nullhandler+0x396>
     7a4:	0006      	movs	r6, r0
     7a6:	4770      	bx	lr
     7a8:	00000794 	muleq	r0, r4, r7
     7ac:	75040062 	strvc	r0, [r4, #-98]	; 0x62
     7b0:	0078616d 	rsbseq	r6, r8, sp, ror #2
     7b4:	cf01      	ldmia	r7!, {r0}
     7b6:	42b0      	cmp	r0, r6
     7b8:	d300      	bcc.n	7bc <nullhandler+0x3ac>
     7ba:	0006      	movs	r6, r0
     7bc:	4770      	bx	lr
     7be:	46c0      	nop			; (mov r8, r8)
     7c0:	000007a8 	andeq	r0, r0, r8, lsr #15
     7c4:	75040062 	strvc	r0, [r4, #-98]	; 0x62
     7c8:	006e696d 	rsbeq	r6, lr, sp, ror #18
     7cc:	cf01      	ldmia	r7!, {r0}
     7ce:	42b0      	cmp	r0, r6
     7d0:	d800      	bhi.n	7d4 <nullhandler+0x3c4>
     7d2:	0006      	movs	r6, r0
     7d4:	4770      	bx	lr
     7d6:	f2380000 	vhadd.s<illegal width 64>	d0, d8, d0
     7da:	07c01fff 			; <UNDEFINED> instruction: 0x07c01fff
     7de:	00000000 	andeq	r0, r0, r0
     7e2:	766f6d04 	strbtvc	r6, [pc], -r4, lsl #26
     7e6:	b50f0065 	strlt	r0, [pc, #-101]	; 789 <nullhandler+0x379>

000007e8 <move>:
     7e8:	b50f      	push	{r0, r1, r2, r3, lr}
     7ea:	4632      	mov	r2, r6
     7ec:	cf40      	ldmia	r7!, {r6}
     7ee:	4631      	mov	r1, r6
     7f0:	cf40      	ldmia	r7!, {r6}
     7f2:	4630      	mov	r0, r6
     7f4:	cf40      	ldmia	r7!, {r6}
     7f6:	2a00      	cmp	r2, #0
     7f8:	d007      	beq.n	80a <move_fertig>
     7fa:	4281      	cmp	r1, r0
     7fc:	d005      	beq.n	80a <move_fertig>
     7fe:	7803      	ldrb	r3, [r0, #0]
     800:	700b      	strb	r3, [r1, #0]
     802:	3001      	adds	r0, #1
     804:	3101      	adds	r1, #1
     806:	3a01      	subs	r2, #1
     808:	d1f9      	bne.n	7fe <move+0x16>

0000080a <move_fertig>:
     80a:	bd0f      	pop	{r0, r1, r2, r3, pc}
     80c:	000007dc 	ldrdeq	r0, [r0], -ip
     810:	40010020 	andmi	r0, r1, r0, lsr #32
     814:	6836      	ldr	r6, [r6, #0]
     816:	4770      	bx	lr
     818:	0000080c 	andeq	r0, r0, ip, lsl #16
     81c:	2101006d 	tstcs	r1, sp, rrx
     820:	cf03      	ldmia	r7!, {r0, r1}
     822:	6030      	str	r0, [r6, #0]
     824:	000e      	movs	r6, r1
     826:	4770      	bx	lr
     828:	6006      	str	r6, [r0, #0]
     82a:	6001      	str	r1, [r0, #0]
     82c:	00000818 	andeq	r0, r0, r8, lsl r8
     830:	2b020020 	blcs	808b8 <FlashDictionaryEnde+0x608b8>
     834:	cf030021 	svcgt	0x00030021
     838:	6832      	ldr	r2, [r6, #0]
     83a:	1812      	adds	r2, r2, r0
     83c:	6032      	str	r2, [r6, #0]
     83e:	000e      	movs	r6, r1
     840:	4770      	bx	lr
     842:	46c0      	nop			; (mov r8, r8)
     844:	0000082c 	andeq	r0, r0, ip, lsr #16
     848:	68020020 	stmdavs	r2, {r5}
     84c:	88360040 	ldmdahi	r6!, {r6}
     850:	4770      	bx	lr
     852:	46c0      	nop			; (mov r8, r8)
     854:	00000844 	andeq	r0, r0, r4, asr #16
     858:	6802006d 	stmdavs	r2, {r0, r2, r3, r5, r6}
     85c:	cf030021 	svcgt	0x00030021
     860:	8030      	strh	r0, [r6, #0]
     862:	000e      	movs	r6, r1
     864:	4770      	bx	lr
     866:	8006      	strh	r6, [r0, #0]
     868:	8001      	strh	r1, [r0, #0]
     86a:	46c0      	nop			; (mov r8, r8)
     86c:	00000854 	andeq	r0, r0, r4, asr r8
     870:	68030020 	stmdavs	r3, {r5}
     874:	cf03212b 	svcgt	0x0003212b
     878:	8832      	ldrh	r2, [r6, #0]
     87a:	1812      	adds	r2, r2, r0
     87c:	8032      	strh	r2, [r6, #0]
     87e:	000e      	movs	r6, r1
     880:	4770      	bx	lr
     882:	46c0      	nop			; (mov r8, r8)
     884:	0000086c 	andeq	r0, r0, ip, ror #16
     888:	63020020 	movwvs	r0, #8224	; 0x2020
     88c:	78360040 	ldmdavc	r6!, {r6}
     890:	4770      	bx	lr
     892:	46c0      	nop			; (mov r8, r8)
     894:	00000884 	andeq	r0, r0, r4, lsl #17
     898:	6302006d 	movwvs	r0, #8301	; 0x206d
     89c:	cf030021 	svcgt	0x00030021
     8a0:	7030      	strb	r0, [r6, #0]
     8a2:	000e      	movs	r6, r1
     8a4:	4770      	bx	lr
     8a6:	7006      	strb	r6, [r0, #0]
     8a8:	7001      	strb	r1, [r0, #0]
     8aa:	46c0      	nop			; (mov r8, r8)
     8ac:	00000894 	muleq	r0, r4, r8
     8b0:	63030020 	movwvs	r0, #12320	; 0x3020
     8b4:	cf03212b 	svcgt	0x0003212b
     8b8:	7832      	ldrb	r2, [r6, #0]
     8ba:	1812      	adds	r2, r2, r0
     8bc:	7032      	strb	r2, [r6, #0]
     8be:	000e      	movs	r6, r1
     8c0:	4770      	bx	lr
     8c2:	46c0      	nop			; (mov r8, r8)
     8c4:	000008ac 	andeq	r0, r0, ip, lsr #17
     8c8:	62040020 	andvs	r0, r4, #32
     8cc:	00217369 	eoreq	r7, r1, r9, ror #6
     8d0:	cf03      	ldmia	r7!, {r0, r1}
     8d2:	6832      	ldr	r2, [r6, #0]
     8d4:	4302      	orrs	r2, r0
     8d6:	6032      	str	r2, [r6, #0]
     8d8:	000e      	movs	r6, r1
     8da:	4770      	bx	lr
     8dc:	000008c4 	andeq	r0, r0, r4, asr #17
     8e0:	62040020 	andvs	r0, r4, #32
     8e4:	00216369 	eoreq	r6, r1, r9, ror #6
     8e8:	cf03      	ldmia	r7!, {r0, r1}
     8ea:	6832      	ldr	r2, [r6, #0]
     8ec:	4382      	bics	r2, r0
     8ee:	6032      	str	r2, [r6, #0]
     8f0:	000e      	movs	r6, r1
     8f2:	4770      	bx	lr
     8f4:	000008dc 	ldrdeq	r0, [r0], -ip
     8f8:	78040020 	stmdavc	r4, {r5}
     8fc:	0021726f 	eoreq	r7, r1, pc, ror #4
     900:	cf03      	ldmia	r7!, {r0, r1}
     902:	6832      	ldr	r2, [r6, #0]
     904:	4042      	eors	r2, r0
     906:	6032      	str	r2, [r6, #0]
     908:	000e      	movs	r6, r1
     90a:	4770      	bx	lr
     90c:	000008f4 	strdeq	r0, [r0], -r4
     910:	62040020 	andvs	r0, r4, #32
     914:	00407469 	subeq	r7, r0, r9, ror #8
     918:	cf01      	ldmia	r7!, {r0}
     91a:	6836      	ldr	r6, [r6, #0]
     91c:	4006      	ands	r6, r0
     91e:	d001      	beq.n	924 <move_fertig+0x11a>
     920:	2600      	movs	r6, #0
     922:	43f6      	mvns	r6, r6
     924:	4770      	bx	lr
     926:	46c0      	nop			; (mov r8, r8)
     928:	0000090c 	andeq	r0, r0, ip, lsl #18
     92c:	68050020 	stmdavs	r5, {r5}
     930:	21736962 	cmncs	r3, r2, ror #18
     934:	cf03      	ldmia	r7!, {r0, r1}
     936:	8832      	ldrh	r2, [r6, #0]
     938:	4302      	orrs	r2, r0
     93a:	8032      	strh	r2, [r6, #0]
     93c:	000e      	movs	r6, r1
     93e:	4770      	bx	lr
     940:	00000928 	andeq	r0, r0, r8, lsr #18
     944:	68050020 	stmdavs	r5, {r5}
     948:	21636962 	cmncs	r3, r2, ror #18
     94c:	cf03      	ldmia	r7!, {r0, r1}
     94e:	8832      	ldrh	r2, [r6, #0]
     950:	4382      	bics	r2, r0
     952:	8032      	strh	r2, [r6, #0]
     954:	000e      	movs	r6, r1
     956:	4770      	bx	lr
     958:	00000940 	andeq	r0, r0, r0, asr #18
     95c:	68050020 	stmdavs	r5, {r5}
     960:	21726f78 	cmncs	r2, r8, ror pc
     964:	cf03      	ldmia	r7!, {r0, r1}
     966:	8832      	ldrh	r2, [r6, #0]
     968:	4042      	eors	r2, r0
     96a:	8032      	strh	r2, [r6, #0]
     96c:	000e      	movs	r6, r1
     96e:	4770      	bx	lr
     970:	00000958 	andeq	r0, r0, r8, asr r9
     974:	68050020 	stmdavs	r5, {r5}
     978:	40746962 	rsbsmi	r6, r4, r2, ror #18
     97c:	cf01      	ldmia	r7!, {r0}
     97e:	8836      	ldrh	r6, [r6, #0]
     980:	4006      	ands	r6, r0
     982:	d001      	beq.n	988 <move_fertig+0x17e>
     984:	2600      	movs	r6, #0
     986:	43f6      	mvns	r6, r6
     988:	4770      	bx	lr
     98a:	46c0      	nop			; (mov r8, r8)
     98c:	00000970 	andeq	r0, r0, r0, ror r9
     990:	63050020 	movwvs	r0, #20512	; 0x5020
     994:	21736962 	cmncs	r3, r2, ror #18
     998:	cf03      	ldmia	r7!, {r0, r1}
     99a:	7832      	ldrb	r2, [r6, #0]
     99c:	4302      	orrs	r2, r0
     99e:	7032      	strb	r2, [r6, #0]
     9a0:	000e      	movs	r6, r1
     9a2:	4770      	bx	lr
     9a4:	0000098c 	andeq	r0, r0, ip, lsl #19
     9a8:	63050020 	movwvs	r0, #20512	; 0x5020
     9ac:	21636962 	cmncs	r3, r2, ror #18
     9b0:	cf03      	ldmia	r7!, {r0, r1}
     9b2:	7832      	ldrb	r2, [r6, #0]
     9b4:	4382      	bics	r2, r0
     9b6:	7032      	strb	r2, [r6, #0]
     9b8:	000e      	movs	r6, r1
     9ba:	4770      	bx	lr
     9bc:	000009a4 	andeq	r0, r0, r4, lsr #19
     9c0:	63050020 	movwvs	r0, #20512	; 0x5020
     9c4:	21726f78 	cmncs	r2, r8, ror pc
     9c8:	cf03      	ldmia	r7!, {r0, r1}
     9ca:	7832      	ldrb	r2, [r6, #0]
     9cc:	4042      	eors	r2, r0
     9ce:	7032      	strb	r2, [r6, #0]
     9d0:	000e      	movs	r6, r1
     9d2:	4770      	bx	lr
     9d4:	000009bc 			; <UNDEFINED> instruction: 0x000009bc
     9d8:	63050020 	movwvs	r0, #20512	; 0x5020
     9dc:	40746962 	rsbsmi	r6, r4, r2, ror #18
     9e0:	cf01      	ldmia	r7!, {r0}
     9e2:	7836      	ldrb	r6, [r6, #0]
     9e4:	4006      	ands	r6, r0
     9e6:	d001      	beq.n	9ec <move_fertig+0x1e2>
     9e8:	2600      	movs	r6, #0
     9ea:	43f6      	mvns	r6, r6
     9ec:	4770      	bx	lr
     9ee:	46c0      	nop			; (mov r8, r8)
     9f0:	000009d4 	ldrdeq	r0, [r0], -r4
     9f4:	66060000 	strvs	r0, [r6], -r0
     9f8:	6873616c 	ldmdavs	r3!, {r2, r3, r5, r6, r8, sp, lr}^
     9fc:	46300021 	ldrtmi	r0, [r0], -r1, lsr #32

000009fe <flashkomma>:
     9fe:	4630      	mov	r0, r6
     a00:	cf40      	ldmia	r7!, {r6}
     a02:	4631      	mov	r1, r6
     a04:	cf40      	ldmia	r7!, {r6}
     a06:	4b85      	ldr	r3, [pc, #532]	; (c1c <eraseflash_intern+0x84>)
     a08:	4298      	cmp	r0, r3
     a0a:	d368      	bcc.n	ade <flashkomma+0xe0>
     a0c:	4b84      	ldr	r3, [pc, #528]	; (c20 <eraseflash_intern+0x88>)
     a0e:	4299      	cmp	r1, r3
     a10:	d02e      	beq.n	a70 <flashkomma+0x72>
     a12:	2203      	movs	r2, #3
     a14:	4002      	ands	r2, r0
     a16:	d12c      	bne.n	a72 <flashkomma+0x74>
     a18:	6802      	ldr	r2, [r0, #0]
     a1a:	429a      	cmp	r2, r3
     a1c:	d146      	bne.n	aac <flashkomma+0xae>
     a1e:	4a81      	ldr	r2, [pc, #516]	; (c24 <eraseflash_intern+0x8c>)
     a20:	7813      	ldrb	r3, [r2, #0]
     a22:	2280      	movs	r2, #128	; 0x80
     a24:	401a      	ands	r2, r3
     a26:	d0fa      	beq.n	a1e <flashkomma+0x20>
     a28:	2230      	movs	r2, #48	; 0x30
     a2a:	401a      	ands	r2, r3
     a2c:	d002      	beq.n	a34 <flashkomma+0x36>
     a2e:	4a7d      	ldr	r2, [pc, #500]	; (c24 <eraseflash_intern+0x8c>)
     a30:	2330      	movs	r3, #48	; 0x30
     a32:	7013      	strb	r3, [r2, #0]
     a34:	4a7c      	ldr	r2, [pc, #496]	; (c28 <eraseflash_intern+0x90>)
     a36:	2306      	movs	r3, #6
     a38:	7013      	strb	r3, [r2, #0]
     a3a:	4a7c      	ldr	r2, [pc, #496]	; (c2c <eraseflash_intern+0x94>)
     a3c:	7010      	strb	r0, [r2, #0]
     a3e:	0a00      	lsrs	r0, r0, #8
     a40:	4a7b      	ldr	r2, [pc, #492]	; (c30 <eraseflash_intern+0x98>)
     a42:	7010      	strb	r0, [r2, #0]
     a44:	0a00      	lsrs	r0, r0, #8
     a46:	4a7b      	ldr	r2, [pc, #492]	; (c34 <eraseflash_intern+0x9c>)
     a48:	7010      	strb	r0, [r2, #0]
     a4a:	4a7b      	ldr	r2, [pc, #492]	; (c38 <eraseflash_intern+0xa0>)
     a4c:	7011      	strb	r1, [r2, #0]
     a4e:	0a09      	lsrs	r1, r1, #8
     a50:	4a7a      	ldr	r2, [pc, #488]	; (c3c <eraseflash_intern+0xa4>)
     a52:	7011      	strb	r1, [r2, #0]
     a54:	0a09      	lsrs	r1, r1, #8
     a56:	4a7a      	ldr	r2, [pc, #488]	; (c40 <eraseflash_intern+0xa8>)
     a58:	7011      	strb	r1, [r2, #0]
     a5a:	0a09      	lsrs	r1, r1, #8
     a5c:	4a79      	ldr	r2, [pc, #484]	; (c44 <eraseflash_intern+0xac>)
     a5e:	7011      	strb	r1, [r2, #0]
     a60:	4a70      	ldr	r2, [pc, #448]	; (c24 <eraseflash_intern+0x8c>)
     a62:	2380      	movs	r3, #128	; 0x80
     a64:	7013      	strb	r3, [r2, #0]
     a66:	4a6f      	ldr	r2, [pc, #444]	; (c24 <eraseflash_intern+0x8c>)
     a68:	7813      	ldrb	r3, [r2, #0]
     a6a:	2280      	movs	r2, #128	; 0x80
     a6c:	401a      	ands	r2, r3
     a6e:	d0fa      	beq.n	a66 <flashkomma+0x68>
     a70:	4770      	bx	lr
     a72:	f000 fbfa 	bl	126a <dotgaensefuesschen>
     a76:	64644130 	strbtvs	r4, [r4], #-304	; 0x130
     a7a:	73736572 	cmnvc	r3, #478150656	; 0x1c800000
     a7e:	73616820 	cmnvc	r1, #2097152	; 0x200000
     a82:	206f7420 	rsbcs	r7, pc, r0, lsr #8
     a86:	34206562 	strtcc	r6, [r0], #-1378	; 0x562
     a8a:	696c612d 	stmdbvs	ip!, {r0, r2, r3, r5, r8, sp, lr}^
     a8e:	64656e67 	strbtvs	r6, [r5], #-3687	; 0xe67
     a92:	726f6620 	rsbvc	r6, pc, #33554432	; 0x2000000
     a96:	69727720 	ldmdbvs	r2!, {r5, r8, r9, sl, ip, sp, lr}^
     a9a:	676e6974 			; <UNDEFINED> instruction: 0x676e6974
     a9e:	616c6620 	cmnvs	ip, r0, lsr #12
     aa2:	21206873 	teqcs	r0, r3, ror r8
     aa6:	f001000a 			; <UNDEFINED> instruction: 0xf001000a
     aaa:	ffe8 f000 	vaddl.u32	<illegal reg q15.5>, d8, d0
     aae:	fbdd 4629 			; <UNDEFINED> instruction: 0xfbdd4629
     ab2:	6873616c 	ldmdavs	r3!, {r2, r3, r5, r6, r8, sp, lr}^
     ab6:	636f6c20 	cmnvs	pc, #8192	; 0x2000
     aba:	6f697461 	svcvs	0x00697461
     abe:	6163206e 	cmnvs	r3, lr, rrx
     ac2:	746f6e6e 	strbtvc	r6, [pc], #-3694	; aca <flashkomma+0xcc>
     ac6:	20656220 	rsbcs	r6, r5, r0, lsr #4
     aca:	74697277 	strbtvc	r7, [r9], #-631	; 0x277
     ace:	206e6574 	rsbcs	r6, lr, r4, ror r5
     ad2:	63697774 	cmnvs	r9, #30408704	; 0x1d00000
     ad6:	0a212065 	beq	848c72 <FlashDictionaryEnde+0x828c72>
     ada:	f001 ffcf 	bl	2a7c <quit>
     ade:	f000 fbc4 	bl	126a <dotgaensefuesschen>
     ae2:	6e614319 	mcrvs	3, 3, r4, cr1, cr9, {0}
     ae6:	20746f6e 	rsbscs	r6, r4, lr, ror #30
     aea:	74697277 	strbtvc	r7, [r9], #-631	; 0x277
     aee:	6e692065 	cdpvs	0, 6, cr2, cr9, cr5, {3}
     af2:	63206f74 	teqvs	r0, #464	; 0x1d0
     af6:	2065726f 	rsbcs	r7, r5, pc, ror #4
     afa:	f0010a21 			; <UNDEFINED> instruction: 0xf0010a21
     afe:	ffbe 09f0 			; <UNDEFINED> instruction: 0xffbe09f0
     b02:	00000000 	andeq	r0, r0, r0
     b06:	616c660e 	cmnvs	ip, lr, lsl #12
     b0a:	61706873 	cmnvs	r0, r3, ror r8
     b0e:	72656567 	rsbvc	r6, r5, #432013312	; 0x19c00000
     b12:	00657361 	rsbeq	r7, r5, r1, ror #6

00000b16 <flashpageerase>:
     b16:	b50f      	push	{r0, r1, r2, r3, lr}
     b18:	4630      	mov	r0, r6
     b1a:	cf40      	ldmia	r7!, {r6}
     b1c:	4b3f      	ldr	r3, [pc, #252]	; (c1c <eraseflash_intern+0x84>)
     b1e:	4298      	cmp	r0, r3
     b20:	d320      	bcc.n	b64 <flashpageerase+0x4e>
     b22:	2303      	movs	r3, #3
     b24:	4398      	bics	r0, r3
     b26:	4a3f      	ldr	r2, [pc, #252]	; (c24 <eraseflash_intern+0x8c>)
     b28:	7813      	ldrb	r3, [r2, #0]
     b2a:	2280      	movs	r2, #128	; 0x80
     b2c:	401a      	ands	r2, r3
     b2e:	d0fa      	beq.n	b26 <flashpageerase+0x10>
     b30:	2230      	movs	r2, #48	; 0x30
     b32:	401a      	ands	r2, r3
     b34:	d002      	beq.n	b3c <flashpageerase+0x26>
     b36:	4a3b      	ldr	r2, [pc, #236]	; (c24 <eraseflash_intern+0x8c>)
     b38:	2330      	movs	r3, #48	; 0x30
     b3a:	7013      	strb	r3, [r2, #0]
     b3c:	4a3a      	ldr	r2, [pc, #232]	; (c28 <eraseflash_intern+0x90>)
     b3e:	2309      	movs	r3, #9
     b40:	7013      	strb	r3, [r2, #0]
     b42:	4a3a      	ldr	r2, [pc, #232]	; (c2c <eraseflash_intern+0x94>)
     b44:	7010      	strb	r0, [r2, #0]
     b46:	0a00      	lsrs	r0, r0, #8
     b48:	4a39      	ldr	r2, [pc, #228]	; (c30 <eraseflash_intern+0x98>)
     b4a:	7010      	strb	r0, [r2, #0]
     b4c:	0a00      	lsrs	r0, r0, #8
     b4e:	4a39      	ldr	r2, [pc, #228]	; (c34 <eraseflash_intern+0x9c>)
     b50:	7010      	strb	r0, [r2, #0]
     b52:	4a34      	ldr	r2, [pc, #208]	; (c24 <eraseflash_intern+0x8c>)
     b54:	2380      	movs	r3, #128	; 0x80
     b56:	7013      	strb	r3, [r2, #0]
     b58:	4a32      	ldr	r2, [pc, #200]	; (c24 <eraseflash_intern+0x8c>)
     b5a:	7813      	ldrb	r3, [r2, #0]
     b5c:	2280      	movs	r2, #128	; 0x80
     b5e:	401a      	ands	r2, r3
     b60:	d0fa      	beq.n	b58 <flashpageerase+0x42>
     b62:	bd0f      	pop	{r0, r1, r2, r3, pc}
     b64:	f000 fb81 	bl	126a <dotgaensefuesschen>
     b68:	6e614314 	mcrvs	3, 3, r4, cr1, cr4, {0}
     b6c:	20746f6e 	rsbscs	r6, r4, lr, ror #30
     b70:	73617265 	cmnvc	r1, #1342177286	; 0x50000006
     b74:	6f632065 	svcvs	0x00632065
     b78:	21206572 	teqcs	r0, r2, ror r5
     b7c:	f001000a 			; <UNDEFINED> instruction: 0xf001000a
     b80:	ff7d 46c0 	vmax.u<illegal width 64>	q10, <illegal reg q14.5>, q0
     b84:	00000b00 	andeq	r0, r0, r0, lsl #22
     b88:	650a0000 	strvs	r0, [sl, #-0]
     b8c:	65736172 	ldrbvs	r6, [r3, #-370]!	; 0x172
     b90:	73616c66 	cmnvc	r1, #26112	; 0x6600
     b94:	482c0068 	stmdami	ip!, {r3, r5, r6}

00000b98 <eraseflash_intern>:
     b98:	b672      	cpsid	i
     b9a:	492c      	ldr	r1, [pc, #176]	; (c4c <eraseflash_intern+0xb4>)
     b9c:	4a2c      	ldr	r2, [pc, #176]	; (c50 <eraseflash_intern+0xb8>)
     b9e:	6803      	ldr	r3, [r0, #0]
     ba0:	4293      	cmp	r3, r2
     ba2:	d01c      	beq.n	bde <eraseflash_intern+0x46>
     ba4:	3f04      	subs	r7, #4
     ba6:	603e      	str	r6, [r7, #0]
     ba8:	0006      	movs	r6, r0
     baa:	3f04      	subs	r7, #4
     bac:	603e      	str	r6, [r7, #0]
     bae:	f000 fb5c 	bl	126a <dotgaensefuesschen>
     bb2:	61724510 	cmnvs	r2, r0, lsl r5
     bb6:	62206573 	eorvs	r6, r0, #482344960	; 0x1cc00000
     bba:	6b636f6c 	blvs	18dc972 <FlashDictionaryEnde+0x18bc972>
     bbe:	20746120 	rsbscs	r6, r4, r0, lsr #2
     bc2:	f0000020 			; <UNDEFINED> instruction: 0xf0000020
     bc6:	fb8e f000 	smull	pc, r0, lr, r0	; <UNPREDICTABLE>
     bca:	fb4f 200c 	smlsd	r0, pc, ip, r2	; <UNPREDICTABLE>
     bce:	6d6f7266 	sfmvs	f7, 2, [pc, #-408]!	; a3c <flashkomma+0x3e>
     bd2:	616c4620 	cmnvs	ip, r0, lsr #12
     bd6:	000a6873 	andeq	r6, sl, r3, ror r8
     bda:	f7ff ff9c 	bl	b16 <flashpageerase>
     bde:	3004      	adds	r0, #4
     be0:	4288      	cmp	r0, r1
     be2:	d1dc      	bne.n	b9e <eraseflash_intern+0x6>
     be4:	f000 fb41 	bl	126a <dotgaensefuesschen>
     be8:	6e694612 	mcrvs	6, 3, r4, cr9, cr2, {0}
     bec:	65687369 	strbvs	r7, [r8, #-873]!	; 0x369
     bf0:	52202e64 	eorpl	r2, r0, #1600	; 0x640
     bf4:	74657365 	strbtvc	r7, [r5], #-869	; 0x365
     bf8:	000a2120 	andeq	r2, sl, r0, lsr #2
     bfc:	f001 ffec 	bl	2bd8 <Reset>
     c00:	00000b84 	andeq	r0, r0, r4, lsl #23
     c04:	650e0000 	strvs	r0, [lr, #-0]
     c08:	65736172 	ldrbvs	r6, [r3, #-370]!	; 0x172
     c0c:	73616c66 	cmnvc	r1, #26112	; 0x6600
     c10:	6f726668 	svcvs	0x00726668
     c14:	4630006d 	ldrtmi	r0, [r0], -sp, rrx
     c18:	cf40      	ldmia	r7!, {r6}
     c1a:	e7bd      	b.n	b98 <eraseflash_intern>
     c1c:	00004000 	andeq	r4, r0, r0
     c20:	ffffffff 			; <UNDEFINED> instruction: 0xffffffff
     c24:	40020000 	andmi	r0, r2, r0
     c28:	40020007 	andmi	r0, r2, r7
     c2c:	40020004 	andmi	r0, r2, r4
     c30:	40020005 	andmi	r0, r2, r5
     c34:	40020006 	andmi	r0, r2, r6
     c38:	40020008 	andmi	r0, r2, r8
     c3c:	40020009 	andmi	r0, r2, r9
     c40:	4002000a 	andmi	r0, r2, sl
     c44:	4002000b 	andmi	r0, r2, fp
     c48:	00004000 	andeq	r4, r0, r0
     c4c:	00020000 	andeq	r0, r2, r0
     c50:	ffffffff 			; <UNDEFINED> instruction: 0xffffffff

00000c54 <sammeltabelleleeren>:
     c54:	4862      	ldr	r0, [pc, #392]	; (de0 <hflashstoreemulation_gefunden+0x2a>)
     c56:	2160      	movs	r1, #96	; 0x60
     c58:	2200      	movs	r2, #0
     c5a:	8002      	strh	r2, [r0, #0]
     c5c:	3002      	adds	r0, #2
     c5e:	3901      	subs	r1, #1
     c60:	d1fb      	bne.n	c5a <sammeltabelleleeren+0x6>
     c62:	4770      	bx	lr

00000c64 <sammeltabelleleerprobe>:
     c64:	485e      	ldr	r0, [pc, #376]	; (de0 <hflashstoreemulation_gefunden+0x2a>)
     c66:	2160      	movs	r1, #96	; 0x60
     c68:	8802      	ldrh	r2, [r0, #0]
     c6a:	2a00      	cmp	r2, #0
     c6c:	d018      	beq.n	ca0 <sammeltabelleleerprobe+0x3c>
     c6e:	f000 fafc 	bl	126a <dotgaensefuesschen>
     c72:	706e5528 	rsbvc	r5, lr, r8, lsr #10
     c76:	65726961 	ldrbvs	r6, [r2, #-2401]!	; 0x961
     c7a:	36312064 	ldrtcc	r2, [r1], -r4, rrx
     c7e:	7469622d 	strbtvc	r6, [r9], #-557	; 0x22d
     c82:	616c4620 	cmnvs	ip, r0, lsr #12
     c86:	77206873 			; <UNDEFINED> instruction: 0x77206873
     c8a:	65746972 	ldrbvs	r6, [r4, #-2418]!	; 0x972
     c8e:	66656c20 	strbtvs	r6, [r5], -r0, lsr #24
     c92:	6c612074 	stclvs	0, cr2, [r1], #-464	; 0xfffffe30
     c96:	2e656e6f 	cdpcs	14, 6, cr6, cr5, cr15, {3}
     c9a:	f001000a 			; <UNDEFINED> instruction: 0xf001000a
     c9e:	feee 3002 	cdp2	0, 14, cr3, cr14, cr2, {0}
     ca2:	3901      	subs	r1, #1
     ca4:	d1e0      	bne.n	c68 <sammeltabelleleerprobe+0x4>
     ca6:	4770      	bx	lr

00000ca8 <sammeltabellensuche>:
     ca8:	484d      	ldr	r0, [pc, #308]	; (de0 <hflashstoreemulation_gefunden+0x2a>)
     caa:	2120      	movs	r1, #32
     cac:	8802      	ldrh	r2, [r0, #0]
     cae:	8843      	ldrh	r3, [r0, #2]
     cb0:	041b      	lsls	r3, r3, #16
     cb2:	431a      	orrs	r2, r3
     cb4:	42b2      	cmp	r2, r6
     cb6:	d025      	beq.n	d04 <sammeltabellensuche+0x5c>
     cb8:	3006      	adds	r0, #6
     cba:	3901      	subs	r1, #1
     cbc:	d1f6      	bne.n	cac <sammeltabellensuche+0x4>
     cbe:	f000 fad4 	bl	126a <dotgaensefuesschen>
     cc2:	7365443c 	cmnvc	r5, #1006632960	; 0x3c000000
     cc6:	64657269 	strbtvs	r7, [r5], #-617	; 0x269
     cca:	636f6c20 	cmnvs	pc, #8192	; 0x2000
     cce:	6f697461 	svcvs	0x00697461
     cd2:	6f6e206e 	svcvs	0x006e206e
     cd6:	6f662074 	svcvs	0x00662074
     cda:	20646e75 	rsbcs	r6, r4, r5, ror lr
     cde:	46206e69 	strtmi	r6, [r0], -r9, ror #28
     ce2:	6873616c 	ldmdavs	r3!, {r2, r3, r5, r6, r8, sp, lr}^
     ce6:	69727720 	ldmdbvs	r2!, {r5, r8, r9, sl, ip, sp, lr}^
     cea:	63206574 	teqvs	r0, #486539264	; 0x1d000000
     cee:	656c6c6f 	strbvs	r6, [ip, #-3183]!	; 0xc6f
     cf2:	6f697463 	svcvs	0x00697463
     cf6:	6174206e 	cmnvs	r4, lr, rrx
     cfa:	2e656c62 	cdpcs	12, 6, cr6, cr5, cr2, {3}
     cfe:	f001000a 			; <UNDEFINED> instruction: 0xf001000a
     d02:	febc 8886 	cdp2	8, 11, cr8, cr12, cr6, {4}
     d06:	4770      	bx	lr
     d08:	00000c00 	andeq	r0, r0, r0, lsl #24
     d0c:	68070000 	stmdavs	r7, {}	; <UNPREDICTABLE>
     d10:	73616c66 	cmnvc	r1, #26112	; 0x6600
     d14:	b5302168 	ldrlt	r2, [r0, #-360]!	; 0x168

00000d16 <h_flashkomma>:
     d16:	b530      	push	{r4, r5, lr}
     d18:	4632      	mov	r2, r6
     d1a:	cf40      	ldmia	r7!, {r6}
     d1c:	2001      	movs	r0, #1
     d1e:	4010      	ands	r0, r2
     d20:	d013      	beq.n	d4a <h_flashkomma+0x34>
     d22:	f000 faa2 	bl	126a <dotgaensefuesschen>
     d26:	6c66681e 	stclvs	8, cr6, [r6], #-120	; 0xffffff88
     d2a:	21687361 	cmncs	r8, r1, ror #6
     d2e:	65656e20 	strbvs	r6, [r5, #-3616]!	; 0xe20
     d32:	65207364 	strvs	r7, [r0, #-868]!	; 0x364
     d36:	206e6576 	rsbcs	r6, lr, r6, ror r5
     d3a:	72646461 	rsbvc	r6, r4, #1627389952	; 0x61000000
     d3e:	65737365 	ldrbvs	r7, [r3, #-869]!	; 0x365
     d42:	000a2e73 	andeq	r2, sl, r3, ror lr
     d46:	f001 fe99 	bl	2a7c <quit>
     d4a:	2302      	movs	r3, #2
     d4c:	4053      	eors	r3, r2
     d4e:	4824      	ldr	r0, [pc, #144]	; (de0 <hflashstoreemulation_gefunden+0x2a>)
     d50:	2120      	movs	r1, #32
     d52:	8804      	ldrh	r4, [r0, #0]
     d54:	8845      	ldrh	r5, [r0, #2]
     d56:	042d      	lsls	r5, r5, #16
     d58:	432c      	orrs	r4, r5
     d5a:	429c      	cmp	r4, r3
     d5c:	d02b      	beq.n	db6 <hflashstoreemulation_gefunden>
     d5e:	3006      	adds	r0, #6
     d60:	3901      	subs	r1, #1
     d62:	d1f6      	bne.n	d52 <h_flashkomma+0x3c>
     d64:	481e      	ldr	r0, [pc, #120]	; (de0 <hflashstoreemulation_gefunden+0x2a>)
     d66:	2120      	movs	r1, #32
     d68:	8804      	ldrh	r4, [r0, #0]
     d6a:	8845      	ldrh	r5, [r0, #2]
     d6c:	042d      	lsls	r5, r5, #16
     d6e:	432c      	orrs	r4, r5
     d70:	2c00      	cmp	r4, #0
     d72:	d01a      	beq.n	daa <hflashstoreemulation_leerestelle>
     d74:	3006      	adds	r0, #6
     d76:	3901      	subs	r1, #1
     d78:	d1f6      	bne.n	d68 <h_flashkomma+0x52>
     d7a:	f000 fa76 	bl	126a <dotgaensefuesschen>
     d7e:	6f6f5427 	svcvs	0x006f5427
     d82:	6e616d20 	cdpvs	13, 6, cr6, cr1, cr0, {1}
     d86:	6e752079 	mrcvs	0, 3, r2, cr5, cr9, {3}
     d8a:	72696170 	rsbvc	r6, r9, #28
     d8e:	31206465 	teqcc	r0, r5, ror #8
     d92:	69622d36 	stmdbvs	r2!, {r1, r2, r4, r5, r8, sl, fp, sp}^
     d96:	6c462074 	mcrrvs	0, 7, r2, r6, cr4
     d9a:	20687361 	rsbcs	r7, r8, r1, ror #6
     d9e:	74697277 	strbtvc	r7, [r9], #-631	; 0x277
     da2:	0a2e7365 	beq	b9db3e <FlashDictionaryEnde+0xb7db3e>
     da6:	f001 fe69 	bl	2a7c <quit>

00000daa <hflashstoreemulation_leerestelle>:
     daa:	8002      	strh	r2, [r0, #0]
     dac:	0c12      	lsrs	r2, r2, #16
     dae:	8042      	strh	r2, [r0, #2]
     db0:	8086      	strh	r6, [r0, #4]
     db2:	cf40      	ldmia	r7!, {r6}
     db4:	bd30      	pop	{r4, r5, pc}

00000db6 <hflashstoreemulation_gefunden>:
     db6:	2102      	movs	r1, #2
     db8:	4011      	ands	r1, r2
     dba:	d003      	beq.n	dc4 <hflashstoreemulation_gefunden+0xe>
     dbc:	3a02      	subs	r2, #2
     dbe:	8881      	ldrh	r1, [r0, #4]
     dc0:	0436      	lsls	r6, r6, #16
     dc2:	e001      	b.n	dc8 <hflashstoreemulation_gefunden+0x12>
     dc4:	8881      	ldrh	r1, [r0, #4]
     dc6:	0409      	lsls	r1, r1, #16
     dc8:	430e      	orrs	r6, r1
     dca:	3f04      	subs	r7, #4
     dcc:	603e      	str	r6, [r7, #0]
     dce:	0016      	movs	r6, r2
     dd0:	2100      	movs	r1, #0
     dd2:	8001      	strh	r1, [r0, #0]
     dd4:	8041      	strh	r1, [r0, #2]
     dd6:	8081      	strh	r1, [r0, #4]
     dd8:	f7ff fe11 	bl	9fe <flashkomma>
     ddc:	bd30      	pop	{r4, r5, pc}
     dde:	f4000000 	vst4.8	{d0-d3}, [r0], r0
     de2:	0d081fff 	stceq	15, cr1, [r8, #-1020]	; 0xfffffc04
     de6:	00690000 	rsbeq	r0, r9, r0
     dea:	cf012b01 	svcgt	0x00012b01
     dee:	1836      	adds	r6, r6, r0
     df0:	4770      	bx	lr
     df2:	1836      	adds	r6, r6, r0
     df4:	3600      	adds	r6, #0
     df6:	46c0      	nop			; (mov r8, r8)
     df8:	00000de4 	andeq	r0, r0, r4, ror #27
     dfc:	2d010069 	stccs	0, cr0, [r1, #-420]	; 0xfffffe5c
     e00:	cf01      	ldmia	r7!, {r0}
     e02:	1b86      	subs	r6, r0, r6
     e04:	4770      	bx	lr
     e06:	1a36      	subs	r6, r6, r0
     e08:	3e00      	subs	r6, #0
     e0a:	46c0      	nop			; (mov r8, r8)
     e0c:	00000df8 	strdeq	r0, [r0], -r8
     e10:	31020061 	tstcc	r2, r1, rrx
     e14:	3e01002d 	cdpcc	0, 0, cr0, cr1, cr13, {1}
     e18:	4770      	bx	lr
     e1a:	46c0      	nop			; (mov r8, r8)
     e1c:	00000e0c 	andeq	r0, r0, ip, lsl #28
     e20:	31020061 	tstcc	r2, r1, rrx
     e24:	3601002b 	strcc	r0, [r1], -fp, lsr #32
     e28:	4770      	bx	lr
     e2a:	46c0      	nop			; (mov r8, r8)
     e2c:	00000e1c 	andeq	r0, r0, ip, lsl lr
     e30:	32020061 	andcc	r0, r2, #97	; 0x61
     e34:	3e02002d 	cdpcc	0, 0, cr0, cr2, cr13, {1}
     e38:	4770      	bx	lr
     e3a:	46c0      	nop			; (mov r8, r8)
     e3c:	00000e2c 	andeq	r0, r0, ip, lsr #28
     e40:	32020061 	andcc	r0, r2, #97	; 0x61
     e44:	3602002b 	strcc	r0, [r2], -fp, lsr #32
     e48:	4770      	bx	lr
     e4a:	46c0      	nop			; (mov r8, r8)
     e4c:	00000e3c 	andeq	r0, r0, ip, lsr lr
     e50:	6e060061 	cdpvs	0, 0, cr0, cr6, cr1, {3}
     e54:	74616765 	strbtvc	r6, [r1], #-1893	; 0x765
     e58:	42760065 	rsbsmi	r0, r6, #101	; 0x65
     e5c:	4770      	bx	lr
     e5e:	46c0      	nop			; (mov r8, r8)
     e60:	00000e4c 	andeq	r0, r0, ip, asr #28
     e64:	61030061 	tstvs	r3, r1, rrx
     e68:	2e007362 	cdpcs	3, 0, cr7, cr0, cr2, {3}
     e6c:	d500      	bpl.n	e70 <hflashstoreemulation_gefunden+0xba>
     e6e:	4276      	negs	r6, r6
     e70:	4770      	bx	lr
     e72:	46c0      	nop			; (mov r8, r8)
     e74:	00000e60 	andeq	r0, r0, r0, ror #28
     e78:	75050042 	strvc	r0, [r5, #-66]	; 0x42
     e7c:	646f6d2f 	strbtvs	r6, [pc], #-3375	; e84 <u_divmod+0x4>

00000e80 <u_divmod>:
     e80:	4631      	mov	r1, r6
     e82:	cf40      	ldmia	r7!, {r6}
     e84:	2900      	cmp	r1, #0
     e86:	d103      	bne.n	e90 <u_divmod+0x10>
     e88:	3f04      	subs	r7, #4
     e8a:	603e      	str	r6, [r7, #0]
     e8c:	2600      	movs	r6, #0
     e8e:	4770      	bx	lr
     e90:	2201      	movs	r2, #1
     e92:	2300      	movs	r3, #0
     e94:	428e      	cmp	r6, r1
     e96:	d906      	bls.n	ea6 <u_divmod+0x26>
     e98:	3100      	adds	r1, #0
     e9a:	d404      	bmi.n	ea6 <u_divmod+0x26>
     e9c:	0052      	lsls	r2, r2, #1
     e9e:	0049      	lsls	r1, r1, #1
     ea0:	d401      	bmi.n	ea6 <u_divmod+0x26>
     ea2:	428e      	cmp	r6, r1
     ea4:	d8fa      	bhi.n	e9c <u_divmod+0x1c>
     ea6:	428e      	cmp	r6, r1
     ea8:	d301      	bcc.n	eae <u_divmod+0x2e>
     eaa:	1a76      	subs	r6, r6, r1
     eac:	4313      	orrs	r3, r2
     eae:	0849      	lsrs	r1, r1, #1
     eb0:	0852      	lsrs	r2, r2, #1
     eb2:	d1f8      	bne.n	ea6 <u_divmod+0x26>
     eb4:	3f04      	subs	r7, #4
     eb6:	603e      	str	r6, [r7, #0]
     eb8:	001e      	movs	r6, r3
     eba:	4770      	bx	lr
     ebc:	00000e74 	andeq	r0, r0, r4, ror lr
     ec0:	2f040042 	svccs	0x00040042
     ec4:	00646f6d 	rsbeq	r6, r4, sp, ror #30

00000ec8 <divmod>:
     ec8:	b500      	push	{lr}
     eca:	4630      	mov	r0, r6
     ecc:	cf40      	ldmia	r7!, {r6}
     ece:	2e00      	cmp	r6, #0
     ed0:	da1c      	bge.n	f0c <divmod_plus>
     ed2:	4276      	negs	r6, r6

00000ed4 <divmod_minus>:
     ed4:	2800      	cmp	r0, #0
     ed6:	da0c      	bge.n	ef2 <divmod_minus_plus>

00000ed8 <divmod_minus_minus>:
     ed8:	4240      	negs	r0, r0
     eda:	3f04      	subs	r7, #4
     edc:	603e      	str	r6, [r7, #0]
     ede:	0006      	movs	r6, r0
     ee0:	f7ff ffce 	bl	e80 <u_divmod>
     ee4:	4630      	mov	r0, r6
     ee6:	cf40      	ldmia	r7!, {r6}
     ee8:	4276      	negs	r6, r6
     eea:	3f04      	subs	r7, #4
     eec:	603e      	str	r6, [r7, #0]
     eee:	0006      	movs	r6, r0
     ef0:	bd00      	pop	{pc}

00000ef2 <divmod_minus_plus>:
     ef2:	3f04      	subs	r7, #4
     ef4:	603e      	str	r6, [r7, #0]
     ef6:	0006      	movs	r6, r0
     ef8:	f7ff ffc2 	bl	e80 <u_divmod>
     efc:	4630      	mov	r0, r6
     efe:	cf40      	ldmia	r7!, {r6}
     f00:	4240      	negs	r0, r0
     f02:	4276      	negs	r6, r6
     f04:	3f04      	subs	r7, #4
     f06:	603e      	str	r6, [r7, #0]
     f08:	0006      	movs	r6, r0
     f0a:	bd00      	pop	{pc}

00000f0c <divmod_plus>:
     f0c:	2800      	cmp	r0, #0
     f0e:	da07      	bge.n	f20 <divmod_plus_plus>

00000f10 <divmod_plus_minus>:
     f10:	4240      	negs	r0, r0
     f12:	3f04      	subs	r7, #4
     f14:	603e      	str	r6, [r7, #0]
     f16:	0006      	movs	r6, r0
     f18:	f7ff ffb2 	bl	e80 <u_divmod>
     f1c:	4276      	negs	r6, r6
     f1e:	bd00      	pop	{pc}

00000f20 <divmod_plus_plus>:
     f20:	3f04      	subs	r7, #4
     f22:	603e      	str	r6, [r7, #0]
     f24:	0006      	movs	r6, r0
     f26:	f7ff ffab 	bl	e80 <u_divmod>
     f2a:	bd00      	pop	{pc}
     f2c:	00000ebc 			; <UNDEFINED> instruction: 0x00000ebc
     f30:	2f010042 	svccs	0x00010042
     f34:	b500      	push	{lr}
     f36:	f7ff ffc7 	bl	ec8 <divmod>
     f3a:	3704      	adds	r7, #4
     f3c:	bd00      	pop	{pc}
     f3e:	46c0      	nop			; (mov r8, r8)
     f40:	00000f2c 	andeq	r0, r0, ip, lsr #30
     f44:	2a010062 	bcs	410d4 <FlashDictionaryEnde+0x210d4>
     f48:	cf01      	ldmia	r7!, {r0}
     f4a:	4346      	muls	r6, r0
     f4c:	4770      	bx	lr
     f4e:	46c0      	nop			; (mov r8, r8)
     f50:	00000f40 	andeq	r0, r0, r0, asr #30
     f54:	32020061 	andcc	r0, r2, #97	; 0x61
     f58:	0076002a 	rsbseq	r0, r6, sl, lsr #32
     f5c:	4770      	bx	lr
     f5e:	46c0      	nop			; (mov r8, r8)
     f60:	00000f50 	andeq	r0, r0, r0, asr pc
     f64:	32020061 	andcc	r0, r2, #97	; 0x61
     f68:	1076002f 	rsbsne	r0, r6, pc, lsr #32
     f6c:	4770      	bx	lr
     f6e:	46c0      	nop			; (mov r8, r8)
     f70:	00000f60 	andeq	r0, r0, r0, ror #30
     f74:	65040061 	strvs	r0, [r4, #-97]	; 0x61
     f78:	006e6576 	rsbeq	r6, lr, r6, ror r5
     f7c:	2001      	movs	r0, #1
     f7e:	4030      	ands	r0, r6
     f80:	1836      	adds	r6, r6, r0
     f82:	4770      	bx	lr
     f84:	00000f70 	andeq	r0, r0, r0, ror pc
     f88:	62040040 	andvs	r0, r4, #64	; 0x40
     f8c:	00657361 	rsbeq	r7, r5, r1, ror #6
     f90:	3f04      	subs	r7, #4
     f92:	603e      	str	r6, [r7, #0]
     f94:	4e11      	ldr	r6, [pc, #68]	; (fdc <divmod_plus_plus+0xbc>)
     f96:	4770      	bx	lr
     f98:	00000f84 	andeq	r0, r0, r4, lsl #31
     f9c:	62060000 	andvs	r0, r6, #0
     fa0:	72616e69 	rsbvc	r6, r1, #1680	; 0x690
     fa4:	480d0079 	stmdami	sp, {r0, r3, r4, r5, r6}
     fa8:	2102      	movs	r1, #2
     faa:	6001      	str	r1, [r0, #0]
     fac:	4770      	bx	lr
     fae:	46c0      	nop			; (mov r8, r8)
     fb0:	00000f98 	muleq	r0, r8, pc	; <UNPREDICTABLE>
     fb4:	64070000 	strvs	r0, [r7], #-0
     fb8:	6d696365 	stclvs	3, cr6, [r9, #-404]!	; 0xfffffe6c
     fbc:	48076c61 	stmdami	r7, {r0, r5, r6, sl, fp, sp, lr}
     fc0:	210a      	movs	r1, #10
     fc2:	6001      	str	r1, [r0, #0]
     fc4:	4770      	bx	lr
     fc6:	46c0      	nop			; (mov r8, r8)
     fc8:	00000fb0 			; <UNDEFINED> instruction: 0x00000fb0
     fcc:	68030000 	stmdavs	r3, {}	; <UNPREDICTABLE>
     fd0:	48027865 	stmdami	r2, {r0, r2, r5, r6, fp, ip, sp, lr}
     fd4:	2110      	movs	r1, #16
     fd6:	6001      	str	r1, [r0, #0]
     fd8:	4770      	bx	lr
     fda:	f0100000 			; <UNDEFINED> instruction: 0xf0100000
     fde:	492d1fff 	pushmi	{r0, r1, r2, r3, r4, r5, r6, r7, r8, r9, sl, fp, ip}

00000fe0 <uart_init>:
     fe0:	492d      	ldr	r1, [pc, #180]	; (1098 <key+0x3e>)
     fe2:	482e      	ldr	r0, [pc, #184]	; (109c <key+0x42>)
     fe4:	6001      	str	r1, [r0, #0]
     fe6:	492e      	ldr	r1, [pc, #184]	; (10a0 <key+0x46>)
     fe8:	482e      	ldr	r0, [pc, #184]	; (10a4 <key+0x4a>)
     fea:	6001      	str	r1, [r0, #0]
     fec:	492e      	ldr	r1, [pc, #184]	; (10a8 <key+0x4e>)
     fee:	482f      	ldr	r0, [pc, #188]	; (10ac <key+0x52>)
     ff0:	6001      	str	r1, [r0, #0]
     ff2:	492f      	ldr	r1, [pc, #188]	; (10b0 <key+0x56>)
     ff4:	482f      	ldr	r0, [pc, #188]	; (10b4 <key+0x5a>)
     ff6:	6001      	str	r1, [r0, #0]
     ff8:	482f      	ldr	r0, [pc, #188]	; (10b8 <key+0x5e>)
     ffa:	6001      	str	r1, [r0, #0]
     ffc:	2100      	movs	r1, #0
     ffe:	482f      	ldr	r0, [pc, #188]	; (10bc <key+0x62>)
    1000:	7001      	strb	r1, [r0, #0]
    1002:	482f      	ldr	r0, [pc, #188]	; (10c0 <key+0x66>)
    1004:	7001      	strb	r1, [r0, #0]
    1006:	482f      	ldr	r0, [pc, #188]	; (10c4 <key+0x6a>)
    1008:	7001      	strb	r1, [r0, #0]
    100a:	482f      	ldr	r0, [pc, #188]	; (10c8 <key+0x6e>)
    100c:	7001      	strb	r1, [r0, #0]
    100e:	2106      	movs	r1, #6
    1010:	482e      	ldr	r0, [pc, #184]	; (10cc <key+0x72>)
    1012:	7001      	strb	r1, [r0, #0]
    1014:	2100      	movs	r1, #0
    1016:	482e      	ldr	r0, [pc, #184]	; (10d0 <key+0x76>)
    1018:	7001      	strb	r1, [r0, #0]
    101a:	211a      	movs	r1, #26
    101c:	482d      	ldr	r0, [pc, #180]	; (10d4 <key+0x7a>)
    101e:	7001      	strb	r1, [r0, #0]
    1020:	210c      	movs	r1, #12
    1022:	4826      	ldr	r0, [pc, #152]	; (10bc <key+0x62>)
    1024:	7001      	strb	r1, [r0, #0]
    1026:	4770      	bx	lr
    1028:	00000fc8 	andeq	r0, r0, r8, asr #31
    102c:	65040000 	strvs	r0, [r4, #-0]
    1030:	0074696d 	rsbseq	r6, r4, sp, ror #18

00001034 <emit>:
    1034:	b407      	push	{r0, r1, r2}
    1036:	4828      	ldr	r0, [pc, #160]	; (10d8 <key+0x7e>)
    1038:	2108      	movs	r1, #8
    103a:	7001      	strb	r1, [r0, #0]
    103c:	2280      	movs	r2, #128	; 0x80
    103e:	7801      	ldrb	r1, [r0, #0]
    1040:	4011      	ands	r1, r2
    1042:	d0fc      	beq.n	103e <emit+0xa>
    1044:	4825      	ldr	r0, [pc, #148]	; (10dc <key+0x82>)
    1046:	4631      	mov	r1, r6
    1048:	cf40      	ldmia	r7!, {r6}
    104a:	7001      	strb	r1, [r0, #0]
    104c:	bc07      	pop	{r0, r1, r2}
    104e:	4770      	bx	lr
    1050:	00001028 	andeq	r1, r0, r8, lsr #32
    1054:	6b030000 	blvs	c105c <FlashDictionaryEnde+0xa105c>
    1058:	b4077965 	strlt	r7, [r7], #-2405	; 0x965

0000105a <key>:
    105a:	b407      	push	{r0, r1, r2}
    105c:	481e      	ldr	r0, [pc, #120]	; (10d8 <key+0x7e>)
    105e:	2108      	movs	r1, #8
    1060:	7001      	strb	r1, [r0, #0]
    1062:	2220      	movs	r2, #32
    1064:	7801      	ldrb	r1, [r0, #0]
    1066:	4011      	ands	r1, r2
    1068:	d0fc      	beq.n	1064 <key+0xa>
    106a:	481c      	ldr	r0, [pc, #112]	; (10dc <key+0x82>)
    106c:	3f04      	subs	r7, #4
    106e:	603e      	str	r6, [r7, #0]
    1070:	7806      	ldrb	r6, [r0, #0]
    1072:	b2f6      	uxtb	r6, r6
    1074:	bc07      	pop	{r0, r1, r2}
    1076:	4770      	bx	lr
    1078:	00001050 	andeq	r1, r0, r0, asr r0
    107c:	3f040000 	svccc	0x00040000
    1080:	0079656b 	rsbseq	r6, r9, fp, ror #10
    1084:	3f04      	subs	r7, #4
    1086:	603e      	str	r6, [r7, #0]
    1088:	2600      	movs	r6, #0
    108a:	4813      	ldr	r0, [pc, #76]	; (10d8 <key+0x7e>)
    108c:	2220      	movs	r2, #32
    108e:	7801      	ldrb	r1, [r0, #0]
    1090:	4011      	ands	r1, r2
    1092:	d000      	beq.n	1096 <key+0x3c>
    1094:	43f6      	mvns	r6, r6
    1096:	4770      	bx	lr
    1098:	00003f80 	andeq	r3, r0, r0, lsl #31
    109c:	40048038 	andmi	r8, r4, r8, lsr r0
    10a0:	f0000430 			; <UNDEFINED> instruction: 0xf0000430
    10a4:	40048034 	andmi	r8, r4, r4, lsr r0
    10a8:	04000000 	streq	r0, [r0], #-0
    10ac:	40048004 	andmi	r8, r4, r4
    10b0:	00000200 	andeq	r0, r0, r0, lsl #4
    10b4:	40049004 	andmi	r9, r4, r4
    10b8:	40049008 	andmi	r9, r4, r8
    10bc:	4006a003 	andmi	sl, r6, r3
    10c0:	4006a002 	andmi	sl, r6, r2
    10c4:	4006a006 	andmi	sl, r6, r6
    10c8:	4006a005 	andmi	sl, r6, r5
    10cc:	4006a00a 	andmi	sl, r6, sl
    10d0:	4006a000 	andmi	sl, r6, r0
    10d4:	4006a001 	andmi	sl, r6, r1
    10d8:	4006a004 	andmi	sl, r6, r4
    10dc:	4006a007 	andmi	sl, r6, r7
    10e0:	00001078 	andeq	r1, r0, r8, ror r0
    10e4:	71050000 	mrsvc	r0, (UNDEF: 5)
    10e8:	79726575 	ldmdbvc	r2!, {r0, r2, r4, r5, r6, r8, sl, sp, lr}^

000010ec <query>:
    10ec:	b50f      	push	{r0, r1, r2, r3, lr}
    10ee:	48eb      	ldr	r0, [pc, #940]	; (149c <words+0xac>)
    10f0:	2100      	movs	r1, #0
    10f2:	7001      	strb	r1, [r0, #0]
    10f4:	49ea      	ldr	r1, [pc, #936]	; (14a0 <words+0xb0>)
    10f6:	2200      	movs	r2, #0
    10f8:	f7ff ffaf 	bl	105a <key>
    10fc:	4630      	mov	r0, r6
    10fe:	cf40      	ldmia	r7!, {r6}
    1100:	2820      	cmp	r0, #32
    1102:	d218      	bcs.n	1136 <query+0x4a>
    1104:	280a      	cmp	r0, #10
    1106:	d022      	beq.n	114e <query+0x62>
    1108:	280d      	cmp	r0, #13
    110a:	d020      	beq.n	114e <query+0x62>
    110c:	2808      	cmp	r0, #8
    110e:	d1f3      	bne.n	10f8 <query+0xc>
    1110:	2a00      	cmp	r2, #0
    1112:	d0f1      	beq.n	10f8 <query+0xc>
    1114:	f000 f8a9 	bl	126a <dotgaensefuesschen>
    1118:	08200803 	stmdaeq	r0!, {r0, r1, fp}
    111c:	2a00      	cmp	r2, #0
    111e:	d0eb      	beq.n	10f8 <query+0xc>
    1120:	000b      	movs	r3, r1
    1122:	189b      	adds	r3, r3, r2
    1124:	7818      	ldrb	r0, [r3, #0]
    1126:	3a01      	subs	r2, #1
    1128:	2380      	movs	r3, #128	; 0x80
    112a:	4003      	ands	r3, r0
    112c:	d0e4      	beq.n	10f8 <query+0xc>
    112e:	2340      	movs	r3, #64	; 0x40
    1130:	4003      	ands	r3, r0
    1132:	d0f3      	beq.n	111c <query+0x30>
    1134:	e7e0      	b.n	10f8 <query+0xc>
    1136:	2ac7      	cmp	r2, #199	; 0xc7
    1138:	d2de      	bcs.n	10f8 <query+0xc>
    113a:	3f04      	subs	r7, #4
    113c:	603e      	str	r6, [r7, #0]
    113e:	0006      	movs	r6, r0
    1140:	f7ff ff78 	bl	1034 <emit>
    1144:	3201      	adds	r2, #1
    1146:	000b      	movs	r3, r1
    1148:	189b      	adds	r3, r3, r2
    114a:	7018      	strb	r0, [r3, #0]
    114c:	e7d4      	b.n	10f8 <query+0xc>
    114e:	700a      	strb	r2, [r1, #0]
    1150:	f000 f844 	bl	11dc <space>
    1154:	bd0f      	pop	{r0, r1, r2, r3, pc}
    1156:	46c0      	nop			; (mov r8, r8)
    1158:	000010e0 	andeq	r1, r0, r0, ror #1
    115c:	63070000 	movwvs	r0, #28672	; 0x7000
    1160:	61706d6f 	cmnvs	r0, pc, ror #26
    1164:	b50f6572 	strlt	r6, [pc, #-1394]	; bfa <eraseflash_intern+0x62>

00001166 <compare>:
    1166:	b50f      	push	{r0, r1, r2, r3, lr}
    1168:	4630      	mov	r0, r6
    116a:	cf40      	ldmia	r7!, {r6}
    116c:	7831      	ldrb	r1, [r6, #0]
    116e:	7802      	ldrb	r2, [r0, #0]
    1170:	4291      	cmp	r1, r2
    1172:	d116      	bne.n	11a2 <compare+0x3c>
    1174:	e010      	b.n	1198 <compare+0x32>
    1176:	3601      	adds	r6, #1
    1178:	3001      	adds	r0, #1
    117a:	7832      	ldrb	r2, [r6, #0]
    117c:	7803      	ldrb	r3, [r0, #0]
    117e:	2a41      	cmp	r2, #65	; 0x41
    1180:	d302      	bcc.n	1188 <compare+0x22>
    1182:	2a5b      	cmp	r2, #91	; 0x5b
    1184:	d200      	bcs.n	1188 <compare+0x22>
    1186:	3220      	adds	r2, #32
    1188:	2b41      	cmp	r3, #65	; 0x41
    118a:	d302      	bcc.n	1192 <compare+0x2c>
    118c:	2b5b      	cmp	r3, #91	; 0x5b
    118e:	d200      	bcs.n	1192 <compare+0x2c>
    1190:	3320      	adds	r3, #32
    1192:	429a      	cmp	r2, r3
    1194:	d105      	bne.n	11a2 <compare+0x3c>
    1196:	3901      	subs	r1, #1
    1198:	2900      	cmp	r1, #0
    119a:	d1ec      	bne.n	1176 <compare+0x10>
    119c:	2600      	movs	r6, #0
    119e:	43f6      	mvns	r6, r6
    11a0:	e000      	b.n	11a4 <compare+0x3e>
    11a2:	2600      	movs	r6, #0
    11a4:	bd0f      	pop	{r0, r1, r2, r3, pc}
    11a6:	46c0      	nop			; (mov r8, r8)
    11a8:	00001158 	andeq	r1, r0, r8, asr r1
    11ac:	63020000 	movwvs	r0, #8192	; 0x2000
    11b0:	b5000072 	strlt	r0, [r0, #-114]	; 0x72
    11b4:	f000 f859 	bl	126a <dotgaensefuesschen>
    11b8:	bd000a01 	vstrlt	s0, [r0, #-4]
    11bc:	000011a8 	andeq	r1, r0, r8, lsr #3
    11c0:	62020000 	andvs	r0, r2, #0
    11c4:	3f04006c 	svccc	0x0004006c
    11c8:	603e      	str	r6, [r7, #0]
    11ca:	2620      	movs	r6, #32
    11cc:	4770      	bx	lr
    11ce:	46c0      	nop			; (mov r8, r8)
    11d0:	000011bc 			; <UNDEFINED> instruction: 0x000011bc
    11d4:	73050000 	movwvc	r0, #20480	; 0x5000
    11d8:	65636170 	strbvs	r6, [r3, #-368]!	; 0x170

000011dc <space>:
    11dc:	3f04      	subs	r7, #4
    11de:	603e      	str	r6, [r7, #0]
    11e0:	2620      	movs	r6, #32
    11e2:	e727      	b.n	1034 <emit>
    11e4:	000011d0 	ldrdeq	r1, [r0], -r0
    11e8:	5b060050 	blpl	181330 <FlashDictionaryEnde+0x161330>
    11ec:	72616863 	rsbvc	r6, r1, #6488064	; 0x630000
    11f0:	e005005d 	and	r0, r5, sp, asr r0
    11f4:	000011e4 	andeq	r1, r0, r4, ror #3
    11f8:	63040000 	movwvs	r0, #16384	; 0x4000
    11fc:	00726168 	rsbseq	r6, r2, r8, ror #2

00001200 <holechar>:
    1200:	b500      	push	{lr}
    1202:	f001 f9b1 	bl	2568 <token>
    1206:	3601      	adds	r6, #1
    1208:	7836      	ldrb	r6, [r6, #0]
    120a:	bd00      	pop	{pc}
    120c:	000011f4 	strdeq	r1, [r0], -r4
    1210:	28010050 	stmdacs	r1, {r4, r6}
    1214:	3f04      	subs	r7, #4
    1216:	603e      	str	r6, [r7, #0]
    1218:	2629      	movs	r6, #41	; 0x29
    121a:	e006      	b.n	122a <holechar+0x2a>
    121c:	0000120c 	andeq	r1, r0, ip, lsl #4
    1220:	5c010050 	stcpl	0, cr0, [r1], {80}	; 0x50
    1224:	3f04      	subs	r7, #4
    1226:	603e      	str	r6, [r7, #0]
    1228:	2600      	movs	r6, #0
    122a:	b500      	push	{lr}
    122c:	f001 f9a8 	bl	2580 <parse>
    1230:	cf40      	ldmia	r7!, {r6}
    1232:	bd00      	pop	{pc}
    1234:	0000121c 	andeq	r1, r0, ip, lsl r2
    1238:	2e020010 	mcrcs	0, 0, r0, cr2, cr0, {0}
    123c:	48990022 	ldmmi	r9, {r1, r5}
    1240:	b500      	push	{lr}
    1242:	3f04      	subs	r7, #4
    1244:	603e      	str	r6, [r7, #0]
    1246:	0006      	movs	r6, r0
    1248:	f000 f9cc 	bl	15e4 <callkomma>
    124c:	3f04      	subs	r7, #4
    124e:	603e      	str	r6, [r7, #0]
    1250:	2622      	movs	r6, #34	; 0x22
    1252:	f001 f995 	bl	2580 <parse>
    1256:	f000 fd3a 	bl	1cce <stringkomma>
    125a:	bd00      	pop	{pc}
    125c:	00001234 	andeq	r1, r0, r4, lsr r2
    1260:	73020010 	movwvc	r0, #8208	; 0x2010
    1264:	48900022 	ldmmi	r0, {r1, r5}
    1268:	e7ea      	b.n	1240 <holechar+0x40>

0000126a <dotgaensefuesschen>:
    126a:	b40e      	push	{r1, r2, r3}
    126c:	4672      	mov	r2, lr
    126e:	3a01      	subs	r2, #1
    1270:	3f04      	subs	r7, #4
    1272:	603e      	str	r6, [r7, #0]
    1274:	0016      	movs	r6, r2
    1276:	7813      	ldrb	r3, [r2, #0]
    1278:	2101      	movs	r1, #1
    127a:	3301      	adds	r3, #1
    127c:	4019      	ands	r1, r3
    127e:	185b      	adds	r3, r3, r1
    1280:	4671      	mov	r1, lr
    1282:	18c9      	adds	r1, r1, r3
    1284:	468e      	mov	lr, r1
    1286:	bc0e      	pop	{r1, r2, r3}
    1288:	e016      	b.n	12b8 <type>

0000128a <dotfuesschen>:
    128a:	b40e      	push	{r1, r2, r3}
    128c:	4672      	mov	r2, lr
    128e:	3a01      	subs	r2, #1
    1290:	3f04      	subs	r7, #4
    1292:	603e      	str	r6, [r7, #0]
    1294:	0016      	movs	r6, r2
    1296:	7813      	ldrb	r3, [r2, #0]
    1298:	2101      	movs	r1, #1
    129a:	3301      	adds	r3, #1
    129c:	4019      	ands	r1, r3
    129e:	185b      	adds	r3, r3, r1
    12a0:	4671      	mov	r1, lr
    12a2:	18c9      	adds	r1, r1, r3
    12a4:	468e      	mov	lr, r1
    12a6:	bc0e      	pop	{r1, r2, r3}
    12a8:	4770      	bx	lr
    12aa:	46c0      	nop			; (mov r8, r8)
    12ac:	0000125c 	andeq	r1, r0, ip, asr r2
    12b0:	74040000 	strvc	r0, [r4], #-0
    12b4:	00657079 	rsbeq	r7, r5, r9, ror r0

000012b8 <type>:
    12b8:	b503      	push	{r0, r1, lr}
    12ba:	4631      	mov	r1, r6
    12bc:	cf40      	ldmia	r7!, {r6}
    12be:	7808      	ldrb	r0, [r1, #0]
    12c0:	2800      	cmp	r0, #0
    12c2:	d007      	beq.n	12d4 <type+0x1c>
    12c4:	3101      	adds	r1, #1
    12c6:	3f04      	subs	r7, #4
    12c8:	603e      	str	r6, [r7, #0]
    12ca:	780e      	ldrb	r6, [r1, #0]
    12cc:	f7ff feb2 	bl	1034 <emit>
    12d0:	3801      	subs	r0, #1
    12d2:	d1f7      	bne.n	12c4 <type+0xc>
    12d4:	bd03      	pop	{r0, r1, pc}
    12d6:	46c0      	nop			; (mov r8, r8)
    12d8:	000012ac 	andeq	r1, r0, ip, lsr #5
    12dc:	68040000 	stmdavs	r4, {}	; <UNPREDICTABLE>
    12e0:	002e7865 	eoreq	r7, lr, r5, ror #16

000012e4 <hexdot>:
    12e4:	b507      	push	{r0, r1, r2, lr}
    12e6:	4631      	mov	r1, r6
    12e8:	cf40      	ldmia	r7!, {r6}
    12ea:	2020      	movs	r0, #32
    12ec:	220f      	movs	r2, #15
    12ee:	3804      	subs	r0, #4
    12f0:	3f04      	subs	r7, #4
    12f2:	603e      	str	r6, [r7, #0]
    12f4:	000e      	movs	r6, r1
    12f6:	40c6      	lsrs	r6, r0
    12f8:	4016      	ands	r6, r2
    12fa:	2e09      	cmp	r6, #9
    12fc:	d901      	bls.n	1302 <hexdot+0x1e>
    12fe:	3637      	adds	r6, #55	; 0x37
    1300:	e000      	b.n	1304 <hexdot+0x20>
    1302:	3630      	adds	r6, #48	; 0x30
    1304:	f7ff fe96 	bl	1034 <emit>
    1308:	2800      	cmp	r0, #0
    130a:	d1f0      	bne.n	12ee <hexdot+0xa>
    130c:	f7ff ff66 	bl	11dc <space>
    1310:	bd07      	pop	{r0, r1, r2, pc}
    1312:	46c0      	nop			; (mov r8, r8)
    1314:	000012d8 	ldrdeq	r1, [r0], -r8
    1318:	2e020000 	cdpcs	0, 0, cr0, cr2, cr0, {0}
    131c:	b50f0073 	strlt	r0, [pc, #-115]	; 12b1 <dotfuesschen+0x27>

0000131e <dots>:
    131e:	b50f      	push	{r0, r1, r2, r3, lr}
    1320:	4962      	ldr	r1, [pc, #392]	; (14ac <words+0xbc>)
    1322:	1bc9      	subs	r1, r1, r7
    1324:	0889      	lsrs	r1, r1, #2
    1326:	4a62      	ldr	r2, [pc, #392]	; (14b0 <words+0xc0>)
    1328:	6810      	ldr	r0, [r2, #0]
    132a:	b403      	push	{r0, r1}
    132c:	200a      	movs	r0, #10
    132e:	6010      	str	r0, [r2, #0]
    1330:	f7ff ff9b 	bl	126a <dotgaensefuesschen>
    1334:	61745308 	cmnvs	r4, r8, lsl #6
    1338:	203a6b63 	eorscs	r6, sl, r3, ror #22
    133c:	3f04005b 	svccc	0x0004005b
    1340:	603e      	str	r6, [r7, #0]
    1342:	000e      	movs	r6, r1
    1344:	f001 fa18 	bl	2778 <dot>
    1348:	f7ff ff8f 	bl	126a <dotgaensefuesschen>
    134c:	00205d02 	eoreq	r5, r0, r2, lsl #26
    1350:	bc03      	pop	{r0, r1}
    1352:	4a57      	ldr	r2, [pc, #348]	; (14b0 <words+0xc0>)
    1354:	6010      	str	r0, [r2, #0]
    1356:	2900      	cmp	r1, #0
    1358:	d00b      	beq.n	1372 <dots+0x54>
    135a:	4a56      	ldr	r2, [pc, #344]	; (14b4 <words+0xc4>)
    135c:	6810      	ldr	r0, [r2, #0]
    135e:	b406      	push	{r1, r2}
    1360:	3f04      	subs	r7, #4
    1362:	603e      	str	r6, [r7, #0]
    1364:	0006      	movs	r6, r0
    1366:	f001 fa07 	bl	2778 <dot>
    136a:	bc06      	pop	{r1, r2}
    136c:	3a04      	subs	r2, #4
    136e:	3901      	subs	r1, #1
    1370:	d1f4      	bne.n	135c <dots+0x3e>
    1372:	f7ff ff7a 	bl	126a <dotgaensefuesschen>
    1376:	4f542006 	svcmi	0x00542006
    137a:	00203a53 	eoreq	r3, r0, r3, asr sl
    137e:	3f04      	subs	r7, #4
    1380:	603e      	str	r6, [r7, #0]
    1382:	0036      	movs	r6, r6
    1384:	f001 f9f8 	bl	2778 <dot>
    1388:	f7ff ff6f 	bl	126a <dotgaensefuesschen>
    138c:	3e2a2004 	cdpcc	0, 2, cr2, cr10, cr4, {0}
    1390:	bd0f000a 	stclt	0, cr0, [pc, #-40]	; 1370 <dots+0x52>
    1394:	00001314 	andeq	r1, r0, r4, lsl r3
    1398:	64040000 	strvs	r0, [r4], #-0
    139c:	00706d75 	rsbseq	r6, r0, r5, ror sp
    13a0:	b500      	push	{lr}
    13a2:	4630      	mov	r0, r6
    13a4:	cf40      	ldmia	r7!, {r6}
    13a6:	2120      	movs	r1, #32
    13a8:	f7ff ff5f 	bl	126a <dotgaensefuesschen>
    13ac:	75642007 	strbvc	r2, [r4, #-7]!
    13b0:	0a3e706d 	beq	f9d56c <FlashDictionaryEnde+0xf7d56c>
    13b4:	3f04      	subs	r7, #4
    13b6:	603e      	str	r6, [r7, #0]
    13b8:	0006      	movs	r6, r0
    13ba:	f7ff ff93 	bl	12e4 <hexdot>
    13be:	f7ff ff54 	bl	126a <dotgaensefuesschen>
    13c2:	00203a02 	eoreq	r3, r0, r2, lsl #20
    13c6:	8802      	ldrh	r2, [r0, #0]
    13c8:	3f04      	subs	r7, #4
    13ca:	603e      	str	r6, [r7, #0]
    13cc:	0016      	movs	r6, r2
    13ce:	f7ff ff89 	bl	12e4 <hexdot>
    13d2:	f7ff ff4a 	bl	126a <dotgaensefuesschen>
    13d6:	0a3e2003 	beq	f893ea <FlashDictionaryEnde+0xf693ea>
    13da:	3002      	adds	r0, #2
    13dc:	3901      	subs	r1, #1
    13de:	d1e9      	bne.n	13b4 <dots+0x96>
    13e0:	bd00      	pop	{pc}
    13e2:	46c0      	nop			; (mov r8, r8)
    13e4:	00001394 	muleq	r0, r4, r3
    13e8:	77050000 	strvc	r0, [r5, -r0]
    13ec:	7364726f 	cmnvc	r4, #-268435450	; 0xf0000006

000013f0 <words>:
    13f0:	b500      	push	{lr}
    13f2:	f7ff ff3a 	bl	126a <dotgaensefuesschen>
    13f6:	726f7706 	rsbvc	r7, pc, #1572864	; 0x180000
    13fa:	000a7364 	andeq	r7, sl, r4, ror #6
    13fe:	f000 fd74 	bl	1eea <dictionarystart>
    1402:	4630      	mov	r0, r6
    1404:	cf40      	ldmia	r7!, {r6}
    1406:	7981      	ldrb	r1, [r0, #6]
    1408:	29ff      	cmp	r1, #255	; 0xff
    140a:	d045      	beq.n	1498 <words+0xa8>
    140c:	f7ff ff2d 	bl	126a <dotgaensefuesschen>
    1410:	64644109 	strbtvs	r4, [r4], #-265	; 0x109
    1414:	73736572 	cmnvc	r3, #478150656	; 0x1c800000
    1418:	3f04203a 	svccc	0x0004203a
    141c:	603e      	str	r6, [r7, #0]
    141e:	0006      	movs	r6, r0
    1420:	f7ff ff60 	bl	12e4 <hexdot>
    1424:	f7ff ff21 	bl	126a <dotgaensefuesschen>
    1428:	6e694c06 	cdpvs	12, 6, cr4, cr9, cr6, {0}
    142c:	00203a6b 	eoreq	r3, r0, fp, ror #20
    1430:	6802      	ldr	r2, [r0, #0]
    1432:	3004      	adds	r0, #4
    1434:	3f04      	subs	r7, #4
    1436:	603e      	str	r6, [r7, #0]
    1438:	0016      	movs	r6, r2
    143a:	f7ff ff53 	bl	12e4 <hexdot>
    143e:	8801      	ldrh	r1, [r0, #0]
    1440:	3002      	adds	r0, #2
    1442:	f7ff ff12 	bl	126a <dotgaensefuesschen>
    1446:	616c4607 	cmnvs	ip, r7, lsl #12
    144a:	203a7367 	eorscs	r7, sl, r7, ror #6
    144e:	3f04      	subs	r7, #4
    1450:	603e      	str	r6, [r7, #0]
    1452:	000e      	movs	r6, r1
    1454:	f7ff ff46 	bl	12e4 <hexdot>
    1458:	3f04      	subs	r7, #4
    145a:	603e      	str	r6, [r7, #0]
    145c:	0006      	movs	r6, r0
    145e:	f000 fd51 	bl	1f04 <skipstring>
    1462:	f7ff ff02 	bl	126a <dotgaensefuesschen>
    1466:	646f4306 	strbtvs	r4, [pc], #-774	; 146e <words+0x7e>
    146a:	00203a65 	eoreq	r3, r0, r5, ror #20
    146e:	3f04      	subs	r7, #4
    1470:	603e      	str	r6, [r7, #0]
    1472:	0006      	movs	r6, r0
    1474:	f7ff ff36 	bl	12e4 <hexdot>
    1478:	f7ff fef7 	bl	126a <dotgaensefuesschen>
    147c:	6d614e06 	stclvs	14, cr4, [r1, #-24]!	; 0xffffffe8
    1480:	00203a65 	eoreq	r3, r0, r5, ror #20
    1484:	f7ff ff18 	bl	12b8 <type>
    1488:	f7ff feef 	bl	126a <dotgaensefuesschen>
    148c:	480a0a01 	stmdami	sl, {r0, r9, fp}
    1490:	4282      	cmp	r2, r0
    1492:	d001      	beq.n	1498 <words+0xa8>
    1494:	0010      	movs	r0, r2
    1496:	e7b6      	b.n	1406 <words+0x16>
    1498:	bd00      	pop	{pc}
    149a:	f0000000 			; <UNDEFINED> instruction: 0xf0000000
    149e:	f0701fff 			; <UNDEFINED> instruction: 0xf0701fff
    14a2:	126a1fff 	rsbne	r1, sl, #1020	; 0x3fc
    14a6:	128a0000 	addne	r0, sl, #0
    14aa:	f2380000 	vhadd.s<illegal width 64>	d0, d8, d0
    14ae:	f0101fff 			; <UNDEFINED> instruction: 0xf0101fff
    14b2:	f2341fff 	vrsqrts.f<illegal width 64>	<illegal reg q0.5>, q10, <illegal reg q15.5>
    14b6:	ffff1fff 			; <UNDEFINED> instruction: 0xffff1fff
    14ba:	13e4ffff 	mvnne	pc, #1020	; 0x3fc
    14be:	00000000 	andeq	r0, r0, r0
    14c2:	67657210 			; <UNDEFINED> instruction: 0x67657210
    14c6:	65747369 	ldrbvs	r7, [r4, #-873]!	; 0x369
    14ca:	74696c72 	strbtvc	r6, [r9], #-3186	; 0xc72
    14ce:	6c617265 	sfmvs	f7, 2, [r1], #-404	; 0xfffffe6c
    14d2:	b53f002c 	ldrlt	r0, [pc, #-44]!	; 14ae <words+0xbe>

000014d4 <registerliteralkomma>:
    14d4:	b53f      	push	{r0, r1, r2, r3, r4, r5, lr}
    14d6:	4635      	mov	r5, r6
    14d8:	cf40      	ldmia	r7!, {r6}
    14da:	0029      	movs	r1, r5
    14dc:	00c9      	lsls	r1, r1, #3
    14de:	4329      	orrs	r1, r5
    14e0:	022d      	lsls	r5, r5, #8
    14e2:	4895      	ldr	r0, [pc, #596]	; (1738 <dodoesaddr+0x7e>)
    14e4:	4305      	orrs	r5, r0
    14e6:	23ff      	movs	r3, #255	; 0xff
    14e8:	2200      	movs	r2, #0
    14ea:	0030      	movs	r0, r6
    14ec:	40d0      	lsrs	r0, r2
    14ee:	4398      	bics	r0, r3
    14f0:	d001      	beq.n	14f6 <registerliteralkomma+0x22>
    14f2:	3201      	adds	r2, #1
    14f4:	e7f9      	b.n	14ea <registerliteralkomma+0x16>
    14f6:	0030      	movs	r0, r6
    14f8:	40d0      	lsrs	r0, r2
    14fa:	4018      	ands	r0, r3
    14fc:	4328      	orrs	r0, r5
    14fe:	3f04      	subs	r7, #4
    1500:	603e      	str	r6, [r7, #0]
    1502:	0006      	movs	r6, r0
    1504:	f000 fbab 	bl	1c5e <hkomma>
    1508:	488c      	ldr	r0, [pc, #560]	; (173c <dodoesaddr+0x82>)
    150a:	4305      	orrs	r5, r0
    150c:	0018      	movs	r0, r3
    150e:	4090      	lsls	r0, r2
    1510:	4386      	bics	r6, r0
    1512:	d010      	beq.n	1536 <registerliteralkomma+0x62>
    1514:	2400      	movs	r4, #0
    1516:	0030      	movs	r0, r6
    1518:	40e0      	lsrs	r0, r4
    151a:	4398      	bics	r0, r3
    151c:	d001      	beq.n	1522 <registerliteralkomma+0x4e>
    151e:	3401      	adds	r4, #1
    1520:	e7f9      	b.n	1516 <registerliteralkomma+0x42>
    1522:	1b10      	subs	r0, r2, r4
    1524:	3f04      	subs	r7, #4
    1526:	603e      	str	r6, [r7, #0]
    1528:	000e      	movs	r6, r1
    152a:	0180      	lsls	r0, r0, #6
    152c:	4306      	orrs	r6, r0
    152e:	f000 fb96 	bl	1c5e <hkomma>
    1532:	0022      	movs	r2, r4
    1534:	e7df      	b.n	14f6 <registerliteralkomma+0x22>
    1536:	2a00      	cmp	r2, #0
    1538:	d006      	beq.n	1548 <registerliteralkomma+0x74>
    153a:	3f04      	subs	r7, #4
    153c:	603e      	str	r6, [r7, #0]
    153e:	000e      	movs	r6, r1
    1540:	0192      	lsls	r2, r2, #6
    1542:	4316      	orrs	r6, r2
    1544:	f000 fb8b 	bl	1c5e <hkomma>
    1548:	cf40      	ldmia	r7!, {r6}
    154a:	bd3f      	pop	{r0, r1, r2, r3, r4, r5, pc}

0000154c <registerliteralkommalang>:
    154c:	b51f      	push	{r0, r1, r2, r3, r4, lr}
    154e:	4631      	mov	r1, r6
    1550:	cf40      	ldmia	r7!, {r6}
    1552:	4c7b      	ldr	r4, [pc, #492]	; (1740 <dodoesaddr+0x86>)
    1554:	430c      	orrs	r4, r1
    1556:	00c9      	lsls	r1, r1, #3
    1558:	430c      	orrs	r4, r1
    155a:	0149      	lsls	r1, r1, #5
    155c:	4630      	mov	r0, r6
    155e:	cf40      	ldmia	r7!, {r6}
    1560:	0e02      	lsrs	r2, r0, #24
    1562:	23ff      	movs	r3, #255	; 0xff
    1564:	401a      	ands	r2, r3
    1566:	4b74      	ldr	r3, [pc, #464]	; (1738 <dodoesaddr+0x7e>)
    1568:	430b      	orrs	r3, r1
    156a:	4313      	orrs	r3, r2
    156c:	3f04      	subs	r7, #4
    156e:	603e      	str	r6, [r7, #0]
    1570:	001e      	movs	r6, r3
    1572:	f000 fb74 	bl	1c5e <hkomma>
    1576:	3f04      	subs	r7, #4
    1578:	603e      	str	r6, [r7, #0]
    157a:	0026      	movs	r6, r4
    157c:	f000 fb6f 	bl	1c5e <hkomma>
    1580:	0c02      	lsrs	r2, r0, #16
    1582:	23ff      	movs	r3, #255	; 0xff
    1584:	401a      	ands	r2, r3
    1586:	4b6f      	ldr	r3, [pc, #444]	; (1744 <dodoesaddr+0x8a>)
    1588:	430b      	orrs	r3, r1
    158a:	4313      	orrs	r3, r2
    158c:	3f04      	subs	r7, #4
    158e:	603e      	str	r6, [r7, #0]
    1590:	001e      	movs	r6, r3
    1592:	f000 fb64 	bl	1c5e <hkomma>
    1596:	3f04      	subs	r7, #4
    1598:	603e      	str	r6, [r7, #0]
    159a:	0026      	movs	r6, r4
    159c:	f000 fb5f 	bl	1c5e <hkomma>
    15a0:	0a02      	lsrs	r2, r0, #8
    15a2:	23ff      	movs	r3, #255	; 0xff
    15a4:	401a      	ands	r2, r3
    15a6:	4b67      	ldr	r3, [pc, #412]	; (1744 <dodoesaddr+0x8a>)
    15a8:	430b      	orrs	r3, r1
    15aa:	4313      	orrs	r3, r2
    15ac:	3f04      	subs	r7, #4
    15ae:	603e      	str	r6, [r7, #0]
    15b0:	001e      	movs	r6, r3
    15b2:	f000 fb54 	bl	1c5e <hkomma>
    15b6:	3f04      	subs	r7, #4
    15b8:	603e      	str	r6, [r7, #0]
    15ba:	0026      	movs	r6, r4
    15bc:	f000 fb4f 	bl	1c5e <hkomma>
    15c0:	0002      	movs	r2, r0
    15c2:	23ff      	movs	r3, #255	; 0xff
    15c4:	401a      	ands	r2, r3
    15c6:	4b5f      	ldr	r3, [pc, #380]	; (1744 <dodoesaddr+0x8a>)
    15c8:	430b      	orrs	r3, r1
    15ca:	4313      	orrs	r3, r2
    15cc:	3f04      	subs	r7, #4
    15ce:	603e      	str	r6, [r7, #0]
    15d0:	001e      	movs	r6, r3
    15d2:	f000 fb44 	bl	1c5e <hkomma>
    15d6:	bd1f      	pop	{r0, r1, r2, r3, r4, pc}
    15d8:	000014bc 			; <UNDEFINED> instruction: 0x000014bc
    15dc:	63050000 	movwvs	r0, #20480	; 0x5000
    15e0:	2c6c6c61 	stclcs	12, cr6, [ip], #-388	; 0xfffffe7c

000015e4 <callkomma>:
    15e4:	b50f      	push	{r0, r1, r2, r3, lr}
    15e6:	0033      	movs	r3, r6
    15e8:	f000 fd2e 	bl	2048 <here>
    15ec:	4630      	mov	r0, r6
    15ee:	cf40      	ldmia	r7!, {r6}
    15f0:	1a1b      	subs	r3, r3, r0
    15f2:	3b04      	subs	r3, #4
    15f4:	4954      	ldr	r1, [pc, #336]	; (1748 <dodoesaddr+0x8e>)
    15f6:	4019      	ands	r1, r3
    15f8:	2900      	cmp	r1, #0
    15fa:	d00e      	beq.n	161a <callkomma+0x36>
    15fc:	4a53      	ldr	r2, [pc, #332]	; (174c <dodoesaddr+0x92>)
    15fe:	4291      	cmp	r1, r2
    1600:	d00b      	beq.n	161a <callkomma+0x36>
    1602:	3601      	adds	r6, #1
    1604:	3f04      	subs	r7, #4
    1606:	603e      	str	r6, [r7, #0]
    1608:	2600      	movs	r6, #0
    160a:	f7ff ff63 	bl	14d4 <registerliteralkomma>
    160e:	3f04      	subs	r7, #4
    1610:	603e      	str	r6, [r7, #0]
    1612:	4e4f      	ldr	r6, [pc, #316]	; (1750 <dodoesaddr+0x96>)
    1614:	f000 fb23 	bl	1c5e <hkomma>
    1618:	bd0f      	pop	{r0, r1, r2, r3, pc}
    161a:	cf40      	ldmia	r7!, {r6}
    161c:	085b      	lsrs	r3, r3, #1
    161e:	484d      	ldr	r0, [pc, #308]	; (1754 <dodoesaddr+0x9a>)
    1620:	494d      	ldr	r1, [pc, #308]	; (1758 <dodoesaddr+0x9e>)
    1622:	4019      	ands	r1, r3
    1624:	4308      	orrs	r0, r1
    1626:	0adb      	lsrs	r3, r3, #11
    1628:	494c      	ldr	r1, [pc, #304]	; (175c <dodoesaddr+0xa2>)
    162a:	4019      	ands	r1, r3
    162c:	0409      	lsls	r1, r1, #16
    162e:	4308      	orrs	r0, r1
    1630:	0a9b      	lsrs	r3, r3, #10
    1632:	2101      	movs	r1, #1
    1634:	4019      	ands	r1, r3
    1636:	0689      	lsls	r1, r1, #26
    1638:	4308      	orrs	r0, r1
    163a:	3f04      	subs	r7, #4
    163c:	603e      	str	r6, [r7, #0]
    163e:	0006      	movs	r6, r0
    1640:	f000 fb35 	bl	1cae <reversekomma>
    1644:	bd0f      	pop	{r0, r1, r2, r3, pc}
    1646:	46c0      	nop			; (mov r8, r8)
    1648:	000015d8 	ldrdeq	r1, [r0], -r8
    164c:	6c080000 	stcvs	0, cr0, [r8], {-0}
    1650:	72657469 	rsbvc	r7, r5, #1761607680	; 0x69000000
    1654:	002c6c61 	eoreq	r6, ip, r1, ror #24

00001658 <literalkomma>:
    1658:	b508      	push	{r3, lr}
    165a:	3f04      	subs	r7, #4
    165c:	603e      	str	r6, [r7, #0]
    165e:	4e40      	ldr	r6, [pc, #256]	; (1760 <dodoesaddr+0xa6>)
    1660:	f000 fafd 	bl	1c5e <hkomma>
    1664:	3f04      	subs	r7, #4
    1666:	603e      	str	r6, [r7, #0]
    1668:	4e3e      	ldr	r6, [pc, #248]	; (1764 <dodoesaddr+0xaa>)
    166a:	f000 faf8 	bl	1c5e <hkomma>
    166e:	4b3e      	ldr	r3, [pc, #248]	; (1768 <dodoesaddr+0xae>)
    1670:	0030      	movs	r0, r6
    1672:	4018      	ands	r0, r3
    1674:	4298      	cmp	r0, r3
    1676:	d10b      	bne.n	1690 <literalkomma+0x38>
    1678:	43f6      	mvns	r6, r6
    167a:	3f04      	subs	r7, #4
    167c:	603e      	str	r6, [r7, #0]
    167e:	2606      	movs	r6, #6
    1680:	f7ff ff28 	bl	14d4 <registerliteralkomma>
    1684:	3f04      	subs	r7, #4
    1686:	603e      	str	r6, [r7, #0]
    1688:	4e38      	ldr	r6, [pc, #224]	; (176c <dodoesaddr+0xb2>)
    168a:	f000 fae8 	bl	1c5e <hkomma>
    168e:	bd08      	pop	{r3, pc}
    1690:	3f04      	subs	r7, #4
    1692:	603e      	str	r6, [r7, #0]
    1694:	2606      	movs	r6, #6
    1696:	f7ff ff1d 	bl	14d4 <registerliteralkomma>
    169a:	bd08      	pop	{r3, pc}
    169c:	00001648 	andeq	r1, r0, r8, asr #12
    16a0:	64050020 	strvs	r0, [r5], #-32
    16a4:	3e73656f 	cdpcc	5, 7, cr6, cr3, cr15, {3}

000016a8 <does>:
    16a8:	2016      	movs	r0, #22
    16aa:	0200      	lsls	r0, r0, #8
    16ac:	30bb      	adds	r0, #187	; 0xbb
    16ae:	4780      	blx	r0
    16b0:	3f04      	subs	r7, #4
    16b2:	603e      	str	r6, [r7, #0]
    16b4:	4676      	mov	r6, lr
    16b6:	3e01      	subs	r6, #1
    16b8:	4770      	bx	lr

000016ba <dodoes>:
    16ba:	3f04      	subs	r7, #4
    16bc:	603e      	str	r6, [r7, #0]
    16be:	4676      	mov	r6, lr
    16c0:	3e01      	subs	r6, #1
    16c2:	f000 f902 	bl	18ca <fadenende_einsprungadresse>
    16c6:	4a2a      	ldr	r2, [pc, #168]	; (1770 <dodoesaddr+0xb6>)
    16c8:	6813      	ldr	r3, [r2, #0]
    16ca:	4631      	mov	r1, r6
    16cc:	cf40      	ldmia	r7!, {r6}
    16ce:	2002      	movs	r0, #2
    16d0:	4008      	ands	r0, r1
    16d2:	d100      	bne.n	16d6 <dodoes+0x1c>
    16d4:	3102      	adds	r1, #2
    16d6:	3102      	adds	r1, #2
    16d8:	6011      	str	r1, [r2, #0]
    16da:	3601      	adds	r6, #1
    16dc:	3f04      	subs	r7, #4
    16de:	603e      	str	r6, [r7, #0]
    16e0:	2600      	movs	r6, #0
    16e2:	f7ff ff33 	bl	154c <registerliteralkommalang>
    16e6:	3f04      	subs	r7, #4
    16e8:	603e      	str	r6, [r7, #0]
    16ea:	4e19      	ldr	r6, [pc, #100]	; (1750 <dodoesaddr+0x96>)
    16ec:	f000 fab7 	bl	1c5e <hkomma>
    16f0:	6013      	str	r3, [r2, #0]
    16f2:	f000 f9f4 	bl	1ade <smudge>
    16f6:	bd00      	pop	{pc}
    16f8:	0000169c 	muleq	r0, ip, r6
    16fc:	3c070000 	stccc	0, cr0, [r7], {-0}
    1700:	6c697562 	cfstr64vs	mvdx7, [r9], #-392	; 0xfffffe78
    1704:	b5007364 	strlt	r7, [r0, #-868]	; 0x364
    1708:	f000 fb77 	bl	1dfa <create>
    170c:	f000 fc9c 	bl	2048 <here>
    1710:	2002      	movs	r0, #2
    1712:	4006      	ands	r6, r0
    1714:	cf40      	ldmia	r7!, {r6}
    1716:	d104      	bne.n	1722 <dodoesaddr+0x68>
    1718:	3f04      	subs	r7, #4
    171a:	603e      	str	r6, [r7, #0]
    171c:	4e15      	ldr	r6, [pc, #84]	; (1774 <dodoesaddr+0xba>)
    171e:	f000 fa9e 	bl	1c5e <hkomma>
    1722:	3f04      	subs	r7, #4
    1724:	603e      	str	r6, [r7, #0]
    1726:	4e14      	ldr	r6, [pc, #80]	; (1778 <dodoesaddr+0xbe>)
    1728:	f000 fa99 	bl	1c5e <hkomma>
    172c:	3f04      	subs	r7, #4
    172e:	603e      	str	r6, [r7, #0]
    1730:	2610      	movs	r6, #16
    1732:	f000 faeb 	bl	1d0c <allot>
    1736:	bd00      	pop	{pc}
    1738:	00002000 	andeq	r2, r0, r0
    173c:	00001000 	andeq	r1, r0, r0
    1740:	00000200 	andeq	r0, r0, r0, lsl #4
    1744:	00003000 	andeq	r3, r0, r0
    1748:	ffc00001 			; <UNDEFINED> instruction: 0xffc00001
    174c:	ffc00000 			; <UNDEFINED> instruction: 0xffc00000
    1750:	00004780 	andeq	r4, r0, r0, lsl #15
    1754:	f000f800 			; <UNDEFINED> instruction: 0xf000f800
    1758:	000007ff 	strdeq	r0, [r0], -pc	; <UNPREDICTABLE>
    175c:	000003ff 	strdeq	r0, [r0], -pc	; <UNPREDICTABLE>
    1760:	00003f04 	andeq	r3, r0, r4, lsl #30
    1764:	0000603e 	andeq	r6, r0, lr, lsr r0
    1768:	ffff0000 			; <UNDEFINED> instruction: 0xffff0000
    176c:	000043f6 	strdeq	r4, [r0], -r6
    1770:	1ffff004 	svcne	0x00fff004
    1774:	00000036 	andeq	r0, r0, r6, lsr r0
    1778:	0000b500 	andeq	fp, r0, r0, lsl #10
    177c:	000016f8 	strdeq	r1, [r0], -r8
    1780:	5b030050 	blpl	c18c8 <FlashDictionaryEnde+0xa18c8>
    1784:	e0035d27 	and	r5, r3, r7, lsr #26
    1788:	0000177c 	andeq	r1, r0, ip, ror r7
    178c:	27010000 	strcs	r0, [r1, -r0]

00001790 <tick>:
    1790:	b500      	push	{lr}
    1792:	f000 fee9 	bl	2568 <token>
    1796:	4630      	mov	r0, r6
    1798:	cf40      	ldmia	r7!, {r6}
    179a:	7801      	ldrb	r1, [r0, #0]
    179c:	2900      	cmp	r1, #0
    179e:	d10c      	bne.n	17ba <tick+0x2a>
    17a0:	f7ff fd63 	bl	126a <dotgaensefuesschen>
    17a4:	20272010 	eorcs	r2, r7, r0, lsl r0
    17a8:	6465656e 	strbtvs	r6, [r5], #-1390	; 0x56e
    17ac:	616e2073 	smcvs	57859	; 0xe203
    17b0:	2120656d 	teqcs	r0, sp, ror #10
    17b4:	f001000a 			; <UNDEFINED> instruction: 0xf001000a
    17b8:	f961 3f04 			; <UNDEFINED> instruction: 0xf9613f04
    17bc:	603e      	str	r6, [r7, #0]
    17be:	0006      	movs	r6, r0
    17c0:	f000 fbb0 	bl	1f24 <find>
    17c4:	cf40      	ldmia	r7!, {r6}
    17c6:	2e00      	cmp	r6, #0
    17c8:	d110      	bne.n	17ec <nicht_gefunden+0x22>

000017ca <nicht_gefunden>:
    17ca:	48b8      	ldr	r0, [pc, #736]	; (1aac <setze_faltbarflag+0x8e>)
    17cc:	3f04      	subs	r7, #4
    17ce:	603e      	str	r6, [r7, #0]
    17d0:	0006      	movs	r6, r0
    17d2:	f7ff fd71 	bl	12b8 <type>
    17d6:	f7ff fd48 	bl	126a <dotgaensefuesschen>
    17da:	6f6e200c 	svcvs	0x006e200c
    17de:	6f662074 	svcvs	0x00662074
    17e2:	2e646e75 	mcrcs	14, 3, r6, cr4, cr5, {3}
    17e6:	f001000a 			; <UNDEFINED> instruction: 0xf001000a
    17ea:	f948 bd00 			; <UNDEFINED> instruction: 0xf948bd00
    17ee:	46c0      	nop			; (mov r8, r8)
    17f0:	00001788 	andeq	r1, r0, r8, lsl #15
    17f4:	70080010 	andvc	r0, r8, r0, lsl r0
    17f8:	7074736f 	rsbsvc	r7, r4, pc, ror #6
    17fc:	00656e6f 	rsbeq	r6, r5, pc, ror #28
    1800:	b500      	push	{lr}
    1802:	f000 feb1 	bl	2568 <token>
    1806:	f000 fb8d 	bl	1f24 <find>
    180a:	4630      	mov	r0, r6
    180c:	cf40      	ldmia	r7!, {r6}
    180e:	2e00      	cmp	r6, #0
    1810:	d0db      	beq.n	17ca <nicht_gefunden>
    1812:	2110      	movs	r1, #16
    1814:	4001      	ands	r1, r0
    1816:	2910      	cmp	r1, #16
    1818:	d00e      	beq.n	1838 <nicht_gefunden+0x6e>
    181a:	2120      	movs	r1, #32
    181c:	4001      	ands	r1, r0
    181e:	2920      	cmp	r1, #32
    1820:	d105      	bne.n	182e <nicht_gefunden+0x64>
    1822:	f7ff ff19 	bl	1658 <literalkomma>
    1826:	3f04      	subs	r7, #4
    1828:	603e      	str	r6, [r7, #0]
    182a:	4ea1      	ldr	r6, [pc, #644]	; (1ab0 <setze_faltbarflag+0x92>)
    182c:	e004      	b.n	1838 <nicht_gefunden+0x6e>
    182e:	f7ff ff13 	bl	1658 <literalkomma>
    1832:	3f04      	subs	r7, #4
    1834:	603e      	str	r6, [r7, #0]
    1836:	4e9f      	ldr	r6, [pc, #636]	; (1ab4 <setze_faltbarflag+0x96>)
    1838:	f7ff fed4 	bl	15e4 <callkomma>
    183c:	bd00      	pop	{pc}
    183e:	46c0      	nop			; (mov r8, r8)
    1840:	000017f0 	strdeq	r1, [r0], -r0
    1844:	69070000 	stmdbvs	r7, {}	; <UNPREDICTABLE>
    1848:	6e696c6e 	cdpvs	12, 6, cr6, cr9, cr14, {3}
    184c:	b5002c65 	strlt	r2, [r0, #-3173]	; 0xc65

0000184e <inlinekomma>:
    184e:	b500      	push	{lr}
    1850:	4999      	ldr	r1, [pc, #612]	; (1ab8 <setze_faltbarflag+0x9a>)
    1852:	4a9a      	ldr	r2, [pc, #616]	; (1abc <setze_faltbarflag+0x9e>)
    1854:	4b9a      	ldr	r3, [pc, #616]	; (1ac0 <setze_faltbarflag+0xa2>)
    1856:	8830      	ldrh	r0, [r6, #0]
    1858:	4288      	cmp	r0, r1
    185a:	d008      	beq.n	186e <inlinekomma+0x20>
    185c:	4290      	cmp	r0, r2
    185e:	d008      	beq.n	1872 <inlinekomma+0x24>
    1860:	4298      	cmp	r0, r3
    1862:	d006      	beq.n	1872 <inlinekomma+0x24>
    1864:	3f04      	subs	r7, #4
    1866:	603e      	str	r6, [r7, #0]
    1868:	0006      	movs	r6, r0
    186a:	f000 f9f8 	bl	1c5e <hkomma>
    186e:	3602      	adds	r6, #2
    1870:	e7f1      	b.n	1856 <inlinekomma+0x8>
    1872:	cf40      	ldmia	r7!, {r6}
    1874:	bd00      	pop	{pc}

00001876 <suchedefinitionsende>:
    1876:	b40e      	push	{r1, r2, r3}
    1878:	4a90      	ldr	r2, [pc, #576]	; (1abc <setze_faltbarflag+0x9e>)
    187a:	4b91      	ldr	r3, [pc, #580]	; (1ac0 <setze_faltbarflag+0xa2>)
    187c:	8801      	ldrh	r1, [r0, #0]
    187e:	3002      	adds	r0, #2
    1880:	4291      	cmp	r1, r2
    1882:	d001      	beq.n	1888 <suchedefinitionsende+0x12>
    1884:	4299      	cmp	r1, r3
    1886:	d1f9      	bne.n	187c <suchedefinitionsende+0x6>
    1888:	bc0e      	pop	{r1, r2, r3}
    188a:	4770      	bx	lr
    188c:	00001840 	andeq	r1, r0, r0, asr #16
    1890:	72040000 	andvc	r0, r4, #0
    1894:	002c7465 	eoreq	r7, ip, r5, ror #8

00001898 <retkomma>:
    1898:	3f04      	subs	r7, #4
    189a:	603e      	str	r6, [r7, #0]
    189c:	4e87      	ldr	r6, [pc, #540]	; (1abc <setze_faltbarflag+0x9e>)
    189e:	e1de      	b.n	1c5e <hkomma>
    18a0:	0000188c 	andeq	r1, r0, ip, lsl #17
    18a4:	65040030 	strvs	r0, [r4, #-48]	; 0x30
    18a8:	00746978 	rsbseq	r6, r4, r8, ror r9
    18ac:	e7f4      	b.n	1898 <retkomma>
    18ae:	46c0      	nop			; (mov r8, r8)
    18b0:	000018a0 	andeq	r1, r0, r0, lsr #17
    18b4:	72070030 	andvc	r0, r7, #48	; 0x30
    18b8:	72756365 	rsbsvc	r6, r5, #-1811939327	; 0x94000001
    18bc:	b5006573 	strlt	r6, [r0, #-1395]	; 0x573
    18c0:	f000 f803 	bl	18ca <fadenende_einsprungadresse>
    18c4:	f7ff fe8e 	bl	15e4 <callkomma>
    18c8:	bd00      	pop	{pc}

000018ca <fadenende_einsprungadresse>:
    18ca:	b50f      	push	{r0, r1, r2, r3, lr}
    18cc:	487d      	ldr	r0, [pc, #500]	; (1ac4 <setze_faltbarflag+0xa6>)
    18ce:	6800      	ldr	r0, [r0, #0]
    18d0:	3006      	adds	r0, #6
    18d2:	7801      	ldrb	r1, [r0, #0]
    18d4:	29ff      	cmp	r1, #255	; 0xff
    18d6:	d109      	bne.n	18ec <fadenende_einsprungadresse+0x22>
    18d8:	3f04      	subs	r7, #4
    18da:	603e      	str	r6, [r7, #0]
    18dc:	0006      	movs	r6, r0
    18de:	b401      	push	{r0}
    18e0:	f7ff f9e2 	bl	ca8 <sammeltabellensuche>
    18e4:	bc01      	pop	{r0}
    18e6:	21ff      	movs	r1, #255	; 0xff
    18e8:	4031      	ands	r1, r6
    18ea:	cf40      	ldmia	r7!, {r6}
    18ec:	3101      	adds	r1, #1
    18ee:	2201      	movs	r2, #1
    18f0:	400a      	ands	r2, r1
    18f2:	1889      	adds	r1, r1, r2
    18f4:	1840      	adds	r0, r0, r1
    18f6:	3f04      	subs	r7, #4
    18f8:	603e      	str	r6, [r7, #0]
    18fa:	0006      	movs	r6, r0
    18fc:	bd0f      	pop	{r0, r1, r2, r3, pc}
    18fe:	46c0      	nop			; (mov r8, r8)
    1900:	000018b0 			; <UNDEFINED> instruction: 0x000018b0
    1904:	73050040 	movwvc	r0, #20544	; 0x5040
    1908:	65746174 	ldrbvs	r6, [r4, #-372]!	; 0x174
    190c:	3f04      	subs	r7, #4
    190e:	603e      	str	r6, [r7, #0]
    1910:	4e6d      	ldr	r6, [pc, #436]	; (1ac8 <setze_faltbarflag+0xaa>)
    1912:	4770      	bx	lr
    1914:	00001900 	andeq	r1, r0, r0, lsl #18
    1918:	5d010000 	stcpl	0, cr0, [r1, #-0]
    191c:	486a      	ldr	r0, [pc, #424]	; (1ac8 <setze_faltbarflag+0xaa>)
    191e:	2100      	movs	r1, #0
    1920:	43c9      	mvns	r1, r1
    1922:	6001      	str	r1, [r0, #0]
    1924:	4770      	bx	lr
    1926:	46c0      	nop			; (mov r8, r8)
    1928:	00001914 	andeq	r1, r0, r4, lsl r9
    192c:	5b010010 	blpl	41974 <FlashDictionaryEnde+0x21974>
    1930:	4865      	ldr	r0, [pc, #404]	; (1ac8 <setze_faltbarflag+0xaa>)
    1932:	2100      	movs	r1, #0
    1934:	6001      	str	r1, [r0, #0]
    1936:	4770      	bx	lr
    1938:	00001928 	andeq	r1, r0, r8, lsr #18
    193c:	3a010000 	bcc	41944 <FlashDictionaryEnde+0x21944>
    1940:	b500      	push	{lr}
    1942:	4862      	ldr	r0, [pc, #392]	; (1acc <setze_faltbarflag+0xae>)
    1944:	6007      	str	r7, [r0, #0]
    1946:	f000 fa58 	bl	1dfa <create>
    194a:	3f04      	subs	r7, #4
    194c:	603e      	str	r6, [r7, #0]
    194e:	4e5a      	ldr	r6, [pc, #360]	; (1ab8 <setze_faltbarflag+0x9a>)
    1950:	f000 f985 	bl	1c5e <hkomma>
    1954:	485c      	ldr	r0, [pc, #368]	; (1ac8 <setze_faltbarflag+0xaa>)
    1956:	2100      	movs	r1, #0
    1958:	43c9      	mvns	r1, r1
    195a:	6001      	str	r1, [r0, #0]
    195c:	bd00      	pop	{pc}
    195e:	46c0      	nop			; (mov r8, r8)
    1960:	00001938 	andeq	r1, r0, r8, lsr r9
    1964:	3b010030 	blcc	41a2c <FlashDictionaryEnde+0x21a2c>
    1968:	b500      	push	{lr}
    196a:	4858      	ldr	r0, [pc, #352]	; (1acc <setze_faltbarflag+0xae>)
    196c:	6801      	ldr	r1, [r0, #0]
    196e:	42b9      	cmp	r1, r7
    1970:	d00e      	beq.n	1990 <fadenende_einsprungadresse+0xc6>
    1972:	f7ff fc7a 	bl	126a <dotgaensefuesschen>
    1976:	74532015 	ldrbvc	r2, [r3], #-21
    197a:	206b6361 	rsbcs	r6, fp, r1, ror #6
    197e:	20746f6e 	rsbscs	r6, r4, lr, ror #30
    1982:	616c6162 	cmnvs	ip, r2, ror #2
    1986:	6465636e 	strbtvs	r6, [r5], #-878	; 0x36e
    198a:	f0010a2e 			; <UNDEFINED> instruction: 0xf0010a2e
    198e:	f876 3f04 	ldr??.w	r3, [r6, #4]!
    1992:	603e      	str	r6, [r7, #0]
    1994:	4e49      	ldr	r6, [pc, #292]	; (1abc <setze_faltbarflag+0x9e>)
    1996:	f000 f962 	bl	1c5e <hkomma>
    199a:	f000 f8a0 	bl	1ade <smudge>
    199e:	484a      	ldr	r0, [pc, #296]	; (1ac8 <setze_faltbarflag+0xaa>)
    19a0:	2100      	movs	r1, #0
    19a2:	6001      	str	r1, [r0, #0]
    19a4:	bd00      	pop	{pc}
    19a6:	46c0      	nop			; (mov r8, r8)
    19a8:	00001960 	andeq	r1, r0, r0, ror #18
    19ac:	65070000 	strvs	r0, [r7, #-0]
    19b0:	75636578 	strbvc	r6, [r3, #-1400]!	; 0x578
    19b4:	46306574 			; <UNDEFINED> instruction: 0x46306574

000019b6 <execute>:
    19b6:	4630      	mov	r0, r6
    19b8:	cf40      	ldmia	r7!, {r6}
    19ba:	3001      	adds	r0, #1
    19bc:	4687      	mov	pc, r0
    19be:	46c0      	nop			; (mov r8, r8)
    19c0:	000019a8 	andeq	r1, r0, r8, lsr #19
    19c4:	69090010 	stmdbvs	r9, {r4}
    19c8:	64656d6d 	strbtvs	r6, [r5], #-3437	; 0xd6d
    19cc:	65746169 	ldrbvs	r6, [r4, #-361]!	; 0x169
    19d0:	3f04      	subs	r7, #4
    19d2:	603e      	str	r6, [r7, #0]
    19d4:	2610      	movs	r6, #16
    19d6:	e0b1      	b.n	1b3c <setflags>
    19d8:	000019c0 	andeq	r1, r0, r0, asr #19
    19dc:	69060010 	stmdbvs	r6, {r4}
    19e0:	6e696c6e 	cdpvs	12, 6, cr6, cr9, cr14, {3}
    19e4:	3f040065 	svccc	0x00040065
    19e8:	603e      	str	r6, [r7, #0]
    19ea:	2620      	movs	r6, #32
    19ec:	e0a6      	b.n	1b3c <setflags>
    19ee:	46c0      	nop			; (mov r8, r8)
    19f0:	000019d8 	ldrdeq	r1, [r0], -r8
    19f4:	630b0010 	movwvs	r0, #45072	; 0xb010
    19f8:	69706d6f 	ldmdbvs	r0!, {r0, r1, r2, r3, r5, r6, r8, sl, fp, sp, lr}^
    19fc:	6e6f656c 	cdpvs	5, 6, cr6, cr15, cr12, {3}
    1a00:	3f04796c 	svccc	0x0004796c
    1a04:	603e      	str	r6, [r7, #0]
    1a06:	2630      	movs	r6, #48	; 0x30
    1a08:	e098      	b.n	1b3c <setflags>
    1a0a:	46c0      	nop			; (mov r8, r8)
    1a0c:	000019f0 	strdeq	r1, [r0], -r0
    1a10:	300a0010 	andcc	r0, sl, r0, lsl r0
    1a14:	6c6f662d 	stclvs	6, cr6, [pc], #-180	; 1968 <fadenende_einsprungadresse+0x9e>
    1a18:	6c626164 	stfvse	f6, [r2], #-400	; 0xfffffe70
    1a1c:	3f040065 	svccc	0x00040065

00001a1e <setze_faltbarflag>:
    1a1e:	3f04      	subs	r7, #4
    1a20:	603e      	str	r6, [r7, #0]
    1a22:	2640      	movs	r6, #64	; 0x40
    1a24:	e08a      	b.n	1b3c <setflags>
    1a26:	46c0      	nop			; (mov r8, r8)
    1a28:	00001a0c 	andeq	r1, r0, ip, lsl #20
    1a2c:	310a0010 	tstcc	sl, r0, lsl r0
    1a30:	6c6f662d 	stclvs	6, cr6, [pc], #-180	; 1984 <fadenende_einsprungadresse+0xba>
    1a34:	6c626164 	stfvse	f6, [r2], #-400	; 0xfffffe70
    1a38:	3f040065 	svccc	0x00040065
    1a3c:	603e      	str	r6, [r7, #0]
    1a3e:	2641      	movs	r6, #65	; 0x41
    1a40:	e07c      	b.n	1b3c <setflags>
    1a42:	46c0      	nop			; (mov r8, r8)
    1a44:	00001a28 	andeq	r1, r0, r8, lsr #20
    1a48:	320a0010 	andcc	r0, sl, #16
    1a4c:	6c6f662d 	stclvs	6, cr6, [pc], #-180	; 19a0 <fadenende_einsprungadresse+0xd6>
    1a50:	6c626164 	stfvse	f6, [r2], #-400	; 0xfffffe70
    1a54:	3f040065 	svccc	0x00040065
    1a58:	603e      	str	r6, [r7, #0]
    1a5a:	2642      	movs	r6, #66	; 0x42
    1a5c:	e06e      	b.n	1b3c <setflags>
    1a5e:	46c0      	nop			; (mov r8, r8)
    1a60:	00001a44 	andeq	r1, r0, r4, asr #20
    1a64:	330a0010 	movwcc	r0, #40976	; 0xa010
    1a68:	6c6f662d 	stclvs	6, cr6, [pc], #-180	; 19bc <execute+0x6>
    1a6c:	6c626164 	stfvse	f6, [r2], #-400	; 0xfffffe70
    1a70:	3f040065 	svccc	0x00040065
    1a74:	603e      	str	r6, [r7, #0]
    1a76:	2643      	movs	r6, #67	; 0x43
    1a78:	e060      	b.n	1b3c <setflags>
    1a7a:	46c0      	nop			; (mov r8, r8)
    1a7c:	00001a60 	andeq	r1, r0, r0, ror #20
    1a80:	63080000 	movwvs	r0, #32768	; 0x8000
    1a84:	74736e6f 	ldrbtvc	r6, [r3], #-3695	; 0xe6f
    1a88:	00746e61 	rsbseq	r6, r4, r1, ror #28
    1a8c:	b500      	push	{lr}
    1a8e:	f000 f9b4 	bl	1dfa <create>
    1a92:	f7ff fde1 	bl	1658 <literalkomma>
    1a96:	3f04      	subs	r7, #4
    1a98:	603e      	str	r6, [r7, #0]
    1a9a:	4e09      	ldr	r6, [pc, #36]	; (1ac0 <setze_faltbarflag+0xa2>)
    1a9c:	f000 f8df 	bl	1c5e <hkomma>
    1aa0:	f7ff ffbd 	bl	1a1e <setze_faltbarflag>
    1aa4:	f000 f81b 	bl	1ade <smudge>
    1aa8:	bd00      	pop	{pc}
    1aaa:	f3380000 	vhadd.u<illegal width 64>	d0, d8, d0
    1aae:	184e1fff 	stmdane	lr, {r0, r1, r2, r3, r4, r5, r6, r7, r8, r9, sl, fp, ip}^
    1ab2:	15e40000 	strbne	r0, [r4, #0]!
    1ab6:	b5000000 	strlt	r0, [r0, #-0]
    1aba:	bd000000 	stclt	0, cr0, [r0, #-0]
    1abe:	47700000 	ldrbmi	r0, [r0, -r0]!
    1ac2:	f0080000 			; <UNDEFINED> instruction: 0xf0080000
    1ac6:	f00c1fff 			; <UNDEFINED> instruction: 0xf00c1fff
    1aca:	f01c1fff 			; <UNDEFINED> instruction: 0xf01c1fff
    1ace:	1a7c1fff 	bne	1f09ad2 <FlashDictionaryEnde+0x1ee9ad2>
    1ad2:	00000000 	andeq	r0, r0, r0
    1ad6:	756d7306 	strbvc	r7, [sp, #-774]!	; 0x306
    1ada:	00656764 	rsbeq	r6, r5, r4, ror #14

00001ade <smudge>:
    1ade:	4849      	ldr	r0, [pc, #292]	; (1c04 <variable_ram+0x42>)
    1ae0:	6801      	ldr	r1, [r0, #0]
    1ae2:	4a49      	ldr	r2, [pc, #292]	; (1c08 <variable_ram+0x46>)
    1ae4:	4291      	cmp	r1, r2
    1ae6:	d21d      	bcs.n	1b24 <smudge_ram>
    1ae8:	b500      	push	{lr}
    1aea:	3902      	subs	r1, #2
    1aec:	880a      	ldrh	r2, [r1, #0]
    1aee:	4b47      	ldr	r3, [pc, #284]	; (1c0c <variable_ram+0x4a>)
    1af0:	429a      	cmp	r2, r3
    1af2:	d104      	bne.n	1afe <smudge+0x20>
    1af4:	3f04      	subs	r7, #4
    1af6:	603e      	str	r6, [r7, #0]
    1af8:	2600      	movs	r6, #0
    1afa:	f000 f8b0 	bl	1c5e <hkomma>
    1afe:	f000 f89c 	bl	1c3a <align4komma>
    1b02:	4843      	ldr	r0, [pc, #268]	; (1c10 <variable_ram+0x4e>)
    1b04:	6800      	ldr	r0, [r0, #0]
    1b06:	3f04      	subs	r7, #4
    1b08:	603e      	str	r6, [r7, #0]
    1b0a:	0006      	movs	r6, r0
    1b0c:	4941      	ldr	r1, [pc, #260]	; (1c14 <variable_ram+0x52>)
    1b0e:	6809      	ldr	r1, [r1, #0]
    1b10:	3104      	adds	r1, #4
    1b12:	4a3c      	ldr	r2, [pc, #240]	; (1c04 <variable_ram+0x42>)
    1b14:	6813      	ldr	r3, [r2, #0]
    1b16:	6011      	str	r1, [r2, #0]
    1b18:	f000 f8a1 	bl	1c5e <hkomma>
    1b1c:	6013      	str	r3, [r2, #0]
    1b1e:	f7ff f8a1 	bl	c64 <sammeltabelleleerprobe>
    1b22:	bd00      	pop	{pc}

00001b24 <smudge_ram>:
    1b24:	3f04      	subs	r7, #4
    1b26:	603e      	str	r6, [r7, #0]
    1b28:	2600      	movs	r6, #0
    1b2a:	e007      	b.n	1b3c <setflags>
    1b2c:	00001ad0 	ldrdeq	r1, [r0], -r0
    1b30:	73080000 	movwvc	r0, #32768	; 0x8000
    1b34:	6c667465 	cfstrdvs	mvd7, [r6], #-404	; 0xfffffe6c
    1b38:	00736761 	rsbseq	r6, r3, r1, ror #14

00001b3c <setflags>:
    1b3c:	b500      	push	{lr}
    1b3e:	4831      	ldr	r0, [pc, #196]	; (1c04 <variable_ram+0x42>)
    1b40:	6801      	ldr	r1, [r0, #0]
    1b42:	4a31      	ldr	r2, [pc, #196]	; (1c08 <variable_ram+0x46>)
    1b44:	4291      	cmp	r1, r2
    1b46:	d205      	bcs.n	1b54 <setflags_ram>
    1b48:	4831      	ldr	r0, [pc, #196]	; (1c10 <variable_ram+0x4e>)
    1b4a:	6801      	ldr	r1, [r0, #0]
    1b4c:	4331      	orrs	r1, r6
    1b4e:	6001      	str	r1, [r0, #0]
    1b50:	cf40      	ldmia	r7!, {r6}
    1b52:	bd00      	pop	{pc}

00001b54 <setflags_ram>:
    1b54:	4632      	mov	r2, r6
    1b56:	cf40      	ldmia	r7!, {r6}
    1b58:	482e      	ldr	r0, [pc, #184]	; (1c14 <variable_ram+0x52>)
    1b5a:	6800      	ldr	r0, [r0, #0]
    1b5c:	3004      	adds	r0, #4
    1b5e:	8801      	ldrh	r1, [r0, #0]
    1b60:	4b2a      	ldr	r3, [pc, #168]	; (1c0c <variable_ram+0x4a>)
    1b62:	4299      	cmp	r1, r3
    1b64:	d101      	bne.n	1b6a <setflags_ram+0x16>
    1b66:	0011      	movs	r1, r2
    1b68:	e000      	b.n	1b6c <setflags_ram+0x18>
    1b6a:	4311      	orrs	r1, r2
    1b6c:	8001      	strh	r1, [r0, #0]
    1b6e:	bd00      	pop	{pc}
    1b70:	00001b2c 	andeq	r1, r0, ip, lsr #22
    1b74:	76080000 	strvc	r0, [r8], -r0
    1b78:	61697261 	cmnvs	r9, r1, ror #4
    1b7c:	00656c62 	rsbeq	r6, r5, r2, ror #24
    1b80:	b500      	push	{lr}
    1b82:	f000 f93a 	bl	1dfa <create>
    1b86:	481f      	ldr	r0, [pc, #124]	; (1c04 <variable_ram+0x42>)
    1b88:	6801      	ldr	r1, [r0, #0]
    1b8a:	4a1f      	ldr	r2, [pc, #124]	; (1c08 <variable_ram+0x46>)
    1b8c:	4291      	cmp	r1, r2
    1b8e:	d218      	bcs.n	1bc2 <variable_ram>
    1b90:	4821      	ldr	r0, [pc, #132]	; (1c18 <variable_ram+0x56>)
    1b92:	6801      	ldr	r1, [r0, #0]
    1b94:	3904      	subs	r1, #4
    1b96:	6001      	str	r1, [r0, #0]
    1b98:	600e      	str	r6, [r1, #0]
    1b9a:	3f04      	subs	r7, #4
    1b9c:	603e      	str	r6, [r7, #0]
    1b9e:	000e      	movs	r6, r1
    1ba0:	f7ff fd5a 	bl	1658 <literalkomma>
    1ba4:	3f04      	subs	r7, #4
    1ba6:	603e      	str	r6, [r7, #0]
    1ba8:	4e1c      	ldr	r6, [pc, #112]	; (1c1c <variable_ram+0x5a>)
    1baa:	f000 f858 	bl	1c5e <hkomma>
    1bae:	f000 f86f 	bl	1c90 <komma>
    1bb2:	3f04      	subs	r7, #4
    1bb4:	603e      	str	r6, [r7, #0]
    1bb6:	2681      	movs	r6, #129	; 0x81
    1bb8:	f7ff ffc0 	bl	1b3c <setflags>
    1bbc:	f7ff ff8f 	bl	1ade <smudge>
    1bc0:	bd00      	pop	{pc}

00001bc2 <variable_ram>:
    1bc2:	f000 fa41 	bl	2048 <here>
    1bc6:	2002      	movs	r0, #2
    1bc8:	4006      	ands	r6, r0
    1bca:	cf40      	ldmia	r7!, {r6}
    1bcc:	d104      	bne.n	1bd8 <variable_ram+0x16>
    1bce:	3f04      	subs	r7, #4
    1bd0:	603e      	str	r6, [r7, #0]
    1bd2:	4e13      	ldr	r6, [pc, #76]	; (1c20 <variable_ram+0x5e>)
    1bd4:	f000 f843 	bl	1c5e <hkomma>
    1bd8:	3f04      	subs	r7, #4
    1bda:	603e      	str	r6, [r7, #0]
    1bdc:	4e11      	ldr	r6, [pc, #68]	; (1c24 <variable_ram+0x62>)
    1bde:	f000 f866 	bl	1cae <reversekomma>
    1be2:	3f04      	subs	r7, #4
    1be4:	603e      	str	r6, [r7, #0]
    1be6:	4e10      	ldr	r6, [pc, #64]	; (1c28 <variable_ram+0x66>)
    1be8:	f000 f861 	bl	1cae <reversekomma>
    1bec:	3f04      	subs	r7, #4
    1bee:	603e      	str	r6, [r7, #0]
    1bf0:	4e0a      	ldr	r6, [pc, #40]	; (1c1c <variable_ram+0x5a>)
    1bf2:	f000 f834 	bl	1c5e <hkomma>
    1bf6:	f000 f84b 	bl	1c90 <komma>
    1bfa:	f7ff ff10 	bl	1a1e <setze_faltbarflag>
    1bfe:	f7ff ff6e 	bl	1ade <smudge>
    1c02:	bd00      	pop	{pc}
    1c04:	1ffff004 	svcne	0x00fff004
    1c08:	1ffff000 	svcne	0x00fff000
    1c0c:	0000ffff 	strdeq	pc, [r0], -pc	; <UNPREDICTABLE>
    1c10:	1ffff028 	svcne	0x00fff028
    1c14:	1ffff008 	svcne	0x00fff008
    1c18:	1ffff02c 	svcne	0x00fff02c
    1c1c:	00004770 	andeq	r4, r0, r0, ror r7
    1c20:	00000036 	andeq	r0, r0, r6, lsr r0
    1c24:	3f04603e 	svccc	0x0004603e
    1c28:	467e3602 	ldrbtmi	r3, [lr], -r2, lsl #12
    1c2c:	00001b70 	andeq	r1, r0, r0, ror fp
    1c30:	61070000 	mrsvs	r0, (UNDEF: 7)
    1c34:	6e67696c 	cdpvs	9, 6, cr6, cr7, cr12, {3}
    1c38:	b5002c34 	strlt	r2, [r0, #-3124]	; 0xc34

00001c3a <align4komma>:
    1c3a:	b500      	push	{lr}
    1c3c:	48cf      	ldr	r0, [pc, #828]	; (1f7c <find+0x58>)
    1c3e:	6801      	ldr	r1, [r0, #0]
    1c40:	2002      	movs	r0, #2
    1c42:	4001      	ands	r1, r0
    1c44:	d004      	beq.n	1c50 <align4komma+0x16>
    1c46:	3f04      	subs	r7, #4
    1c48:	603e      	str	r6, [r7, #0]
    1c4a:	2600      	movs	r6, #0
    1c4c:	f000 f807 	bl	1c5e <hkomma>
    1c50:	bd00      	pop	{pc}
    1c52:	46c0      	nop			; (mov r8, r8)
    1c54:	00001c2c 	andeq	r1, r0, ip, lsr #24
    1c58:	68020000 	stmdavs	r2, {}	; <UNPREDICTABLE>
    1c5c:	b50f002c 	strlt	r0, [pc, #-44]	; 1c38 <variable_ram+0x76>

00001c5e <hkomma>:
    1c5e:	b50f      	push	{r0, r1, r2, r3, lr}
    1c60:	48c6      	ldr	r0, [pc, #792]	; (1f7c <find+0x58>)
    1c62:	6801      	ldr	r1, [r0, #0]
    1c64:	4ac6      	ldr	r2, [pc, #792]	; (1f80 <find+0x5c>)
    1c66:	4291      	cmp	r1, r2
    1c68:	d205      	bcs.n	1c76 <hkomma_ram>
    1c6a:	3f04      	subs	r7, #4
    1c6c:	603e      	str	r6, [r7, #0]
    1c6e:	000e      	movs	r6, r1
    1c70:	f7ff f851 	bl	d16 <h_flashkomma>
    1c74:	e002      	b.n	1c7c <hkomma_fertig>

00001c76 <hkomma_ram>:
    1c76:	4632      	mov	r2, r6
    1c78:	cf40      	ldmia	r7!, {r6}
    1c7a:	800a      	strh	r2, [r1, #0]

00001c7c <hkomma_fertig>:
    1c7c:	3f04      	subs	r7, #4
    1c7e:	603e      	str	r6, [r7, #0]
    1c80:	2602      	movs	r6, #2
    1c82:	f000 f843 	bl	1d0c <allot>
    1c86:	bd0f      	pop	{r0, r1, r2, r3, pc}
    1c88:	00001c54 	andeq	r1, r0, r4, asr ip
    1c8c:	2c010000 	stccs	0, cr0, [r1], {-0}

00001c90 <komma>:
    1c90:	b500      	push	{lr}
    1c92:	3f04      	subs	r7, #4
    1c94:	603e      	str	r6, [r7, #0]
    1c96:	f7ff ffe2 	bl	1c5e <hkomma>
    1c9a:	0c36      	lsrs	r6, r6, #16
    1c9c:	f7ff ffdf 	bl	1c5e <hkomma>
    1ca0:	bd00      	pop	{pc}
    1ca2:	46c0      	nop			; (mov r8, r8)
    1ca4:	00001c88 	andeq	r1, r0, r8, lsl #25
    1ca8:	3e030000 	cdpcc	0, 0, cr0, cr3, cr0, {0}
    1cac:	b5002c3c 	strlt	r2, [r0, #-3132]	; 0xc3c

00001cae <reversekomma>:
    1cae:	b500      	push	{lr}
    1cb0:	3f04      	subs	r7, #4
    1cb2:	603e      	str	r6, [r7, #0]
    1cb4:	0c36      	lsrs	r6, r6, #16
    1cb6:	f7ff ffd2 	bl	1c5e <hkomma>
    1cba:	f7ff ffd0 	bl	1c5e <hkomma>
    1cbe:	bd00      	pop	{pc}
    1cc0:	00001ca4 	andeq	r1, r0, r4, lsr #25
    1cc4:	73070000 	movwvc	r0, #28672	; 0x7000
    1cc8:	6e697274 	mcrvs	2, 3, r7, cr9, cr4, {3}
    1ccc:	b5072c67 	strlt	r2, [r7, #-3175]	; 0xc67

00001cce <stringkomma>:
    1cce:	b507      	push	{r0, r1, r2, lr}
    1cd0:	4630      	mov	r0, r6
    1cd2:	cf40      	ldmia	r7!, {r6}
    1cd4:	7801      	ldrb	r1, [r0, #0]
    1cd6:	3101      	adds	r1, #1
    1cd8:	2902      	cmp	r1, #2
    1cda:	d309      	bcc.n	1cf0 <stringkomma+0x22>
    1cdc:	8802      	ldrh	r2, [r0, #0]
    1cde:	3f04      	subs	r7, #4
    1ce0:	603e      	str	r6, [r7, #0]
    1ce2:	0016      	movs	r6, r2
    1ce4:	f7ff ffbb 	bl	1c5e <hkomma>
    1ce8:	3002      	adds	r0, #2
    1cea:	3902      	subs	r1, #2
    1cec:	d006      	beq.n	1cfc <stringkomma+0x2e>
    1cee:	e7f3      	b.n	1cd8 <stringkomma+0xa>
    1cf0:	7802      	ldrb	r2, [r0, #0]
    1cf2:	3f04      	subs	r7, #4
    1cf4:	603e      	str	r6, [r7, #0]
    1cf6:	0016      	movs	r6, r2
    1cf8:	f7ff ffb1 	bl	1c5e <hkomma>
    1cfc:	bd07      	pop	{r0, r1, r2, pc}
    1cfe:	46c0      	nop			; (mov r8, r8)
    1d00:	00001cc0 	andeq	r1, r0, r0, asr #25
    1d04:	61050000 	mrsvs	r0, (UNDEF: 5)
    1d08:	746f6c6c 	strbtvc	r6, [pc], #-3180	; 1d10 <allot+0x4>

00001d0c <allot>:
    1d0c:	489b      	ldr	r0, [pc, #620]	; (1f7c <find+0x58>)
    1d0e:	6801      	ldr	r1, [r0, #0]
    1d10:	4a9b      	ldr	r2, [pc, #620]	; (1f80 <find+0x5c>)
    1d12:	4291      	cmp	r1, r2
    1d14:	d20f      	bcs.n	1d36 <allot_ram>
    1d16:	4632      	mov	r2, r6
    1d18:	cf40      	ldmia	r7!, {r6}
    1d1a:	1889      	adds	r1, r1, r2
    1d1c:	4a99      	ldr	r2, [pc, #612]	; (1f84 <find+0x60>)
    1d1e:	4291      	cmp	r1, r2
    1d20:	d319      	bcc.n	1d56 <allot_ok>
    1d22:	f7ff faa2 	bl	126a <dotgaensefuesschen>
    1d26:	616c460b 	cmnvs	ip, fp, lsl #12
    1d2a:	66206873 			; <UNDEFINED> instruction: 0x66206873
    1d2e:	0a6c6c75 	beq	1b1cf0a <FlashDictionaryEnde+0x1afcf0a>
    1d32:	f000 fea3 	bl	2a7c <quit>

00001d36 <allot_ram>:
    1d36:	4632      	mov	r2, r6
    1d38:	cf40      	ldmia	r7!, {r6}
    1d3a:	1889      	adds	r1, r1, r2
    1d3c:	4a92      	ldr	r2, [pc, #584]	; (1f88 <find+0x64>)
    1d3e:	6812      	ldr	r2, [r2, #0]
    1d40:	4291      	cmp	r1, r2
    1d42:	d308      	bcc.n	1d56 <allot_ok>
    1d44:	f7ff fa91 	bl	126a <dotgaensefuesschen>
    1d48:	6d615209 	sfmvs	f5, 2, [r1, #-36]!	; 0xffffffdc
    1d4c:	6c756620 	ldclvs	6, cr6, [r5], #-128	; 0xffffff80
    1d50:	f0000a6c 			; <UNDEFINED> instruction: 0xf0000a6c
    1d54:	fe93 6001 	cdp2	0, 9, cr6, cr3, cr1, {0}

00001d56 <allot_ok>:
    1d56:	6001      	str	r1, [r0, #0]
    1d58:	4770      	bx	lr
    1d5a:	46c0      	nop			; (mov r8, r8)
    1d5c:	00001d00 	andeq	r1, r0, r0, lsl #26
    1d60:	630c0000 	movwvs	r0, #49152	; 0xc000
    1d64:	69706d6f 	ldmdbvs	r0!, {r0, r1, r2, r3, r5, r6, r8, sl, fp, sp, lr}^
    1d68:	6f74656c 	svcvs	0x0074656c
    1d6c:	006d6172 	rsbeq	r6, sp, r2, ror r1
    1d70:	4882      	ldr	r0, [pc, #520]	; (1f7c <find+0x58>)
    1d72:	6800      	ldr	r0, [r0, #0]
    1d74:	4982      	ldr	r1, [pc, #520]	; (1f80 <find+0x5c>)
    1d76:	4288      	cmp	r0, r1
    1d78:	d311      	bcc.n	1d9e <Zweitpointertausch>
    1d7a:	4770      	bx	lr
    1d7c:	00001d5c 	andeq	r1, r0, ip, asr sp
    1d80:	630e0000 	movwvs	r0, #57344	; 0xe000
    1d84:	69706d6f 	ldmdbvs	r0!, {r0, r1, r2, r3, r5, r6, r8, sl, fp, sp, lr}^
    1d88:	6f74656c 	svcvs	0x0074656c
    1d8c:	73616c66 	cmnvc	r1, #26112	; 0x6600
    1d90:	487a0068 	ldmdami	sl!, {r3, r5, r6}^
    1d94:	6800      	ldr	r0, [r0, #0]
    1d96:	497a      	ldr	r1, [pc, #488]	; (1f80 <find+0x5c>)
    1d98:	4288      	cmp	r0, r1
    1d9a:	d200      	bcs.n	1d9e <Zweitpointertausch>
    1d9c:	4770      	bx	lr

00001d9e <Zweitpointertausch>:
    1d9e:	487b      	ldr	r0, [pc, #492]	; (1f8c <find+0x68>)
    1da0:	497b      	ldr	r1, [pc, #492]	; (1f90 <find+0x6c>)
    1da2:	6802      	ldr	r2, [r0, #0]
    1da4:	680b      	ldr	r3, [r1, #0]
    1da6:	600a      	str	r2, [r1, #0]
    1da8:	6003      	str	r3, [r0, #0]
    1daa:	4874      	ldr	r0, [pc, #464]	; (1f7c <find+0x58>)
    1dac:	4979      	ldr	r1, [pc, #484]	; (1f94 <find+0x70>)
    1dae:	6802      	ldr	r2, [r0, #0]
    1db0:	680b      	ldr	r3, [r1, #0]
    1db2:	600a      	str	r2, [r1, #0]
    1db4:	6003      	str	r3, [r0, #0]
    1db6:	4874      	ldr	r0, [pc, #464]	; (1f88 <find+0x64>)
    1db8:	6800      	ldr	r0, [r0, #0]
    1dba:	4283      	cmp	r3, r0
    1dbc:	d315      	bcc.n	1dea <Zweitpointertausch+0x4c>
    1dbe:	b500      	push	{lr}
    1dc0:	f7ff fa53 	bl	126a <dotgaensefuesschen>
    1dc4:	61562023 	cmpvs	r6, r3, lsr #32
    1dc8:	62616972 	rsbvs	r6, r1, #1867776	; 0x1c8000
    1dcc:	2073656c 	rsbscs	r6, r3, ip, ror #10
    1dd0:	6c6c6f63 	stclvs	15, cr6, [ip], #-396	; 0xfffffe74
    1dd4:	20656469 	rsbcs	r6, r5, r9, ror #8
    1dd8:	68746977 	ldmdavs	r4!, {r0, r1, r2, r4, r5, r6, r8, fp, sp, lr}^
    1ddc:	63696420 	cmnvs	r9, #536870912	; 0x20000000
    1de0:	6e6f6974 	mcrvs	9, 3, r6, cr15, cr4, {3}
    1de4:	0a797261 	beq	1e5e770 <FlashDictionaryEnde+0x1e3e770>
    1de8:	bd00      	pop	{pc}
    1dea:	4770      	bx	lr
    1dec:	00001d7c 	andeq	r1, r0, ip, ror sp
    1df0:	63060000 	movwvs	r0, #24576	; 0x6000
    1df4:	74616572 	strbtvc	r6, [r1], #-1394	; 0x572
    1df8:	b5000065 	strlt	r0, [r0, #-101]	; 0x65

00001dfa <create>:
    1dfa:	b500      	push	{lr}
    1dfc:	f000 fbb4 	bl	2568 <token>
    1e00:	4630      	mov	r0, r6
    1e02:	cf40      	ldmia	r7!, {r6}
    1e04:	7801      	ldrb	r1, [r0, #0]
    1e06:	2900      	cmp	r1, #0
    1e08:	d10e      	bne.n	1e28 <create+0x2e>
    1e0a:	f7ff fa2e 	bl	126a <dotgaensefuesschen>
    1e0e:	72432015 	subvc	r2, r3, #21
    1e12:	65746165 	ldrbvs	r6, [r4, #-357]!	; 0x165
    1e16:	65656e20 	strbvs	r6, [r5, #-3616]!	; 0xe20
    1e1a:	6e207364 	cdpvs	3, 2, cr7, cr0, cr4, {3}
    1e1e:	20656d61 	rsbcs	r6, r5, r1, ror #26
    1e22:	f0000a21 			; <UNDEFINED> instruction: 0xf0000a21
    1e26:	fe2a 3f04 	cdp2	15, 2, cr3, cr10, cr4, {0}
    1e2a:	603e      	str	r6, [r7, #0]
    1e2c:	0006      	movs	r6, r0
    1e2e:	3f04      	subs	r7, #4
    1e30:	603e      	str	r6, [r7, #0]
    1e32:	f000 f877 	bl	1f24 <find>
    1e36:	cf40      	ldmia	r7!, {r6}
    1e38:	4630      	mov	r0, r6
    1e3a:	cf40      	ldmia	r7!, {r6}
    1e3c:	2800      	cmp	r0, #0
    1e3e:	d00e      	beq.n	1e5e <create+0x64>
    1e40:	f7ff fa13 	bl	126a <dotgaensefuesschen>
    1e44:	64655209 	strbtvs	r5, [r5], #-521	; 0x209
    1e48:	6e696665 	cdpvs	6, 6, cr6, cr9, cr5, {3}
    1e4c:	3f042065 	svccc	0x00042065
    1e50:	603e      	str	r6, [r7, #0]
    1e52:	f7ff fa31 	bl	12b8 <type>
    1e56:	f7ff fa08 	bl	126a <dotgaensefuesschen>
    1e5a:	000a2e02 	andeq	r2, sl, r2, lsl #28
    1e5e:	f7ff feec 	bl	1c3a <align4komma>
    1e62:	f000 f8f1 	bl	2048 <here>
    1e66:	4845      	ldr	r0, [pc, #276]	; (1f7c <find+0x58>)
    1e68:	6800      	ldr	r0, [r0, #0]
    1e6a:	4945      	ldr	r1, [pc, #276]	; (1f80 <find+0x5c>)
    1e6c:	4288      	cmp	r0, r1
    1e6e:	d21d      	bcs.n	1eac <create_ram>
    1e70:	4849      	ldr	r0, [pc, #292]	; (1f98 <find+0x74>)
    1e72:	2100      	movs	r1, #0
    1e74:	6001      	str	r1, [r0, #0]
    1e76:	3f04      	subs	r7, #4
    1e78:	603e      	str	r6, [r7, #0]
    1e7a:	2606      	movs	r6, #6
    1e7c:	f7ff ff46 	bl	1d0c <allot>
    1e80:	6839      	ldr	r1, [r7, #0]
    1e82:	603e      	str	r6, [r7, #0]
    1e84:	460e      	mov	r6, r1
    1e86:	f7ff ff22 	bl	1cce <stringkomma>
    1e8a:	4840      	ldr	r0, [pc, #256]	; (1f8c <find+0x68>)
    1e8c:	6801      	ldr	r1, [r0, #0]
    1e8e:	680a      	ldr	r2, [r1, #0]
    1e90:	4b42      	ldr	r3, [pc, #264]	; (1f9c <find+0x78>)
    1e92:	429a      	cmp	r2, r3
    1e94:	d107      	bne.n	1ea6 <create+0xac>
    1e96:	4a39      	ldr	r2, [pc, #228]	; (1f7c <find+0x58>)
    1e98:	6813      	ldr	r3, [r2, #0]
    1e9a:	6011      	str	r1, [r2, #0]
    1e9c:	3f04      	subs	r7, #4
    1e9e:	603e      	str	r6, [r7, #0]
    1ea0:	f7ff fef6 	bl	1c90 <komma>
    1ea4:	6013      	str	r3, [r2, #0]
    1ea6:	6006      	str	r6, [r0, #0]
    1ea8:	cf40      	ldmia	r7!, {r6}
    1eaa:	bd00      	pop	{pc}

00001eac <create_ram>:
    1eac:	4837      	ldr	r0, [pc, #220]	; (1f8c <find+0x68>)
    1eae:	3f04      	subs	r7, #4
    1eb0:	603e      	str	r6, [r7, #0]
    1eb2:	6806      	ldr	r6, [r0, #0]
    1eb4:	f7ff feec 	bl	1c90 <komma>
    1eb8:	3f04      	subs	r7, #4
    1eba:	603e      	str	r6, [r7, #0]
    1ebc:	2600      	movs	r6, #0
    1ebe:	43f6      	mvns	r6, r6
    1ec0:	f7ff fecd 	bl	1c5e <hkomma>
    1ec4:	4831      	ldr	r0, [pc, #196]	; (1f8c <find+0x68>)
    1ec6:	4631      	mov	r1, r6
    1ec8:	cf40      	ldmia	r7!, {r6}
    1eca:	6001      	str	r1, [r0, #0]
    1ecc:	f7ff feff 	bl	1cce <stringkomma>
    1ed0:	bd00      	pop	{pc}
    1ed2:	46c0      	nop			; (mov r8, r8)
    1ed4:	00001dec 	andeq	r1, r0, ip, ror #27
    1ed8:	440f0000 	strmi	r0, [pc], #-0	; 1ee0 <create_ram+0x34>
    1edc:	69746369 	ldmdbvs	r4!, {r0, r3, r5, r6, r8, r9, sp, lr}^
    1ee0:	72616e6f 	rsbvc	r6, r1, #1776	; 0x6f0
    1ee4:	61747379 	cmnvs	r4, r9, ror r3
    1ee8:	48247472 	stmdami	r4!, {r1, r4, r5, r6, sl, ip, sp, lr}

00001eea <dictionarystart>:
    1eea:	4824      	ldr	r0, [pc, #144]	; (1f7c <find+0x58>)
    1eec:	6800      	ldr	r0, [r0, #0]
    1eee:	4b27      	ldr	r3, [pc, #156]	; (1f8c <find+0x68>)
    1ef0:	681b      	ldr	r3, [r3, #0]
    1ef2:	4923      	ldr	r1, [pc, #140]	; (1f80 <find+0x5c>)
    1ef4:	3f04      	subs	r7, #4
    1ef6:	603e      	str	r6, [r7, #0]
    1ef8:	4288      	cmp	r0, r1
    1efa:	d201      	bcs.n	1f00 <dictionarystart+0x16>
    1efc:	4e28      	ldr	r6, [pc, #160]	; (1fa0 <find+0x7c>)
    1efe:	4770      	bx	lr
    1f00:	001e      	movs	r6, r3
    1f02:	4770      	bx	lr

00001f04 <skipstring>:
    1f04:	b406      	push	{r1, r2}
    1f06:	7801      	ldrb	r1, [r0, #0]
    1f08:	3101      	adds	r1, #1
    1f0a:	2201      	movs	r2, #1
    1f0c:	400a      	ands	r2, r1
    1f0e:	1889      	adds	r1, r1, r2
    1f10:	1840      	adds	r0, r0, r1
    1f12:	bc06      	pop	{r1, r2}
    1f14:	4770      	bx	lr
    1f16:	46c0      	nop			; (mov r8, r8)
    1f18:	00001ed4 	ldrdeq	r1, [r0], -r4
    1f1c:	66040000 	strvs	r0, [r4], -r0
    1f20:	00646e69 	rsbeq	r6, r4, r9, ror #28

00001f24 <find>:
    1f24:	b51f      	push	{r0, r1, r2, r3, r4, lr}
    1f26:	0034      	movs	r4, r6
    1f28:	f7ff ffdf 	bl	1eea <dictionarystart>
    1f2c:	4630      	mov	r0, r6
    1f2e:	cf40      	ldmia	r7!, {r6}
    1f30:	2600      	movs	r6, #0
    1f32:	2300      	movs	r3, #0
    1f34:	7981      	ldrb	r1, [r0, #6]
    1f36:	29ff      	cmp	r1, #255	; 0xff
    1f38:	d01c      	beq.n	1f74 <find+0x50>
    1f3a:	8881      	ldrh	r1, [r0, #4]
    1f3c:	4a19      	ldr	r2, [pc, #100]	; (1fa4 <find+0x80>)
    1f3e:	4291      	cmp	r1, r2
    1f40:	6802      	ldr	r2, [r0, #0]
    1f42:	d012      	beq.n	1f6a <find+0x46>
    1f44:	3006      	adds	r0, #6
    1f46:	3f04      	subs	r7, #4
    1f48:	603e      	str	r6, [r7, #0]
    1f4a:	0006      	movs	r6, r0
    1f4c:	3f04      	subs	r7, #4
    1f4e:	603e      	str	r6, [r7, #0]
    1f50:	0026      	movs	r6, r4
    1f52:	f7ff f908 	bl	1166 <compare>
    1f56:	2e00      	cmp	r6, #0
    1f58:	cf40      	ldmia	r7!, {r6}
    1f5a:	d006      	beq.n	1f6a <find+0x46>
    1f5c:	f7ff ffd2 	bl	1f04 <skipstring>
    1f60:	0006      	movs	r6, r0
    1f62:	000b      	movs	r3, r1
    1f64:	4806      	ldr	r0, [pc, #24]	; (1f80 <find+0x5c>)
    1f66:	4286      	cmp	r6, r0
    1f68:	d204      	bcs.n	1f74 <find+0x50>
    1f6a:	480c      	ldr	r0, [pc, #48]	; (1f9c <find+0x78>)
    1f6c:	4282      	cmp	r2, r0
    1f6e:	d001      	beq.n	1f74 <find+0x50>
    1f70:	0010      	movs	r0, r2
    1f72:	e7df      	b.n	1f34 <find+0x10>
    1f74:	3f04      	subs	r7, #4
    1f76:	603e      	str	r6, [r7, #0]
    1f78:	001e      	movs	r6, r3
    1f7a:	bd1f      	pop	{r0, r1, r2, r3, r4, pc}
    1f7c:	1ffff004 	svcne	0x00fff004
    1f80:	1ffff000 	svcne	0x00fff000
    1f84:	00020000 	andeq	r0, r2, r0
    1f88:	1ffff02c 	svcne	0x00fff02c
    1f8c:	1ffff008 	svcne	0x00fff008
    1f90:	1ffff024 	svcne	0x00fff024
    1f94:	1ffff020 	svcne	0x00fff020
    1f98:	1ffff028 	svcne	0x00fff028
    1f9c:	ffffffff 			; <UNDEFINED> instruction: 0xffffffff
    1fa0:	00002bb4 			; <UNDEFINED> instruction: 0x00002bb4
    1fa4:	0000ffff 	strdeq	pc, [r0], -pc	; <UNPREDICTABLE>
    1fa8:	00001f18 	andeq	r1, r0, r8, lsl pc
    1fac:	63060000 	movwvs	r0, #24576	; 0x6000
    1fb0:	706d756a 	rsbvc	r7, sp, sl, ror #10
    1fb4:	4632002c 	ldrtmi	r0, [r2], -ip, lsr #32

00001fb6 <cjumpgenerator>:
    1fb6:	4632      	mov	r2, r6
    1fb8:	cf40      	ldmia	r7!, {r6}
    1fba:	4631      	mov	r1, r6
    1fbc:	cf40      	ldmia	r7!, {r6}
    1fbe:	1b8b      	subs	r3, r1, r6
    1fc0:	3b04      	subs	r3, #4
    1fc2:	499a      	ldr	r1, [pc, #616]	; (222c <struktur_if+0x96>)
    1fc4:	4019      	ands	r1, r3
    1fc6:	2900      	cmp	r1, #0
    1fc8:	d00d      	beq.n	1fe6 <jump_too_far+0x16>
    1fca:	4899      	ldr	r0, [pc, #612]	; (2230 <struktur_if+0x9a>)
    1fcc:	4281      	cmp	r1, r0
    1fce:	d00a      	beq.n	1fe6 <jump_too_far+0x16>

00001fd0 <jump_too_far>:
    1fd0:	f7ff f94b 	bl	126a <dotgaensefuesschen>
    1fd4:	6d754a0d 	vldmdbvs	r5!, {s9-s21}
    1fd8:	6f742070 	svcvs	0x00742070
    1fdc:	6166206f 	cmnvs	r6, pc, rrx
    1fe0:	f0000a72 			; <UNDEFINED> instruction: 0xf0000a72
    1fe4:	fd4b 105b 	stc2l	0, cr1, [fp, #-364]	; 0xfffffe94
    1fe8:	21ff      	movs	r1, #255	; 0xff
    1fea:	400b      	ands	r3, r1
    1fec:	4313      	orrs	r3, r2
    1fee:	0030      	movs	r0, r6
    1ff0:	001e      	movs	r6, r3

00001ff2 <sprungbefehl_einfuegen>:
    1ff2:	b500      	push	{lr}
    1ff4:	4a8f      	ldr	r2, [pc, #572]	; (2234 <struktur_if+0x9e>)
    1ff6:	6813      	ldr	r3, [r2, #0]
    1ff8:	6010      	str	r0, [r2, #0]
    1ffa:	f7ff fe30 	bl	1c5e <hkomma>
    1ffe:	6013      	str	r3, [r2, #0]
    2000:	bd00      	pop	{pc}
    2002:	46c0      	nop			; (mov r8, r8)
    2004:	00001fa8 	andeq	r1, r0, r8, lsr #31
    2008:	6a050000 	bvs	142010 <FlashDictionaryEnde+0x122010>
    200c:	2c706d75 	ldclcs	13, cr6, [r0], #-468	; 0xfffffe2c

00002010 <jumpgenerator>:
    2010:	4631      	mov	r1, r6
    2012:	cf40      	ldmia	r7!, {r6}
    2014:	4630      	mov	r0, r6
    2016:	cf40      	ldmia	r7!, {r6}
    2018:	1a0b      	subs	r3, r1, r0
    201a:	3b04      	subs	r3, #4
    201c:	4986      	ldr	r1, [pc, #536]	; (2238 <struktur_if+0xa2>)
    201e:	4019      	ands	r1, r3
    2020:	2900      	cmp	r1, #0
    2022:	d002      	beq.n	202a <jumpgenerator+0x1a>
    2024:	4a85      	ldr	r2, [pc, #532]	; (223c <struktur_if+0xa6>)
    2026:	4291      	cmp	r1, r2
    2028:	d1d2      	bne.n	1fd0 <jump_too_far>
    202a:	105b      	asrs	r3, r3, #1
    202c:	4a84      	ldr	r2, [pc, #528]	; (2240 <struktur_if+0xaa>)
    202e:	4013      	ands	r3, r2
    2030:	4a84      	ldr	r2, [pc, #528]	; (2244 <struktur_if+0xae>)
    2032:	4313      	orrs	r3, r2
    2034:	3f04      	subs	r7, #4
    2036:	603e      	str	r6, [r7, #0]
    2038:	001e      	movs	r6, r3
    203a:	e7da      	b.n	1ff2 <sprungbefehl_einfuegen>
    203c:	00002004 	andeq	r2, r0, r4
    2040:	68040000 	stmdavs	r4, {}	; <UNPREDICTABLE>
    2044:	00657265 	rsbeq	r7, r5, r5, ror #4

00002048 <here>:
    2048:	3f04      	subs	r7, #4
    204a:	603e      	str	r6, [r7, #0]
    204c:	4e79      	ldr	r6, [pc, #484]	; (2234 <struktur_if+0x9e>)
    204e:	6836      	ldr	r6, [r6, #0]
    2050:	4770      	bx	lr

00002052 <nullprobekomma>:
    2052:	b500      	push	{lr}
    2054:	3f04      	subs	r7, #4
    2056:	603e      	str	r6, [r7, #0]
    2058:	4e7b      	ldr	r6, [pc, #492]	; (2248 <struktur_if+0xb2>)
    205a:	f7ff fe00 	bl	1c5e <hkomma>
    205e:	3f04      	subs	r7, #4
    2060:	603e      	str	r6, [r7, #0]
    2062:	4e7a      	ldr	r6, [pc, #488]	; (224c <struktur_if+0xb6>)
    2064:	f7ff fdfb 	bl	1c5e <hkomma>
    2068:	bd00      	pop	{pc}

0000206a <branch_r>:
    206a:	e7ed      	b.n	2048 <here>

0000206c <r_branch_jne>:
    206c:	b500      	push	{lr}
    206e:	f000 f837 	bl	20e0 <branch_v>
    2072:	6839      	ldr	r1, [r7, #0]
    2074:	603e      	str	r6, [r7, #0]
    2076:	460e      	mov	r6, r1
    2078:	3f04      	subs	r7, #4
    207a:	603e      	str	r6, [r7, #0]
    207c:	4e74      	ldr	r6, [pc, #464]	; (2250 <struktur_if+0xba>)
    207e:	f7ff ff9a 	bl	1fb6 <cjumpgenerator>
    2082:	bd00      	pop	{pc}

00002084 <r_branch_jvc>:
    2084:	b500      	push	{lr}
    2086:	f000 f82b 	bl	20e0 <branch_v>
    208a:	6839      	ldr	r1, [r7, #0]
    208c:	603e      	str	r6, [r7, #0]
    208e:	460e      	mov	r6, r1
    2090:	3f04      	subs	r7, #4
    2092:	603e      	str	r6, [r7, #0]
    2094:	4e6f      	ldr	r6, [pc, #444]	; (2254 <struktur_if+0xbe>)
    2096:	f7ff ff8e 	bl	1fb6 <cjumpgenerator>
    209a:	bd00      	pop	{pc}

0000209c <r_nullbranch>:
    209c:	b500      	push	{lr}
    209e:	f7ff ffd8 	bl	2052 <nullprobekomma>
    20a2:	f000 f81d 	bl	20e0 <branch_v>
    20a6:	6839      	ldr	r1, [r7, #0]
    20a8:	603e      	str	r6, [r7, #0]
    20aa:	460e      	mov	r6, r1
    20ac:	3f04      	subs	r7, #4
    20ae:	603e      	str	r6, [r7, #0]
    20b0:	4e69      	ldr	r6, [pc, #420]	; (2258 <struktur_if+0xc2>)
    20b2:	f7ff ff80 	bl	1fb6 <cjumpgenerator>
    20b6:	bd00      	pop	{pc}

000020b8 <r_branch>:
    20b8:	b500      	push	{lr}
    20ba:	f000 f811 	bl	20e0 <branch_v>
    20be:	6839      	ldr	r1, [r7, #0]
    20c0:	603e      	str	r6, [r7, #0]
    20c2:	460e      	mov	r6, r1
    20c4:	f7ff ffa4 	bl	2010 <jumpgenerator>
    20c8:	bd00      	pop	{pc}

000020ca <nullbranch_v>:
    20ca:	b500      	push	{lr}
    20cc:	f7ff ffc1 	bl	2052 <nullprobekomma>
    20d0:	f7ff ffba 	bl	2048 <here>
    20d4:	3f04      	subs	r7, #4
    20d6:	603e      	str	r6, [r7, #0]
    20d8:	2602      	movs	r6, #2
    20da:	f7ff fe17 	bl	1d0c <allot>
    20de:	bd00      	pop	{pc}

000020e0 <branch_v>:
    20e0:	b500      	push	{lr}
    20e2:	f7ff ffb1 	bl	2048 <here>
    20e6:	3f04      	subs	r7, #4
    20e8:	603e      	str	r6, [r7, #0]
    20ea:	2602      	movs	r6, #2
    20ec:	f7ff fe0e 	bl	1d0c <allot>
    20f0:	bd00      	pop	{pc}

000020f2 <v_branch>:
    20f2:	b500      	push	{lr}
    20f4:	f7ff ffa8 	bl	2048 <here>
    20f8:	f7ff ff8a 	bl	2010 <jumpgenerator>
    20fc:	bd00      	pop	{pc}

000020fe <v_nullbranch>:
    20fe:	b500      	push	{lr}
    2100:	f7ff ffa2 	bl	2048 <here>
    2104:	3f04      	subs	r7, #4
    2106:	603e      	str	r6, [r7, #0]
    2108:	4e53      	ldr	r6, [pc, #332]	; (2258 <struktur_if+0xc2>)
    210a:	f7ff ff54 	bl	1fb6 <cjumpgenerator>
    210e:	bd00      	pop	{pc}

00002110 <v_casebranch>:
    2110:	b500      	push	{lr}
    2112:	f7ff ff99 	bl	2048 <here>
    2116:	3f04      	subs	r7, #4
    2118:	603e      	str	r6, [r7, #0]
    211a:	4e4d      	ldr	r6, [pc, #308]	; (2250 <struktur_if+0xba>)
    211c:	f7ff ff4b 	bl	1fb6 <cjumpgenerator>
    2120:	bd00      	pop	{pc}
    2122:	46c0      	nop			; (mov r8, r8)
    2124:	0000203c 	andeq	r2, r0, ip, lsr r0
    2128:	74040030 	strvc	r0, [r4], #-48	; 0x30
    212c:	006e6568 	rsbeq	r6, lr, r8, ror #10
    2130:	2e05      	cmp	r6, #5
    2132:	d101      	bne.n	2138 <v_casebranch+0x28>
    2134:	cf40      	ldmia	r7!, {r6}
    2136:	e7dc      	b.n	20f2 <v_branch>
    2138:	2e02      	cmp	r6, #2
    213a:	d101      	bne.n	2140 <strukturen_passen_nicht>
    213c:	cf40      	ldmia	r7!, {r6}
    213e:	e7de      	b.n	20fe <v_nullbranch>

00002140 <strukturen_passen_nicht>:
    2140:	f7ff f893 	bl	126a <dotgaensefuesschen>
    2144:	72745317 	rsbsvc	r5, r4, #1543503872	; 0x5c000000
    2148:	75746375 	ldrbvc	r6, [r4, #-885]!	; 0x375
    214c:	20736572 	rsbscs	r6, r3, r2, ror r5
    2150:	276e6f64 	strbcs	r6, [lr, -r4, ror #30]!
    2154:	616d2074 	smcvs	53764	; 0xd204
    2158:	0a686374 	beq	1a1af30 <FlashDictionaryEnde+0x19faf30>
    215c:	f000 fc8e 	bl	2a7c <quit>
    2160:	00002124 	andeq	r2, r0, r4, lsr #2
    2164:	65040030 	strvs	r0, [r4, #-48]	; 0x30
    2168:	0065736c 	rsbeq	r7, r5, ip, ror #6
    216c:	b500      	push	{lr}
    216e:	2e02      	cmp	r6, #2
    2170:	d1e6      	bne.n	2140 <strukturen_passen_nicht>
    2172:	cf40      	ldmia	r7!, {r6}
    2174:	f7ff ffb4 	bl	20e0 <branch_v>
    2178:	6839      	ldr	r1, [r7, #0]
    217a:	603e      	str	r6, [r7, #0]
    217c:	460e      	mov	r6, r1
    217e:	f7ff ffbe 	bl	20fe <v_nullbranch>
    2182:	3f04      	subs	r7, #4
    2184:	603e      	str	r6, [r7, #0]
    2186:	2605      	movs	r6, #5
    2188:	bd00      	pop	{pc}
    218a:	46c0      	nop			; (mov r8, r8)
    218c:	00002160 	andeq	r2, r0, r0, ror #2
    2190:	69020030 	stmdbvs	r2, {r4, r5}
    2194:	b5000066 	strlt	r0, [r0, #-102]	; 0x66

00002196 <struktur_if>:
    2196:	b500      	push	{lr}
    2198:	f7ff ff97 	bl	20ca <nullbranch_v>
    219c:	3f04      	subs	r7, #4
    219e:	603e      	str	r6, [r7, #0]
    21a0:	2602      	movs	r6, #2
    21a2:	bd00      	pop	{pc}
    21a4:	0000218c 	andeq	r2, r0, ip, lsl #3
    21a8:	72060030 	andvc	r0, r6, #48	; 0x30
    21ac:	61657065 	cmnvs	r5, r5, rrx
    21b0:	2e040074 	mcrcs	0, 0, r0, cr4, cr4, {3}
    21b4:	d1c4      	bne.n	2140 <strukturen_passen_nicht>
    21b6:	cf40      	ldmia	r7!, {r6}
    21b8:	6839      	ldr	r1, [r7, #0]
    21ba:	603e      	str	r6, [r7, #0]
    21bc:	460e      	mov	r6, r1
    21be:	b500      	push	{lr}
    21c0:	f7ff ff7a 	bl	20b8 <r_branch>
    21c4:	f7ff ff9b 	bl	20fe <v_nullbranch>
    21c8:	bd00      	pop	{pc}
    21ca:	46c0      	nop			; (mov r8, r8)
    21cc:	000021a4 	andeq	r2, r0, r4, lsr #3
    21d0:	77050030 	smladxvc	r5, r0, r0, r0
    21d4:	656c6968 	strbvs	r6, [ip, #-2408]!	; 0x968
    21d8:	2e01      	cmp	r6, #1
    21da:	d1b1      	bne.n	2140 <strukturen_passen_nicht>
    21dc:	cf40      	ldmia	r7!, {r6}
    21de:	b500      	push	{lr}
    21e0:	f7ff ffd9 	bl	2196 <struktur_if>
    21e4:	3602      	adds	r6, #2
    21e6:	bd00      	pop	{pc}
    21e8:	000021cc 	andeq	r2, r0, ip, asr #3
    21ec:	75050030 	strvc	r0, [r5, #-48]	; 0x30
    21f0:	6c69746e 	cfstrdvs	mvd7, [r9], #-440	; 0xfffffe48
    21f4:	2e01      	cmp	r6, #1
    21f6:	d1a3      	bne.n	2140 <strukturen_passen_nicht>
    21f8:	cf40      	ldmia	r7!, {r6}
    21fa:	e74f      	b.n	209c <r_nullbranch>
    21fc:	000021e8 	andeq	r2, r0, r8, ror #3
    2200:	61050030 	tstvs	r5, r0, lsr r0
    2204:	6e696167 	powvsez	f6, f1, f7
    2208:	2e01      	cmp	r6, #1
    220a:	d199      	bne.n	2140 <strukturen_passen_nicht>
    220c:	cf40      	ldmia	r7!, {r6}
    220e:	e753      	b.n	20b8 <r_branch>
    2210:	000021fc 	strdeq	r2, [r0], -ip
    2214:	62050030 	andvs	r0, r5, #48	; 0x30
    2218:	6e696765 	cdpvs	7, 6, cr6, cr9, cr5, {3}
    221c:	b500      	push	{lr}
    221e:	f7ff ff24 	bl	206a <branch_r>
    2222:	3f04      	subs	r7, #4
    2224:	603e      	str	r6, [r7, #0]
    2226:	2601      	movs	r6, #1
    2228:	bd00      	pop	{pc}
    222a:	ff010000 			; <UNDEFINED> instruction: 0xff010000
    222e:	ff00ffff 			; <UNDEFINED> instruction: 0xff00ffff
    2232:	f004ffff 			; <UNDEFINED> instruction: 0xf004ffff
    2236:	f8011fff 			; <UNDEFINED> instruction: 0xf8011fff
    223a:	f800ffff 			; <UNDEFINED> instruction: 0xf800ffff
    223e:	07ffffff 			; <UNDEFINED> instruction: 0x07ffffff
    2242:	e0000000 	and	r0, r0, r0
    2246:	2e000000 	cdpcs	0, 0, cr0, cr0, cr0, {0}
    224a:	cf400000 	svcgt	0x00400000
    224e:	d1000000 	mrsle	r0, (UNDEF: 0)
    2252:	d7000000 	strle	r0, [r0, -r0]
    2256:	d0000000 	andle	r0, r0, r0
    225a:	22100000 	andscs	r0, r0, #0
    225e:	00200000 	eoreq	r0, r0, r0
    2262:	3f046b01 	svccc	0x00046b01
    2266:	603e      	str	r6, [r7, #0]
    2268:	466e      	mov	r6, sp
    226a:	3e08      	subs	r6, #8
    226c:	6836      	ldr	r6, [r6, #0]
    226e:	4770      	bx	lr
    2270:	0000225c 	andeq	r2, r0, ip, asr r2
    2274:	6a010020 	bvs	422fc <FlashDictionaryEnde+0x222fc>
    2278:	3f04      	subs	r7, #4
    227a:	603e      	str	r6, [r7, #0]
    227c:	9e00      	ldr	r6, [sp, #0]
    227e:	4770      	bx	lr
    2280:	00002270 	andeq	r2, r0, r0, ror r2
    2284:	69010020 	stmdbvs	r1, {r5}
    2288:	3f04      	subs	r7, #4
    228a:	603e      	str	r6, [r7, #0]
    228c:	0026      	movs	r6, r4
    228e:	4770      	bx	lr
    2290:	00002280 	andeq	r2, r0, r0, lsl #5
    2294:	6c050030 	stcvs	0, cr0, [r5], {48}	; 0x30
    2298:	65766165 	ldrbvs	r6, [r6, #-357]!	; 0x165
    229c:	b500      	push	{lr}
    229e:	4850      	ldr	r0, [pc, #320]	; (23e0 <struktur_qdo+0xe>)
    22a0:	6801      	ldr	r1, [r0, #0]
    22a2:	003b      	movs	r3, r7
    22a4:	3f04      	subs	r7, #4
    22a6:	681a      	ldr	r2, [r3, #0]
    22a8:	3b04      	subs	r3, #4
    22aa:	601a      	str	r2, [r3, #0]
    22ac:	3304      	adds	r3, #4
    22ae:	3304      	adds	r3, #4
    22b0:	428b      	cmp	r3, r1
    22b2:	d1f8      	bne.n	22a6 <struktur_if+0x110>
    22b4:	b403      	push	{r0, r1}
    22b6:	f7ff ff13 	bl	20e0 <branch_v>
    22ba:	bc03      	pop	{r0, r1}
    22bc:	4633      	mov	r3, r6
    22be:	cf40      	ldmia	r7!, {r6}
    22c0:	3904      	subs	r1, #4
    22c2:	600b      	str	r3, [r1, #0]
    22c4:	6001      	str	r1, [r0, #0]
    22c6:	3904      	subs	r1, #4
    22c8:	680a      	ldr	r2, [r1, #0]
    22ca:	3201      	adds	r2, #1
    22cc:	600a      	str	r2, [r1, #0]
    22ce:	bd00      	pop	{pc}
    22d0:	00002290 	muleq	r0, r0, r2
    22d4:	75060020 	strvc	r0, [r6, #-32]
    22d8:	6f6f6c6e 	svcvs	0x006f6c6e
    22dc:	bc300070 	ldclt	0, cr0, [r0], #-448	; 0xfffffe40

000022de <unloop>:
    22de:	bc30      	pop	{r4, r5}
    22e0:	4770      	bx	lr
    22e2:	46c0      	nop			; (mov r8, r8)
    22e4:	000022d0 	ldrdeq	r2, [r0], -r0
    22e8:	2b050030 	blcs	1423b0 <FlashDictionaryEnde+0x1223b0>
    22ec:	706f6f6c 	rsbvc	r6, pc, ip, ror #30
    22f0:	2e03      	cmp	r6, #3
    22f2:	d000      	beq.n	22f6 <unloop+0x18>
    22f4:	e724      	b.n	2140 <strukturen_passen_nicht>
    22f6:	cf40      	ldmia	r7!, {r6}
    22f8:	b500      	push	{lr}
    22fa:	3f04      	subs	r7, #4
    22fc:	603e      	str	r6, [r7, #0]
    22fe:	4e39      	ldr	r6, [pc, #228]	; (23e4 <struktur_qdo+0x12>)
    2300:	f7ff faa5 	bl	184e <inlinekomma>
    2304:	f7ff febe 	bl	2084 <r_branch_jvc>
    2308:	e01a      	b.n	2340 <loop_intern>

0000230a <struktur_plusloop>:
    230a:	2080      	movs	r0, #128	; 0x80
    230c:	0600      	lsls	r0, r0, #24
    230e:	1900      	adds	r0, r0, r4
    2310:	19a4      	adds	r4, r4, r6
    2312:	1b40      	subs	r0, r0, r5
    2314:	1980      	adds	r0, r0, r6
    2316:	cf40      	ldmia	r7!, {r6}
    2318:	4770      	bx	lr
    231a:	46c0      	nop			; (mov r8, r8)
    231c:	000022e4 	andeq	r2, r0, r4, ror #5
    2320:	6c040030 	stcvs	0, cr0, [r4], {48}	; 0x30
    2324:	00706f6f 	rsbseq	r6, r0, pc, ror #30
    2328:	2e03      	cmp	r6, #3
    232a:	d000      	beq.n	232e <struktur_plusloop+0x24>
    232c:	e708      	b.n	2140 <strukturen_passen_nicht>
    232e:	cf40      	ldmia	r7!, {r6}
    2330:	b500      	push	{lr}
    2332:	3f04      	subs	r7, #4
    2334:	603e      	str	r6, [r7, #0]
    2336:	4e2c      	ldr	r6, [pc, #176]	; (23e8 <struktur_qdo+0x16>)
    2338:	f7ff fa89 	bl	184e <inlinekomma>
    233c:	f7ff fe96 	bl	206c <r_branch_jne>

00002340 <loop_intern>:
    2340:	f000 f8ee 	bl	2520 <spruenge_einpflegen>
    2344:	4826      	ldr	r0, [pc, #152]	; (23e0 <struktur_qdo+0xe>)
    2346:	4631      	mov	r1, r6
    2348:	cf40      	ldmia	r7!, {r6}
    234a:	6001      	str	r1, [r0, #0]
    234c:	3f04      	subs	r7, #4
    234e:	603e      	str	r6, [r7, #0]
    2350:	4e26      	ldr	r6, [pc, #152]	; (23ec <struktur_qdo+0x1a>)
    2352:	f7ff fa7c 	bl	184e <inlinekomma>
    2356:	bd00      	pop	{pc}

00002358 <struktur_loop>:
    2358:	3401      	adds	r4, #1
    235a:	42ac      	cmp	r4, r5
    235c:	4770      	bx	lr
    235e:	46c0      	nop			; (mov r8, r8)
    2360:	0000231c 	andeq	r2, r0, ip, lsl r3
    2364:	64020030 	strvs	r0, [r2], #-48	; 0x30
    2368:	b500006f 	strlt	r0, [r0, #-111]	; 0x6f
    236c:	3f04      	subs	r7, #4
    236e:	603e      	str	r6, [r7, #0]
    2370:	4e1f      	ldr	r6, [pc, #124]	; (23f0 <struktur_qdo+0x1e>)
    2372:	f7ff fa6c 	bl	184e <inlinekomma>
    2376:	481a      	ldr	r0, [pc, #104]	; (23e0 <struktur_qdo+0xe>)
    2378:	6801      	ldr	r1, [r0, #0]
    237a:	3f04      	subs	r7, #4
    237c:	603e      	str	r6, [r7, #0]
    237e:	000e      	movs	r6, r1
    2380:	3f04      	subs	r7, #4
    2382:	603e      	str	r6, [r7, #0]
    2384:	2600      	movs	r6, #0
    2386:	6007      	str	r7, [r0, #0]

00002388 <do_intern>:
    2388:	f7ff fe6f 	bl	206a <branch_r>
    238c:	3f04      	subs	r7, #4
    238e:	603e      	str	r6, [r7, #0]
    2390:	2603      	movs	r6, #3
    2392:	bd00      	pop	{pc}

00002394 <struktur_do>:
    2394:	b430      	push	{r4, r5}
    2396:	4634      	mov	r4, r6
    2398:	cf40      	ldmia	r7!, {r6}
    239a:	4635      	mov	r5, r6
    239c:	cf40      	ldmia	r7!, {r6}
    239e:	4770      	bx	lr
    23a0:	00002360 	andeq	r2, r0, r0, ror #6
    23a4:	3f030030 	svccc	0x00030030
    23a8:	b5006f64 	strlt	r6, [r0, #-3940]	; 0xf64
    23ac:	3f04      	subs	r7, #4
    23ae:	603e      	str	r6, [r7, #0]
    23b0:	4e10      	ldr	r6, [pc, #64]	; (23f4 <struktur_qdo+0x22>)
    23b2:	f7ff fa4c 	bl	184e <inlinekomma>
    23b6:	480a      	ldr	r0, [pc, #40]	; (23e0 <struktur_qdo+0xe>)
    23b8:	6801      	ldr	r1, [r0, #0]
    23ba:	3f04      	subs	r7, #4
    23bc:	603e      	str	r6, [r7, #0]
    23be:	000e      	movs	r6, r1
    23c0:	f7ff fe8e 	bl	20e0 <branch_v>
    23c4:	3601      	adds	r6, #1
    23c6:	3f04      	subs	r7, #4
    23c8:	603e      	str	r6, [r7, #0]
    23ca:	2601      	movs	r6, #1
    23cc:	4804      	ldr	r0, [pc, #16]	; (23e0 <struktur_qdo+0xe>)
    23ce:	6007      	str	r7, [r0, #0]
    23d0:	e7da      	b.n	2388 <do_intern>

000023d2 <struktur_qdo>:
    23d2:	b430      	push	{r4, r5}
    23d4:	4634      	mov	r4, r6
    23d6:	cf40      	ldmia	r7!, {r6}
    23d8:	4635      	mov	r5, r6
    23da:	cf40      	ldmia	r7!, {r6}
    23dc:	42ac      	cmp	r4, r5
    23de:	4770      	bx	lr
    23e0:	1ffff018 	svcne	0x00fff018
    23e4:	0000230a 	andeq	r2, r0, sl, lsl #6
    23e8:	00002358 	andeq	r2, r0, r8, asr r3
    23ec:	000022de 	ldrdeq	r2, [r0], -lr
    23f0:	00002394 	muleq	r0, r4, r3
    23f4:	000023d2 	ldrdeq	r2, [r0], -r2	; <UNPREDICTABLE>
    23f8:	000023a0 	andeq	r2, r0, r0, lsr #7
    23fc:	63040030 	movwvs	r0, #16432	; 0x4030
    2400:	00657361 	rsbeq	r7, r5, r1, ror #6

00002404 <case>:
    2404:	3f04      	subs	r7, #4
    2406:	603e      	str	r6, [r7, #0]
    2408:	2600      	movs	r6, #0
    240a:	3f04      	subs	r7, #4
    240c:	603e      	str	r6, [r7, #0]
    240e:	2608      	movs	r6, #8
    2410:	4770      	bx	lr
    2412:	46c0      	nop			; (mov r8, r8)
    2414:	000023f8 	strdeq	r2, [r0], -r8
    2418:	3f030030 	svccc	0x00030030
    241c:	484a666f 	stmdami	sl, {r0, r1, r2, r3, r5, r6, r9, sl, sp, lr}^
    2420:	e00a      	b.n	2438 <of_inneneinsprung>

00002422 <struktur_qof>:
    2422:	3e01      	subs	r6, #1
    2424:	41b6      	sbcs	r6, r6
    2426:	cf40      	ldmia	r7!, {r6}
    2428:	4770      	bx	lr
    242a:	46c0      	nop			; (mov r8, r8)
    242c:	00002414 	andeq	r2, r0, r4, lsl r4
    2430:	6f020078 	svcvs	0x00020078
    2434:	48450066 	stmdami	r5, {r1, r2, r5, r6}^

00002438 <of_inneneinsprung>:
    2438:	2e08      	cmp	r6, #8
    243a:	d000      	beq.n	243e <of_inneneinsprung+0x6>
    243c:	e680      	b.n	2140 <strukturen_passen_nicht>
    243e:	cf40      	ldmia	r7!, {r6}
    2440:	b500      	push	{lr}
    2442:	3f04      	subs	r7, #4
    2444:	603e      	str	r6, [r7, #0]
    2446:	0006      	movs	r6, r0
    2448:	f7ff fa01 	bl	184e <inlinekomma>

0000244c <of_opcodiereinsprung>:
    244c:	f7ff fe48 	bl	20e0 <branch_v>
    2450:	6839      	ldr	r1, [r7, #0]
    2452:	603e      	str	r6, [r7, #0]
    2454:	460e      	mov	r6, r1
    2456:	3601      	adds	r6, #1
    2458:	3f04      	subs	r7, #4
    245a:	603e      	str	r6, [r7, #0]
    245c:	2609      	movs	r6, #9
    245e:	3f04      	subs	r7, #4
    2460:	603e      	str	r6, [r7, #0]
    2462:	4e3b      	ldr	r6, [pc, #236]	; (2550 <spruenge_einpflegen+0x30>)
    2464:	f7ff fbfb 	bl	1c5e <hkomma>
    2468:	bd00      	pop	{pc}
    246a:	b500      	push	{lr}
    246c:	4630      	mov	r0, r6
    246e:	cf40      	ldmia	r7!, {r6}
    2470:	3b01      	subs	r3, #1
    2472:	b401      	push	{r0}
    2474:	f000 fae9 	bl	2a4a <konstantenschreiben>
    2478:	bc01      	pop	{r0}
    247a:	2e08      	cmp	r6, #8
    247c:	d000      	beq.n	2480 <of_opcodiereinsprung+0x34>
    247e:	e65f      	b.n	2140 <strukturen_passen_nicht>
    2480:	cf40      	ldmia	r7!, {r6}
    2482:	21ff      	movs	r1, #255	; 0xff
    2484:	4001      	ands	r1, r0
    2486:	4288      	cmp	r0, r1
    2488:	d107      	bne.n	249a <of_opcodiereinsprung+0x4e>
    248a:	4932      	ldr	r1, [pc, #200]	; (2554 <spruenge_einpflegen+0x34>)
    248c:	4308      	orrs	r0, r1
    248e:	3f04      	subs	r7, #4
    2490:	603e      	str	r6, [r7, #0]
    2492:	0006      	movs	r6, r0
    2494:	f7ff fbe3 	bl	1c5e <hkomma>
    2498:	e7d8      	b.n	244c <of_opcodiereinsprung>
    249a:	3f04      	subs	r7, #4
    249c:	603e      	str	r6, [r7, #0]
    249e:	0006      	movs	r6, r0
    24a0:	3f04      	subs	r7, #4
    24a2:	603e      	str	r6, [r7, #0]
    24a4:	2600      	movs	r6, #0
    24a6:	f7ff f815 	bl	14d4 <registerliteralkomma>
    24aa:	3f04      	subs	r7, #4
    24ac:	603e      	str	r6, [r7, #0]
    24ae:	4e2a      	ldr	r6, [pc, #168]	; (2558 <spruenge_einpflegen+0x38>)
    24b0:	f7ff fbd5 	bl	1c5e <hkomma>
    24b4:	e7ca      	b.n	244c <of_opcodiereinsprung>

000024b6 <struktur_of>:
    24b6:	4630      	mov	r0, r6
    24b8:	cf40      	ldmia	r7!, {r6}
    24ba:	42b0      	cmp	r0, r6
    24bc:	4770      	bx	lr
    24be:	46c0      	nop			; (mov r8, r8)
    24c0:	0000242c 	andeq	r2, r0, ip, lsr #8
    24c4:	65050030 	strvs	r0, [r5, #-48]	; 0x30
    24c8:	666f646e 	strbtvs	r6, [pc], -lr, ror #8

000024cc <strukturendof>:
    24cc:	2e09      	cmp	r6, #9
    24ce:	d000      	beq.n	24d2 <strukturendof+0x6>
    24d0:	e636      	b.n	2140 <strukturen_passen_nicht>
    24d2:	cf40      	ldmia	r7!, {r6}
    24d4:	b500      	push	{lr}
    24d6:	b440      	push	{r6}
    24d8:	cf40      	ldmia	r7!, {r6}
    24da:	f7ff fe01 	bl	20e0 <branch_v>
    24de:	6839      	ldr	r1, [r7, #0]
    24e0:	603e      	str	r6, [r7, #0]
    24e2:	460e      	mov	r6, r1
    24e4:	f7ff fe14 	bl	2110 <v_casebranch>
    24e8:	3f04      	subs	r7, #4
    24ea:	603e      	str	r6, [r7, #0]
    24ec:	bc40      	pop	{r6}
    24ee:	3f04      	subs	r7, #4
    24f0:	603e      	str	r6, [r7, #0]
    24f2:	2608      	movs	r6, #8
    24f4:	bd00      	pop	{pc}
    24f6:	46c0      	nop			; (mov r8, r8)
    24f8:	000024c0 	andeq	r2, r0, r0, asr #9
    24fc:	65070030 	strvs	r0, [r7, #-48]	; 0x30
    2500:	6163646e 	cmnvs	r3, lr, ror #8
    2504:	2e086573 	cfrshl64cs	mvdx8, mvdx3, r6

00002506 <strukturendcase>:
    2506:	2e08      	cmp	r6, #8
    2508:	d000      	beq.n	250c <strukturendcase+0x6>
    250a:	e619      	b.n	2140 <strukturen_passen_nicht>
    250c:	cf40      	ldmia	r7!, {r6}
    250e:	b500      	push	{lr}
    2510:	3f04      	subs	r7, #4
    2512:	603e      	str	r6, [r7, #0]
    2514:	4e0e      	ldr	r6, [pc, #56]	; (2550 <spruenge_einpflegen+0x30>)
    2516:	f7ff fba2 	bl	1c5e <hkomma>
    251a:	f000 f801 	bl	2520 <spruenge_einpflegen>
    251e:	bd00      	pop	{pc}

00002520 <spruenge_einpflegen>:
    2520:	b500      	push	{lr}
    2522:	4630      	mov	r0, r6
    2524:	cf40      	ldmia	r7!, {r6}
    2526:	2800      	cmp	r0, #0
    2528:	d00d      	beq.n	2546 <spruenge_einpflegen+0x26>
    252a:	b403      	push	{r0, r1}
    252c:	2101      	movs	r1, #1
    252e:	4031      	ands	r1, r6
    2530:	2900      	cmp	r1, #0
    2532:	d003      	beq.n	253c <spruenge_einpflegen+0x1c>
    2534:	3e01      	subs	r6, #1
    2536:	f7ff fde2 	bl	20fe <v_nullbranch>
    253a:	e001      	b.n	2540 <spruenge_einpflegen+0x20>
    253c:	f7ff fdd9 	bl	20f2 <v_branch>
    2540:	bc03      	pop	{r0, r1}
    2542:	3801      	subs	r0, #1
    2544:	e7ef      	b.n	2526 <spruenge_einpflegen+0x6>
    2546:	bd00      	pop	{pc}
    2548:	00002422 	andeq	r2, r0, r2, lsr #8
    254c:	000024b6 			; <UNDEFINED> instruction: 0x000024b6
    2550:	0000cf40 	andeq	ip, r0, r0, asr #30
    2554:	00002e00 	andeq	r2, r0, r0, lsl #28
    2558:	000042b0 			; <UNDEFINED> instruction: 0x000042b0
    255c:	000024f8 	strdeq	r2, [r0], -r8
    2560:	74050000 	strvc	r0, [r5], #-0
    2564:	6e656b6f 	vnmulvs.f64	d22, d5, d31

00002568 <token>:
    2568:	2020      	movs	r0, #32
    256a:	3f04      	subs	r7, #4
    256c:	603e      	str	r6, [r7, #0]
    256e:	0006      	movs	r6, r0
    2570:	e006      	b.n	2580 <parse>
    2572:	46c0      	nop			; (mov r8, r8)
    2574:	0000255c 	andeq	r2, r0, ip, asr r5
    2578:	70050000 	andvc	r0, r5, r0
    257c:	65737261 	ldrbvs	r7, [r3, #-609]!	; 0x261

00002580 <parse>:
    2580:	b530      	push	{r4, r5, lr}
    2582:	4810      	ldr	r0, [pc, #64]	; (25c4 <parse+0x44>)
    2584:	7801      	ldrb	r1, [r0, #0]
    2586:	4a10      	ldr	r2, [pc, #64]	; (25c8 <parse+0x48>)
    2588:	7812      	ldrb	r2, [r2, #0]
    258a:	4b10      	ldr	r3, [pc, #64]	; (25cc <parse+0x4c>)
    258c:	2400      	movs	r4, #0
    258e:	1880      	adds	r0, r0, r2
    2590:	2e20      	cmp	r6, #32
    2592:	d107      	bne.n	25a4 <parse+0x24>
    2594:	4291      	cmp	r1, r2
    2596:	d010      	beq.n	25ba <parse+0x3a>
    2598:	3001      	adds	r0, #1
    259a:	3201      	adds	r2, #1
    259c:	7805      	ldrb	r5, [r0, #0]
    259e:	42b5      	cmp	r5, r6
    25a0:	d0f8      	beq.n	2594 <parse+0x14>
    25a2:	e006      	b.n	25b2 <parse+0x32>
    25a4:	4291      	cmp	r1, r2
    25a6:	d008      	beq.n	25ba <parse+0x3a>
    25a8:	3001      	adds	r0, #1
    25aa:	3201      	adds	r2, #1
    25ac:	7805      	ldrb	r5, [r0, #0]
    25ae:	42b5      	cmp	r5, r6
    25b0:	d003      	beq.n	25ba <parse+0x3a>
    25b2:	3301      	adds	r3, #1
    25b4:	3401      	adds	r4, #1
    25b6:	701d      	strb	r5, [r3, #0]
    25b8:	e7f4      	b.n	25a4 <parse+0x24>
    25ba:	4803      	ldr	r0, [pc, #12]	; (25c8 <parse+0x48>)
    25bc:	7002      	strb	r2, [r0, #0]
    25be:	4e03      	ldr	r6, [pc, #12]	; (25cc <parse+0x4c>)
    25c0:	7034      	strb	r4, [r6, #0]
    25c2:	bd30      	pop	{r4, r5, pc}
    25c4:	1ffff070 	svcne	0x00fff070
    25c8:	1ffff000 	svcne	0x00fff000
    25cc:	1ffff338 	svcne	0x00fff338
    25d0:	00002574 	andeq	r2, r0, r4, ror r5
    25d4:	64050000 	strvs	r0, [r5], #-0
    25d8:	74696769 	strbtvc	r6, [r9], #-1897	; 0x769

000025dc <digit>:
    25dc:	4b71      	ldr	r3, [pc, #452]	; (27a4 <dot_inneneinsprung+0xe>)
    25de:	681b      	ldr	r3, [r3, #0]

000025e0 <digit_base_r3>:
    25e0:	3e30      	subs	r6, #48	; 0x30
    25e2:	d30b      	bcc.n	25fc <digit_base_r3+0x1c>
    25e4:	2e0a      	cmp	r6, #10
    25e6:	d30b      	bcc.n	2600 <digit_base_r3+0x20>
    25e8:	3e07      	subs	r6, #7
    25ea:	2e0a      	cmp	r6, #10
    25ec:	d306      	bcc.n	25fc <digit_base_r3+0x1c>
    25ee:	2e24      	cmp	r6, #36	; 0x24
    25f0:	d306      	bcc.n	2600 <digit_base_r3+0x20>
    25f2:	3e20      	subs	r6, #32
    25f4:	2e0a      	cmp	r6, #10
    25f6:	d301      	bcc.n	25fc <digit_base_r3+0x1c>
    25f8:	2e24      	cmp	r6, #36	; 0x24
    25fa:	d301      	bcc.n	2600 <digit_base_r3+0x20>
    25fc:	2600      	movs	r6, #0
    25fe:	4770      	bx	lr
    2600:	429e      	cmp	r6, r3
    2602:	d2fb      	bcs.n	25fc <digit_base_r3+0x1c>
    2604:	3f04      	subs	r7, #4
    2606:	603e      	str	r6, [r7, #0]
    2608:	2600      	movs	r6, #0
    260a:	43f6      	mvns	r6, r6
    260c:	4770      	bx	lr
    260e:	46c0      	nop			; (mov r8, r8)
    2610:	000025d0 	ldrdeq	r2, [r0], -r0
    2614:	6e060000 	cdpvs	0, 0, cr0, cr6, cr0, {0}
    2618:	65626d75 	strbvs	r6, [r2, #-3445]!	; 0xd75
    261c:	b51f0072 	ldrlt	r0, [pc, #-114]	; 25b2 <parse+0x32>

0000261e <number>:
    261e:	b51f      	push	{r0, r1, r2, r3, r4, lr}
    2620:	0030      	movs	r0, r6
    2622:	7801      	ldrb	r1, [r0, #0]
    2624:	2600      	movs	r6, #0
    2626:	2201      	movs	r2, #1
    2628:	4b5e      	ldr	r3, [pc, #376]	; (27a4 <dot_inneneinsprung+0xe>)
    262a:	681b      	ldr	r3, [r3, #0]
    262c:	2900      	cmp	r1, #0
    262e:	d020      	beq.n	2672 <number+0x54>
    2630:	3001      	adds	r0, #1
    2632:	3901      	subs	r1, #1
    2634:	7804      	ldrb	r4, [r0, #0]
    2636:	2c2d      	cmp	r4, #45	; 0x2d
    2638:	d102      	bne.n	2640 <number+0x22>
    263a:	2200      	movs	r2, #0
    263c:	43d2      	mvns	r2, r2
    263e:	e7f5      	b.n	262c <number+0xe>
    2640:	2c23      	cmp	r4, #35	; 0x23
    2642:	d101      	bne.n	2648 <number+0x2a>
    2644:	230a      	movs	r3, #10
    2646:	e7f1      	b.n	262c <number+0xe>
    2648:	2c24      	cmp	r4, #36	; 0x24
    264a:	d101      	bne.n	2650 <number+0x32>
    264c:	2310      	movs	r3, #16
    264e:	e7ed      	b.n	262c <number+0xe>
    2650:	2c25      	cmp	r4, #37	; 0x25
    2652:	d101      	bne.n	2658 <number+0x3a>
    2654:	2302      	movs	r3, #2
    2656:	e7e9      	b.n	262c <number+0xe>
    2658:	3f04      	subs	r7, #4
    265a:	603e      	str	r6, [r7, #0]
    265c:	0026      	movs	r6, r4
    265e:	f7ff ffbf 	bl	25e0 <digit_base_r3>
    2662:	2e00      	cmp	r6, #0
    2664:	cf40      	ldmia	r7!, {r6}
    2666:	d009      	beq.n	267c <number+0x5e>
    2668:	4634      	mov	r4, r6
    266a:	cf40      	ldmia	r7!, {r6}
    266c:	435e      	muls	r6, r3
    266e:	1936      	adds	r6, r6, r4
    2670:	e7dc      	b.n	262c <number+0xe>
    2672:	4356      	muls	r6, r2
    2674:	3f04      	subs	r7, #4
    2676:	603e      	str	r6, [r7, #0]
    2678:	2601      	movs	r6, #1
    267a:	bd1f      	pop	{r0, r1, r2, r3, r4, pc}
    267c:	2600      	movs	r6, #0
    267e:	bd1f      	pop	{r0, r1, r2, r3, r4, pc}
    2680:	00002610 	andeq	r2, r0, r0, lsl r6
    2684:	2e060000 	cdpcs	0, 0, cr0, cr6, cr0, {0}
    2688:	69676964 	stmdbvs	r7!, {r2, r5, r6, r8, fp, sp, lr}^
    268c:	2e0a0074 	mcrcs	0, 0, r0, cr10, cr4, {3}

0000268e <digitausgeben>:
    268e:	2e0a      	cmp	r6, #10
    2690:	d201      	bcs.n	2696 <digitausgeben+0x8>
    2692:	3630      	adds	r6, #48	; 0x30
    2694:	e004      	b.n	26a0 <digitausgeben+0x12>
    2696:	2e24      	cmp	r6, #36	; 0x24
    2698:	d201      	bcs.n	269e <digitausgeben+0x10>
    269a:	3637      	adds	r6, #55	; 0x37
    269c:	e000      	b.n	26a0 <digitausgeben+0x12>
    269e:	2623      	movs	r6, #35	; 0x23
    26a0:	4770      	bx	lr
    26a2:	46c0      	nop			; (mov r8, r8)
    26a4:	00002680 	andeq	r2, r0, r0, lsl #13
    26a8:	68040000 	stmdavs	r4, {}	; <UNPREDICTABLE>
    26ac:	00646c6f 	rsbeq	r6, r4, pc, ror #24

000026b0 <hold>:
    26b0:	4633      	mov	r3, r6
    26b2:	cf40      	ldmia	r7!, {r6}
    26b4:	483c      	ldr	r0, [pc, #240]	; (27a8 <dot_inneneinsprung+0x12>)
    26b6:	7801      	ldrb	r1, [r0, #0]
    26b8:	293f      	cmp	r1, #63	; 0x3f
    26ba:	d20d      	bcs.n	26d8 <hold+0x28>
    26bc:	3101      	adds	r1, #1
    26be:	7001      	strb	r1, [r0, #0]
    26c0:	1840      	adds	r0, r0, r1
    26c2:	2901      	cmp	r1, #1
    26c4:	d007      	beq.n	26d6 <hold+0x26>
    26c6:	3801      	subs	r0, #1
    26c8:	7802      	ldrb	r2, [r0, #0]
    26ca:	3001      	adds	r0, #1
    26cc:	7002      	strb	r2, [r0, #0]
    26ce:	3801      	subs	r0, #1
    26d0:	3901      	subs	r1, #1
    26d2:	2901      	cmp	r1, #1
    26d4:	d1f7      	bne.n	26c6 <hold+0x16>
    26d6:	7003      	strb	r3, [r0, #0]
    26d8:	4770      	bx	lr
    26da:	46c0      	nop			; (mov r8, r8)
    26dc:	000026a4 	andeq	r2, r0, r4, lsr #13
    26e0:	73040000 	movwvc	r0, #16384	; 0x4000
    26e4:	006e6769 	rsbeq	r6, lr, r9, ror #14

000026e8 <vorzeichen>:
    26e8:	2e00      	cmp	r6, #0
    26ea:	d401      	bmi.n	26f0 <vorzeichen+0x8>
    26ec:	cf40      	ldmia	r7!, {r6}
    26ee:	4770      	bx	lr
    26f0:	262d      	movs	r6, #45	; 0x2d
    26f2:	e7dd      	b.n	26b0 <hold>
    26f4:	000026dc 	ldrdeq	r2, [r0], -ip
    26f8:	23020000 	movwcs	r0, #8192	; 0x2000
    26fc:	4e2a003e 	mcrmi	0, 1, r0, cr10, cr14, {1}

000026fe <zifferstringende>:
    26fe:	4e2a      	ldr	r6, [pc, #168]	; (27a8 <dot_inneneinsprung+0x12>)
    2700:	4770      	bx	lr
    2702:	46c0      	nop			; (mov r8, r8)
    2704:	000026f4 	strdeq	r2, [r0], -r4
    2708:	23020000 	movwcs	r0, #8192	; 0x2000
    270c:	b5000053 	strlt	r0, [r0, #-83]	; 0x53

0000270e <alleziffern>:
    270e:	b500      	push	{lr}
    2710:	f000 f808 	bl	2724 <ziffer>
    2714:	2e00      	cmp	r6, #0
    2716:	d1fb      	bne.n	2710 <alleziffern+0x2>
    2718:	bd00      	pop	{pc}
    271a:	46c0      	nop			; (mov r8, r8)
    271c:	00002704 	andeq	r2, r0, r4, lsl #14
    2720:	23010000 	movwcs	r0, #4096	; 0x1000

00002724 <ziffer>:
    2724:	b500      	push	{lr}
    2726:	3f04      	subs	r7, #4
    2728:	603e      	str	r6, [r7, #0]
    272a:	4e1e      	ldr	r6, [pc, #120]	; (27a4 <dot_inneneinsprung+0xe>)
    272c:	6836      	ldr	r6, [r6, #0]
    272e:	f7fe fba7 	bl	e80 <u_divmod>
    2732:	6839      	ldr	r1, [r7, #0]
    2734:	603e      	str	r6, [r7, #0]
    2736:	460e      	mov	r6, r1
    2738:	f7ff ffa9 	bl	268e <digitausgeben>
    273c:	f7ff ffb8 	bl	26b0 <hold>
    2740:	bd00      	pop	{pc}
    2742:	46c0      	nop			; (mov r8, r8)
    2744:	0000271c 	andeq	r2, r0, ip, lsl r7
    2748:	3c020000 	stccc	0, cr0, [r2], {-0}
    274c:	48160023 	ldmdami	r6, {r0, r1, r5}

0000274e <zifferstringanfang>:
    274e:	4816      	ldr	r0, [pc, #88]	; (27a8 <dot_inneneinsprung+0x12>)
    2750:	2100      	movs	r1, #0
    2752:	7001      	strb	r1, [r0, #0]
    2754:	4770      	bx	lr
    2756:	46c0      	nop			; (mov r8, r8)
    2758:	00002744 	andeq	r2, r0, r4, asr #14
    275c:	75020000 	strvc	r0, [r2, #-0]
    2760:	b500002e 	strlt	r0, [r0, #-46]	; 0x2e

00002762 <udot>:
    2762:	b500      	push	{lr}
    2764:	f7ff fff3 	bl	274e <zifferstringanfang>
    2768:	f7ff ffd1 	bl	270e <alleziffern>
    276c:	f000 f813 	bl	2796 <dot_inneneinsprung>
    2770:	00002758 	andeq	r2, r0, r8, asr r7
    2774:	2e010000 	cdpcs	0, 0, cr0, cr1, cr0, {0}

00002778 <dot>:
    2778:	b500      	push	{lr}
    277a:	3f04      	subs	r7, #4
    277c:	603e      	str	r6, [r7, #0]
    277e:	2e00      	cmp	r6, #0
    2780:	d500      	bpl.n	2784 <dot+0xc>
    2782:	4276      	negs	r6, r6
    2784:	f7ff ffe3 	bl	274e <zifferstringanfang>
    2788:	f7ff ffc1 	bl	270e <alleziffern>
    278c:	6839      	ldr	r1, [r7, #0]
    278e:	603e      	str	r6, [r7, #0]
    2790:	460e      	mov	r6, r1
    2792:	f7ff ffa9 	bl	26e8 <vorzeichen>

00002796 <dot_inneneinsprung>:
    2796:	f7ff ffb2 	bl	26fe <zifferstringende>
    279a:	f7fe fd8d 	bl	12b8 <type>
    279e:	f7fe fd1d 	bl	11dc <space>
    27a2:	bd00      	pop	{pc}
    27a4:	1ffff010 	svcne	0x00fff010
    27a8:	1ffff030 	svcne	0x00fff030
    27ac:	00002770 	andeq	r2, r0, r0, ror r7
    27b0:	69090000 	stmdbvs	r9, {}	; <UNPREDICTABLE>
    27b4:	7265746e 	rsbvc	r7, r5, #1845493760	; 0x6e000000
    27b8:	74657270 	strbtvc	r7, [r5], #-624	; 0x270

000027bc <interpret>:
    27bc:	b530      	push	{r4, r5, lr}
    27be:	48bb      	ldr	r0, [pc, #748]	; (2aac <quit_innenschleife+0x14>)
    27c0:	4287      	cmp	r7, r0
    27c2:	d90c      	bls.n	27de <interpret+0x22>
    27c4:	f7fe fd51 	bl	126a <dotgaensefuesschen>
    27c8:	61745310 	cmnvs	r4, r0, lsl r3
    27cc:	75206b63 	strvc	r6, [r0, #-2915]!	; 0xb63
    27d0:	7265646e 	rsbvc	r6, r5, #1845493760	; 0x6e000000
    27d4:	776f6c66 	strbvc	r6, [pc, -r6, ror #24]!
    27d8:	f000000a 			; <UNDEFINED> instruction: 0xf000000a
    27dc:	f94f 48b4 	vst2.32	{d20-d21}, [pc :256], r4
    27e0:	4287      	cmp	r7, r0
    27e2:	d20b      	bcs.n	27fc <interpret+0x40>
    27e4:	f7fe fd41 	bl	126a <dotgaensefuesschen>
    27e8:	6174530f 	cmnvs	r4, pc, lsl #6
    27ec:	6f206b63 	svcvs	0x00206b63
    27f0:	66726576 			; <UNDEFINED> instruction: 0x66726576
    27f4:	0a776f6c 	beq	1dde5ac <FlashDictionaryEnde+0x1dbe5ac>
    27f8:	f000 f940 	bl	2a7c <quit>
    27fc:	f7ff feb4 	bl	2568 <token>
    2800:	4630      	mov	r0, r6
    2802:	cf40      	ldmia	r7!, {r6}
    2804:	7801      	ldrb	r1, [r0, #0]
    2806:	2900      	cmp	r1, #0
    2808:	d100      	bne.n	280c <interpret+0x50>
    280a:	bd30      	pop	{r4, r5, pc}
    280c:	4ca9      	ldr	r4, [pc, #676]	; (2ab4 <quit_innenschleife+0x1c>)
    280e:	6825      	ldr	r5, [r4, #0]
    2810:	2d00      	cmp	r5, #0
    2812:	d101      	bne.n	2818 <interpret+0x5c>
    2814:	003d      	movs	r5, r7
    2816:	6025      	str	r5, [r4, #0]
    2818:	3f04      	subs	r7, #4
    281a:	603e      	str	r6, [r7, #0]
    281c:	0006      	movs	r6, r0
    281e:	f7ff fb81 	bl	1f24 <find>
    2822:	4631      	mov	r1, r6
    2824:	cf40      	ldmia	r7!, {r6}
    2826:	4632      	mov	r2, r6
    2828:	cf40      	ldmia	r7!, {r6}
    282a:	2a00      	cmp	r2, #0
    282c:	d118      	bne.n	2860 <interpret+0xa4>
    282e:	3f04      	subs	r7, #4
    2830:	603e      	str	r6, [r7, #0]
    2832:	0006      	movs	r6, r0
    2834:	f7ff fef3 	bl	261e <number>
    2838:	4632      	mov	r2, r6
    283a:	cf40      	ldmia	r7!, {r6}
    283c:	2a00      	cmp	r2, #0
    283e:	d1be      	bne.n	27be <interpret+0x2>
    2840:	3f04      	subs	r7, #4
    2842:	603e      	str	r6, [r7, #0]
    2844:	0006      	movs	r6, r0
    2846:	f7fe fd37 	bl	12b8 <type>
    284a:	f7fe fd0e 	bl	126a <dotgaensefuesschen>
    284e:	6f6e200c 	svcvs	0x006e200c
    2852:	6f662074 	svcvs	0x00662074
    2856:	2e646e75 	mcrcs	14, 3, r6, cr4, cr5, {3}
    285a:	f000000a 			; <UNDEFINED> instruction: 0xf000000a
    285e:	f90e 4b95 			; <UNDEFINED> instruction: 0xf90e4b95
    2862:	681b      	ldr	r3, [r3, #0]
    2864:	2b00      	cmp	r3, #0
    2866:	d11f      	bne.n	28a8 <.ausfuehren+0xe>
    2868:	2500      	movs	r5, #0
    286a:	6025      	str	r5, [r4, #0]
    286c:	2330      	movs	r3, #48	; 0x30
    286e:	400b      	ands	r3, r1
    2870:	2b30      	cmp	r3, #48	; 0x30
    2872:	d112      	bne.n	289a <.ausfuehren>
    2874:	3f04      	subs	r7, #4
    2876:	603e      	str	r6, [r7, #0]
    2878:	0006      	movs	r6, r0
    287a:	f7fe fd1d 	bl	12b8 <type>
    287e:	f7fe fcf4 	bl	126a <dotgaensefuesschen>
    2882:	73692012 	cmnvc	r9, #18
    2886:	6d6f6320 	stclvs	3, cr6, [pc, #-128]!	; 280c <interpret+0x50>
    288a:	656c6970 	strbvs	r6, [ip, #-2416]!	; 0x970
    288e:	6c6e6f2d 	stclvs	15, cr6, [lr], #-180	; 0xffffff4c
    2892:	000a2e79 	andeq	r2, sl, r9, ror lr
    2896:	f000 f8f1 	bl	2a7c <quit>

0000289a <.ausfuehren>:
    289a:	3f04      	subs	r7, #4
    289c:	603e      	str	r6, [r7, #0]
    289e:	0016      	movs	r6, r2
    28a0:	f7ff f889 	bl	19b6 <execute>
    28a4:	f7ff ff8b 	bl	27be <interpret+0x2>
    28a8:	2080      	movs	r0, #128	; 0x80
    28aa:	4008      	ands	r0, r1
    28ac:	2880      	cmp	r0, #128	; 0x80
    28ae:	d010      	beq.n	28d2 <.interpret_faltoptimierung>
    28b0:	1beb      	subs	r3, r5, r7
    28b2:	089b      	lsrs	r3, r3, #2
    28b4:	2040      	movs	r0, #64	; 0x40
    28b6:	4008      	ands	r0, r1
    28b8:	2840      	cmp	r0, #64	; 0x40
    28ba:	d110      	bne.n	28de <.konstantenschleife>
    28bc:	2008      	movs	r0, #8
    28be:	4008      	ands	r0, r1
    28c0:	2808      	cmp	r0, #8
    28c2:	d102      	bne.n	28ca <.interpret_genugkonstanten>
    28c4:	2b00      	cmp	r3, #0
    28c6:	d000      	beq.n	28ca <.interpret_genugkonstanten>
    28c8:	e01f      	b.n	290a <.interpret_opcodierbar>

000028ca <.interpret_genugkonstanten>:
    28ca:	200f      	movs	r0, #15
    28cc:	4008      	ands	r0, r1
    28ce:	4283      	cmp	r3, r0
    28d0:	d305      	bcc.n	28de <.konstantenschleife>

000028d2 <.interpret_faltoptimierung>:
    28d2:	3f04      	subs	r7, #4
    28d4:	603e      	str	r6, [r7, #0]
    28d6:	0016      	movs	r6, r2
    28d8:	f7ff f86d 	bl	19b6 <execute>
    28dc:	e76f      	b.n	27be <interpret+0x2>

000028de <.konstantenschleife>:
    28de:	f000 f8b4 	bl	2a4a <konstantenschreiben>
    28e2:	3f04      	subs	r7, #4
    28e4:	603e      	str	r6, [r7, #0]
    28e6:	0016      	movs	r6, r2
    28e8:	2210      	movs	r2, #16
    28ea:	400a      	ands	r2, r1
    28ec:	2a10      	cmp	r2, #16
    28ee:	d102      	bne.n	28f6 <.konstantenschleife+0x18>
    28f0:	f7ff f861 	bl	19b6 <execute>
    28f4:	e763      	b.n	27be <interpret+0x2>
    28f6:	2220      	movs	r2, #32
    28f8:	400a      	ands	r2, r1
    28fa:	2a20      	cmp	r2, #32
    28fc:	d102      	bne.n	2904 <.konstantenschleife+0x26>
    28fe:	f7fe ffa6 	bl	184e <inlinekomma>
    2902:	e75c      	b.n	27be <interpret+0x2>
    2904:	f7fe fe6e 	bl	15e4 <callkomma>
    2908:	e759      	b.n	27be <interpret+0x2>

0000290a <.interpret_opcodierbar>:
    290a:	2007      	movs	r0, #7
    290c:	4001      	ands	r1, r0
    290e:	2901      	cmp	r1, #1
    2910:	d120      	bne.n	2954 <.interpret_opcodierbar_rechenlogik>
    2912:	2b01      	cmp	r3, #1
    2914:	d1dd      	bne.n	28d2 <.interpret_faltoptimierung>
    2916:	4633      	mov	r3, r6
    2918:	cf40      	ldmia	r7!, {r6}
    291a:	20ff      	movs	r0, #255	; 0xff
    291c:	4018      	ands	r0, r3
    291e:	4298      	cmp	r0, r3
    2920:	d106      	bne.n	2930 <.interpret_opcodierbar+0x26>
    2922:	0010      	movs	r0, r2
    2924:	f7fe ffa7 	bl	1876 <suchedefinitionsende>
    2928:	3002      	adds	r0, #2
    292a:	8800      	ldrh	r0, [r0, #0]
    292c:	4318      	orrs	r0, r3
    292e:	e00b      	b.n	2948 <.interpret_opcodierbar+0x3e>
    2930:	3f04      	subs	r7, #4
    2932:	603e      	str	r6, [r7, #0]
    2934:	001e      	movs	r6, r3
    2936:	3f04      	subs	r7, #4
    2938:	603e      	str	r6, [r7, #0]
    293a:	2600      	movs	r6, #0
    293c:	f7fe fdca 	bl	14d4 <registerliteralkomma>
    2940:	0010      	movs	r0, r2
    2942:	f7fe ff98 	bl	1876 <suchedefinitionsende>
    2946:	8800      	ldrh	r0, [r0, #0]
    2948:	3f04      	subs	r7, #4
    294a:	603e      	str	r6, [r7, #0]
    294c:	0006      	movs	r6, r0
    294e:	f7ff f986 	bl	1c5e <hkomma>
    2952:	e734      	b.n	27be <interpret+0x2>

00002954 <.interpret_opcodierbar_rechenlogik>:
    2954:	2902      	cmp	r1, #2
    2956:	d102      	bne.n	295e <.interpret_opcodierbar_gleichungleich>
    2958:	2b01      	cmp	r3, #1
    295a:	d1ba      	bne.n	28d2 <.interpret_faltoptimierung>
    295c:	e7eb      	b.n	2936 <.interpret_opcodierbar+0x2c>

0000295e <.interpret_opcodierbar_gleichungleich>:
    295e:	2903      	cmp	r1, #3
    2960:	d124      	bne.n	29ac <.interpret_opcodierbar_schieben>
    2962:	2b01      	cmp	r3, #1
    2964:	d1b5      	bne.n	28d2 <.interpret_faltoptimierung>
    2966:	4633      	mov	r3, r6
    2968:	cf40      	ldmia	r7!, {r6}
    296a:	20ff      	movs	r0, #255	; 0xff
    296c:	4018      	ands	r0, r3
    296e:	4298      	cmp	r0, r3
    2970:	d10d      	bne.n	298e <.interpret_opcodierbar_gleichungleich+0x30>
    2972:	4852      	ldr	r0, [pc, #328]	; (2abc <quit_innenschleife+0x24>)
    2974:	4318      	orrs	r0, r3
    2976:	3f04      	subs	r7, #4
    2978:	603e      	str	r6, [r7, #0]
    297a:	0006      	movs	r6, r0
    297c:	f7ff f96f 	bl	1c5e <hkomma>
    2980:	3204      	adds	r2, #4
    2982:	3f04      	subs	r7, #4
    2984:	603e      	str	r6, [r7, #0]
    2986:	0016      	movs	r6, r2
    2988:	f7fe ff61 	bl	184e <inlinekomma>
    298c:	e717      	b.n	27be <interpret+0x2>
    298e:	3f04      	subs	r7, #4
    2990:	603e      	str	r6, [r7, #0]
    2992:	001e      	movs	r6, r3
    2994:	3f04      	subs	r7, #4
    2996:	603e      	str	r6, [r7, #0]
    2998:	2600      	movs	r6, #0
    299a:	f7fe fd9b 	bl	14d4 <registerliteralkomma>
    299e:	3202      	adds	r2, #2
    29a0:	3f04      	subs	r7, #4
    29a2:	603e      	str	r6, [r7, #0]
    29a4:	0016      	movs	r6, r2
    29a6:	f7fe ff52 	bl	184e <inlinekomma>
    29aa:	e708      	b.n	27be <interpret+0x2>

000029ac <.interpret_opcodierbar_schieben>:
    29ac:	2904      	cmp	r1, #4
    29ae:	d11c      	bne.n	29ea <.interpret_opcodierbar_speicherschreiben>
    29b0:	2b01      	cmp	r3, #1
    29b2:	d18e      	bne.n	28d2 <.interpret_faltoptimierung>
    29b4:	4633      	mov	r3, r6
    29b6:	cf40      	ldmia	r7!, {r6}
    29b8:	2b00      	cmp	r3, #0
    29ba:	d100      	bne.n	29be <.interpret_opcodierbar_schieben+0x12>
    29bc:	e6ff      	b.n	27be <interpret+0x2>
    29be:	201f      	movs	r0, #31
    29c0:	4018      	ands	r0, r3
    29c2:	4298      	cmp	r0, r3
    29c4:	d005      	beq.n	29d2 <.interpret_opcodierbar_schieben+0x26>
    29c6:	3f04      	subs	r7, #4
    29c8:	603e      	str	r6, [r7, #0]
    29ca:	4e3d      	ldr	r6, [pc, #244]	; (2ac0 <quit_innenschleife+0x28>)
    29cc:	f7ff f947 	bl	1c5e <hkomma>
    29d0:	e6f5      	b.n	27be <interpret+0x2>
    29d2:	0010      	movs	r0, r2
    29d4:	f7fe ff4f 	bl	1876 <suchedefinitionsende>
    29d8:	8800      	ldrh	r0, [r0, #0]
    29da:	019b      	lsls	r3, r3, #6
    29dc:	4318      	orrs	r0, r3
    29de:	3f04      	subs	r7, #4
    29e0:	603e      	str	r6, [r7, #0]
    29e2:	0006      	movs	r6, r0
    29e4:	f7ff f93b 	bl	1c5e <hkomma>
    29e8:	e6e9      	b.n	27be <interpret+0x2>

000029ea <.interpret_opcodierbar_speicherschreiben>:
    29ea:	2905      	cmp	r1, #5
    29ec:	d127      	bne.n	2a3e <.interpret_opcodierbar_andere>
    29ee:	0010      	movs	r0, r2
    29f0:	f7fe ff41 	bl	1876 <suchedefinitionsende>
    29f4:	2b01      	cmp	r3, #1
    29f6:	d110      	bne.n	2a1a <.interpret_opcodierbar_speicherschreiben+0x30>
    29f8:	3f04      	subs	r7, #4
    29fa:	603e      	str	r6, [r7, #0]
    29fc:	2600      	movs	r6, #0
    29fe:	f7fe fd69 	bl	14d4 <registerliteralkomma>
    2a02:	8800      	ldrh	r0, [r0, #0]
    2a04:	3f04      	subs	r7, #4
    2a06:	603e      	str	r6, [r7, #0]
    2a08:	0006      	movs	r6, r0
    2a0a:	f7ff f928 	bl	1c5e <hkomma>
    2a0e:	3f04      	subs	r7, #4
    2a10:	603e      	str	r6, [r7, #0]
    2a12:	4e2c      	ldr	r6, [pc, #176]	; (2ac4 <quit_innenschleife+0x2c>)
    2a14:	f7ff f923 	bl	1c5e <hkomma>
    2a18:	e6d1      	b.n	27be <interpret+0x2>
    2a1a:	3f04      	subs	r7, #4
    2a1c:	603e      	str	r6, [r7, #0]
    2a1e:	2600      	movs	r6, #0
    2a20:	f7fe fd58 	bl	14d4 <registerliteralkomma>
    2a24:	3f04      	subs	r7, #4
    2a26:	603e      	str	r6, [r7, #0]
    2a28:	2601      	movs	r6, #1
    2a2a:	f7fe fd53 	bl	14d4 <registerliteralkomma>
    2a2e:	3002      	adds	r0, #2
    2a30:	8800      	ldrh	r0, [r0, #0]
    2a32:	3f04      	subs	r7, #4
    2a34:	603e      	str	r6, [r7, #0]
    2a36:	0006      	movs	r6, r0
    2a38:	f7ff f911 	bl	1c5e <hkomma>
    2a3c:	e6bf      	b.n	27be <interpret+0x2>

00002a3e <.interpret_opcodierbar_andere>:
    2a3e:	0010      	movs	r0, r2
    2a40:	f7fe ff19 	bl	1876 <suchedefinitionsende>
    2a44:	3001      	adds	r0, #1
    2a46:	4780      	blx	r0
    2a48:	e6b9      	b.n	27be <interpret+0x2>

00002a4a <konstantenschreiben>:
    2a4a:	b500      	push	{lr}
    2a4c:	2b00      	cmp	r3, #0
    2a4e:	d00b      	beq.n	2a68 <.konstanteninnenschleife+0x18>

00002a50 <.konstanteninnenschleife>:
    2a50:	3b01      	subs	r3, #1
    2a52:	3f04      	subs	r7, #4
    2a54:	603e      	str	r6, [r7, #0]
    2a56:	009e      	lsls	r6, r3, #2
    2a58:	59be      	ldr	r6, [r7, r6]
    2a5a:	f7fe fdfd 	bl	1658 <literalkomma>
    2a5e:	2b00      	cmp	r3, #0
    2a60:	d1f6      	bne.n	2a50 <.konstanteninnenschleife>
    2a62:	3d04      	subs	r5, #4
    2a64:	002f      	movs	r7, r5
    2a66:	cf40      	ldmia	r7!, {r6}
    2a68:	2500      	movs	r5, #0
    2a6a:	6025      	str	r5, [r4, #0]
    2a6c:	bd00      	pop	{pc}
    2a6e:	46c0      	nop			; (mov r8, r8)
    2a70:	000027ac 	andeq	r2, r0, ip, lsr #15
    2a74:	71040000 	mrsvc	r0, (UNDEF: 4)
    2a78:	00746975 	rsbseq	r6, r4, r5, ror r9

00002a7c <quit>:
    2a7c:	4812      	ldr	r0, [pc, #72]	; (2ac8 <quit_innenschleife+0x30>)
    2a7e:	4685      	mov	sp, r0
    2a80:	4f0a      	ldr	r7, [pc, #40]	; (2aac <quit_innenschleife+0x14>)
    2a82:	f7fe f8e7 	bl	c54 <sammeltabelleleeren>
    2a86:	4811      	ldr	r0, [pc, #68]	; (2acc <quit_innenschleife+0x34>)
    2a88:	210a      	movs	r1, #10
    2a8a:	6001      	str	r1, [r0, #0]
    2a8c:	480a      	ldr	r0, [pc, #40]	; (2ab8 <quit_innenschleife+0x20>)
    2a8e:	2100      	movs	r1, #0
    2a90:	6001      	str	r1, [r0, #0]
    2a92:	4808      	ldr	r0, [pc, #32]	; (2ab4 <quit_innenschleife+0x1c>)
    2a94:	2100      	movs	r1, #0
    2a96:	6001      	str	r1, [r0, #0]

00002a98 <quit_innenschleife>:
    2a98:	f7fe fb28 	bl	10ec <query>
    2a9c:	f7ff fe8e 	bl	27bc <interpret>
    2aa0:	f7fe fbe3 	bl	126a <dotgaensefuesschen>
    2aa4:	6b6f2005 	blvs	1bcaac0 <FlashDictionaryEnde+0x1baaac0>
    2aa8:	e7f50a2e 	ldrb	r0, [r5, lr, lsr #20]!
    2aac:	1ffff238 	svcne	0x00fff238
    2ab0:	1ffff138 	svcne	0x00fff138
    2ab4:	1ffff014 	svcne	0x00fff014
    2ab8:	1ffff00c 	svcne	0x00fff00c
    2abc:	00003e00 	andeq	r3, r0, r0, lsl #28
    2ac0:	00002600 	andeq	r2, r0, r0, lsl #12
    2ac4:	0000cf40 	andeq	ip, r0, r0, asr #30
    2ac8:	1ffff338 	svcne	0x00fff338
    2acc:	1ffff010 	svcne	0x00fff010
    2ad0:	00002a70 	andeq	r2, r0, r0, ror sl
    2ad4:	65040020 	strvs	r0, [r4, #-32]
    2ad8:	00746e69 	rsbseq	r6, r4, r9, ror #28
    2adc:	b662      	cpsie	i
    2ade:	4770      	bx	lr
    2ae0:	00002ad0 	ldrdeq	r2, [r0], -r0
    2ae4:	64040020 	strvs	r0, [r4], #-32
    2ae8:	00746e69 	rsbseq	r6, r4, r9, ror #28
    2aec:	b672      	cpsid	i
    2aee:	4770      	bx	lr
    2af0:	00002ae0 	andeq	r2, r0, r0, ror #21
    2af4:	6e030000 	cdpvs	0, 0, cr0, cr3, cr0, {0}
    2af8:	4770706f 	ldrbmi	r7, [r0, -pc, rrx]!

00002afa <nop_vektor>:
    2afa:	4770      	bx	lr
    2afc:	00002af0 	strdeq	r2, [r0], -r0
    2b00:	690b0081 	stmdbvs	fp, {r0, r7}
    2b04:	732d7172 	teqvc	sp, #-2147483620	; 0x8000001c
    2b08:	69747379 	ldmdbvs	r4!, {r0, r3, r4, r5, r6, r8, r9, ip, sp, lr}^
    2b0c:	3f046b63 	svccc	0x00046b63
    2b10:	603e      	str	r6, [r7, #0]
    2b12:	4e75      	ldr	r6, [pc, #468]	; (2ce8 <init_name+0x8>)
    2b14:	4770      	bx	lr
    2b16:	00002afa 	strdeq	r2, [r0], -sl

00002b1a <irq_vektor_systick>:
    2b1a:	4873      	ldr	r0, [pc, #460]	; (2ce8 <init_name+0x8>)
    2b1c:	6800      	ldr	r0, [r0, #0]
    2b1e:	3001      	adds	r0, #1
    2b20:	4687      	mov	pc, r0
    2b22:	46c0      	nop			; (mov r8, r8)
    2b24:	00002afc 	strdeq	r2, [r0], -ip
    2b28:	69070081 	stmdbvs	r7, {r0, r7}
    2b2c:	612d7172 	teqvs	sp, r2, ror r1
    2b30:	3f046364 	svccc	0x00046364
    2b34:	603e      	str	r6, [r7, #0]
    2b36:	4e6d      	ldr	r6, [pc, #436]	; (2cec <init_name+0xc>)
    2b38:	4770      	bx	lr
    2b3a:	00002afa 	strdeq	r2, [r0], -sl

00002b3e <irq_vektor_adc>:
    2b3e:	486b      	ldr	r0, [pc, #428]	; (2cec <init_name+0xc>)
    2b40:	6800      	ldr	r0, [r0, #0]
    2b42:	3001      	adds	r0, #1
    2b44:	4687      	mov	pc, r0
    2b46:	46c0      	nop			; (mov r8, r8)
    2b48:	00002b24 	andeq	r2, r0, r4, lsr #22
    2b4c:	69070081 	stmdbvs	r7, {r0, r7}
    2b50:	632d7172 	teqvs	sp, #-2147483620	; 0x8000001c
    2b54:	3f04706d 	svccc	0x0004706d
    2b58:	603e      	str	r6, [r7, #0]
    2b5a:	4e65      	ldr	r6, [pc, #404]	; (2cf0 <init_name+0x10>)
    2b5c:	4770      	bx	lr
    2b5e:	00002afa 	strdeq	r2, [r0], -sl

00002b62 <irq_vektor_cmp>:
    2b62:	4863      	ldr	r0, [pc, #396]	; (2cf0 <init_name+0x10>)
    2b64:	6800      	ldr	r0, [r0, #0]
    2b66:	3001      	adds	r0, #1
    2b68:	4687      	mov	pc, r0
    2b6a:	46c0      	nop			; (mov r8, r8)
    2b6c:	00002b48 	andeq	r2, r0, r8, asr #22
    2b70:	69070081 	stmdbvs	r7, {r0, r7}
    2b74:	642d7172 	strtvs	r7, [sp], #-370	; 0x172
    2b78:	3f046361 	svccc	0x00046361
    2b7c:	603e      	str	r6, [r7, #0]
    2b7e:	4e5d      	ldr	r6, [pc, #372]	; (2cf4 <init_name+0x14>)
    2b80:	4770      	bx	lr
    2b82:	00002afa 	strdeq	r2, [r0], -sl

00002b86 <irq_vektor_dac>:
    2b86:	485b      	ldr	r0, [pc, #364]	; (2cf4 <init_name+0x14>)
    2b88:	6800      	ldr	r0, [r0, #0]
    2b8a:	3001      	adds	r0, #1
    2b8c:	4687      	mov	pc, r0
    2b8e:	46c0      	nop			; (mov r8, r8)
    2b90:	00002b6c 	andeq	r2, r0, ip, ror #22
    2b94:	69090081 	stmdbvs	r9, {r0, r7}
    2b98:	702d7172 	eorvc	r7, sp, r2, ror r1
    2b9c:	6174726f 	cmnvs	r4, pc, ror #4
    2ba0:	3f04      	subs	r7, #4
    2ba2:	603e      	str	r6, [r7, #0]
    2ba4:	4e54      	ldr	r6, [pc, #336]	; (2cf8 <init_name+0x18>)
    2ba6:	4770      	bx	lr
    2ba8:	00002afa 	strdeq	r2, [r0], -sl

00002bac <irq_vektor_porta>:
    2bac:	4852      	ldr	r0, [pc, #328]	; (2cf8 <init_name+0x18>)
    2bae:	6800      	ldr	r0, [r0, #0]
    2bb0:	3001      	adds	r0, #1
    2bb2:	4687      	mov	pc, r0

00002bb4 <CoreDictionaryAnfang>:
    2bb4:	00002b90 	muleq	r0, r0, fp
    2bb8:	69090081 	stmdbvs	r9, {r0, r7}
    2bbc:	702d7172 	eorvc	r7, sp, r2, ror r1
    2bc0:	6474726f 	ldrbtvs	r7, [r4], #-623	; 0x26f
    2bc4:	3f04      	subs	r7, #4
    2bc6:	603e      	str	r6, [r7, #0]
    2bc8:	4e4c      	ldr	r6, [pc, #304]	; (2cfc <init_name+0x1c>)
    2bca:	4770      	bx	lr
    2bcc:	00002afa 	strdeq	r2, [r0], -sl

00002bd0 <irq_vektor_portd>:
    2bd0:	484a      	ldr	r0, [pc, #296]	; (2cfc <init_name+0x1c>)
    2bd2:	6800      	ldr	r0, [r0, #0]
    2bd4:	3001      	adds	r0, #1
    2bd6:	4687      	mov	pc, r0

00002bd8 <Reset>:
    2bd8:	2100      	movs	r1, #0
    2bda:	4849      	ldr	r0, [pc, #292]	; (2d00 <init_name+0x20>)
    2bdc:	6001      	str	r1, [r0, #0]
    2bde:	f7fe f9ff 	bl	fe0 <uart_init>

00002be2 <Restart>:
    2be2:	4848      	ldr	r0, [pc, #288]	; (2d04 <init_name+0x24>)
    2be4:	4685      	mov	sp, r0
    2be6:	4f48      	ldr	r7, [pc, #288]	; (2d08 <init_name+0x28>)
    2be8:	262a      	movs	r6, #42	; 0x2a
    2bea:	4848      	ldr	r0, [pc, #288]	; (2d0c <init_name+0x2c>)
    2bec:	4948      	ldr	r1, [pc, #288]	; (2d10 <init_name+0x30>)
    2bee:	6001      	str	r1, [r0, #0]
    2bf0:	4848      	ldr	r0, [pc, #288]	; (2d14 <init_name+0x34>)
    2bf2:	4949      	ldr	r1, [pc, #292]	; (2d18 <init_name+0x38>)
    2bf4:	6001      	str	r1, [r0, #0]
    2bf6:	4848      	ldr	r0, [pc, #288]	; (2d18 <init_name+0x38>)
    2bf8:	4d48      	ldr	r5, [pc, #288]	; (2d1c <init_name+0x3c>)

00002bfa <SucheFlashPointer_Hangelschleife>:
    2bfa:	0004      	movs	r4, r0
    2bfc:	6802      	ldr	r2, [r0, #0]
    2bfe:	3004      	adds	r0, #4
    2c00:	8801      	ldrh	r1, [r0, #0]
    2c02:	3002      	adds	r0, #2
    2c04:	4b46      	ldr	r3, [pc, #280]	; (2d20 <init_name+0x40>)
    2c06:	4299      	cmp	r1, r3
    2c08:	d015      	beq.n	2c36 <Sucheflashpointer_Speicherbelegung_fertig>
    2c0a:	2380      	movs	r3, #128	; 0x80
    2c0c:	400b      	ands	r3, r1
    2c0e:	d012      	beq.n	2c36 <Sucheflashpointer_Speicherbelegung_fertig>
    2c10:	230f      	movs	r3, #15
    2c12:	4019      	ands	r1, r3
    2c14:	0089      	lsls	r1, r1, #2
    2c16:	1a6d      	subs	r5, r5, r1
    2c18:	f7ff f974 	bl	1f04 <skipstring>
    2c1c:	f7fe fe2b 	bl	1876 <suchedefinitionsende>
    2c20:	3f04      	subs	r7, #4
    2c22:	603e      	str	r6, [r7, #0]
    2c24:	0006      	movs	r6, r0
    2c26:	3f04      	subs	r7, #4
    2c28:	603e      	str	r6, [r7, #0]
    2c2a:	002e      	movs	r6, r5
    2c2c:	3f04      	subs	r7, #4
    2c2e:	603e      	str	r6, [r7, #0]
    2c30:	000e      	movs	r6, r1
    2c32:	f7fd fdd9 	bl	7e8 <move>

00002c36 <Sucheflashpointer_Speicherbelegung_fertig>:
    2c36:	483b      	ldr	r0, [pc, #236]	; (2d24 <init_name+0x44>)
    2c38:	4282      	cmp	r2, r0
    2c3a:	d005      	beq.n	2c48 <SucheFlashPointer_Fadenende_gefunden>
    2c3c:	0010      	movs	r0, r2
    2c3e:	3206      	adds	r2, #6
    2c40:	7812      	ldrb	r2, [r2, #0]
    2c42:	2aff      	cmp	r2, #255	; 0xff
    2c44:	d000      	beq.n	2c48 <SucheFlashPointer_Fadenende_gefunden>
    2c46:	e7d8      	b.n	2bfa <SucheFlashPointer_Hangelschleife>

00002c48 <SucheFlashPointer_Fadenende_gefunden>:
    2c48:	4837      	ldr	r0, [pc, #220]	; (2d28 <init_name+0x48>)
    2c4a:	6004      	str	r4, [r0, #0]
    2c4c:	4837      	ldr	r0, [pc, #220]	; (2d2c <init_name+0x4c>)
    2c4e:	6005      	str	r5, [r0, #0]
    2c50:	4837      	ldr	r0, [pc, #220]	; (2d30 <init_name+0x50>)
    2c52:	4938      	ldr	r1, [pc, #224]	; (2d34 <init_name+0x54>)
    2c54:	4a32      	ldr	r2, [pc, #200]	; (2d20 <init_name+0x40>)
    2c56:	4288      	cmp	r0, r1
    2c58:	d004      	beq.n	2c64 <SucheFlashPointer_Fadenende_gefunden+0x1c>
    2c5a:	3802      	subs	r0, #2
    2c5c:	8803      	ldrh	r3, [r0, #0]
    2c5e:	4293      	cmp	r3, r2
    2c60:	d0f9      	beq.n	2c56 <SucheFlashPointer_Fadenende_gefunden+0xe>
    2c62:	3002      	adds	r0, #2
    2c64:	4934      	ldr	r1, [pc, #208]	; (2d38 <init_name+0x58>)
    2c66:	6008      	str	r0, [r1, #0]
    2c68:	f7fd fff4 	bl	c54 <sammeltabelleleeren>
    2c6c:	f7fe fafd 	bl	126a <dotgaensefuesschen>
    2c70:	63654d41 	cmnvs	r5, #4160	; 0x1040
    2c74:	70736972 	rsbsvc	r6, r3, r2, ror r9
    2c78:	6574532d 	ldrbvs	r5, [r4, #-813]!	; 0x32d
    2c7c:	72616c6c 	rsbvc	r6, r1, #27648	; 0x6c00
    2c80:	30207369 	eorcc	r7, r0, r9, ror #6
    2c84:	7720382e 	strvc	r3, [r0, -lr, lsr #16]!
    2c88:	20687469 	rsbcs	r7, r8, r9, ror #8
    2c8c:	6320304d 	teqvs	r0, #77	; 0x4d
    2c90:	2065726f 	rsbcs	r7, r5, pc, ror #4
    2c94:	20726f66 	rsbscs	r6, r2, r6, ror #30
    2c98:	35324c4b 	ldrcc	r4, [r2, #-3147]!	; 0xc4b
    2c9c:	3832315a 	ldmdacc	r2!, {r1, r3, r4, r6, r8, ip, sp}
    2ca0:	20796220 	rsbscs	r6, r9, r0, lsr #4
    2ca4:	7474614d 	ldrbtvc	r6, [r4], #-333	; 0x14d
    2ca8:	73616968 	cmnvc	r1, #1703936	; 0x1a0000
    2cac:	636f4b20 	cmnvs	pc, #32768	; 0x8000
    2cb0:	48220a68 	stmdami	r2!, {r3, r5, r6, r9, fp}
    2cb4:	210a      	movs	r1, #10
    2cb6:	6001      	str	r1, [r0, #0]
    2cb8:	4821      	ldr	r0, [pc, #132]	; (2d40 <init_name+0x60>)
    2cba:	2100      	movs	r1, #0
    2cbc:	6001      	str	r1, [r0, #0]
    2cbe:	4821      	ldr	r0, [pc, #132]	; (2d44 <init_name+0x64>)
    2cc0:	2100      	movs	r1, #0
    2cc2:	6001      	str	r1, [r0, #0]
    2cc4:	4820      	ldr	r0, [pc, #128]	; (2d48 <init_name+0x68>)
    2cc6:	3f04      	subs	r7, #4
    2cc8:	603e      	str	r6, [r7, #0]
    2cca:	0006      	movs	r6, r0
    2ccc:	f7ff f92a 	bl	1f24 <find>
    2cd0:	cf40      	ldmia	r7!, {r6}
    2cd2:	2e00      	cmp	r6, #0
    2cd4:	d002      	beq.n	2cdc <SucheFlashPointer_Fadenende_gefunden+0x94>
    2cd6:	f7fe fe6e 	bl	19b6 <execute>
    2cda:	e6dd      	b.n	2a98 <quit_innenschleife>
    2cdc:	cf40      	ldmia	r7!, {r6}
    2cde:	e6cd      	b.n	2a7c <quit>

00002ce0 <init_name>:
    2ce0:	696e6904 	stmdbvs	lr!, {r2, r8, fp, sp, lr}^
    2ce4:	00000074 	andeq	r0, r0, r4, ror r0
    2ce8:	20002ffc 	strdcs	r2, [r0], -ip
    2cec:	20002ff8 	strdcs	r2, [r0], -r8
    2cf0:	20002ff4 	strdcs	r2, [r0], -r4
    2cf4:	20002ff0 	strdcs	r2, [r0], -r0
    2cf8:	20002fec 	andcs	r2, r0, ip, ror #31
    2cfc:	20002fe8 	andcs	r2, r0, r8, ror #31
    2d00:	40048100 	andmi	r8, r4, r0, lsl #2
    2d04:	1ffff338 	svcne	0x00fff338
    2d08:	1ffff238 	svcne	0x00fff238
    2d0c:	1ffff004 	svcne	0x00fff004
    2d10:	1ffff4c0 	svcne	0x00fff4c0
    2d14:	1ffff008 	svcne	0x00fff008
    2d18:	00002bb4 			; <UNDEFINED> instruction: 0x00002bb4
    2d1c:	20003000 	andcs	r3, r0, r0
    2d20:	0000ffff 	strdeq	pc, [r0], -pc	; <UNPREDICTABLE>
    2d24:	ffffffff 			; <UNDEFINED> instruction: 0xffffffff
    2d28:	1ffff024 	svcne	0x00fff024
    2d2c:	1ffff02c 	svcne	0x00fff02c
    2d30:	00020000 	andeq	r0, r2, r0
    2d34:	00004000 	andeq	r4, r0, r0
    2d38:	1ffff020 	svcne	0x00fff020
    2d3c:	1ffff010 	svcne	0x00fff010
    2d40:	1ffff00c 	svcne	0x00fff00c
    2d44:	1ffff014 	svcne	0x00fff014
    2d48:	00002ce0 	andeq	r2, r0, r0, ror #25

Disassembly of section .ARM.attributes:

00000000 <.ARM.attributes>:
   0:	00002041 	andeq	r2, r0, r1, asr #32
   4:	61656100 	cmnvs	r5, r0, lsl #2
   8:	01006962 	tsteq	r0, r2, ror #18
   c:	00000016 	andeq	r0, r0, r6, lsl r0
  10:	726f4305 	rsbvc	r4, pc, #335544320	; 0x14000000
  14:	2d786574 	cfldr64cs	mvdx6, [r8, #-464]!	; 0xfffffe30
  18:	0600304d 	streq	r3, [r0], -sp, asr #32
  1c:	094d070c 	stmdbeq	sp, {r2, r3, r8, r9, sl}^
  20:	Address 0x00000020 is out of bounds.

