
mecrisp-stellaris.gcc.thumb2.elf:     file format elf32-littlearm


Disassembly of section .text:

00000000 <nullhandler-0x26c>:
       0:	20000400 	andcs	r0, r0, r0, lsl #8
       4:	000028a5 	andeq	r2, r0, r5, lsr #17
       8:	0000026d 	andeq	r0, r0, sp, ror #4
       c:	0000026d 	andeq	r0, r0, sp, ror #4
      10:	0000026d 	andeq	r0, r0, sp, ror #4
      14:	0000026d 	andeq	r0, r0, sp, ror #4
      18:	0000026d 	andeq	r0, r0, sp, ror #4
	...
      2c:	0000026d 	andeq	r0, r0, sp, ror #4
      30:	0000026d 	andeq	r0, r0, sp, ror #4
      34:	00000000 	andeq	r0, r0, r0
      38:	0000026d 	andeq	r0, r0, sp, ror #4
      3c:	0000288f 	andeq	r2, r0, pc, lsl #17
      40:	0000026d 	andeq	r0, r0, sp, ror #4
      44:	0000026d 	andeq	r0, r0, sp, ror #4
      48:	0000026d 	andeq	r0, r0, sp, ror #4
      4c:	0000026d 	andeq	r0, r0, sp, ror #4
      50:	0000026d 	andeq	r0, r0, sp, ror #4
      54:	0000026d 	andeq	r0, r0, sp, ror #4
      58:	0000026d 	andeq	r0, r0, sp, ror #4
      5c:	0000026d 	andeq	r0, r0, sp, ror #4
      60:	0000026d 	andeq	r0, r0, sp, ror #4
      64:	0000026d 	andeq	r0, r0, sp, ror #4
      68:	0000026d 	andeq	r0, r0, sp, ror #4
      6c:	0000026d 	andeq	r0, r0, sp, ror #4
      70:	0000026d 	andeq	r0, r0, sp, ror #4
      74:	0000026d 	andeq	r0, r0, sp, ror #4
      78:	0000026d 	andeq	r0, r0, sp, ror #4
      7c:	0000026d 	andeq	r0, r0, sp, ror #4
      80:	0000026d 	andeq	r0, r0, sp, ror #4
      84:	0000026d 	andeq	r0, r0, sp, ror #4
      88:	0000026d 	andeq	r0, r0, sp, ror #4
      8c:	0000026d 	andeq	r0, r0, sp, ror #4
      90:	0000026d 	andeq	r0, r0, sp, ror #4
      94:	0000026d 	andeq	r0, r0, sp, ror #4
      98:	0000026d 	andeq	r0, r0, sp, ror #4
      9c:	0000026d 	andeq	r0, r0, sp, ror #4
      a0:	0000026d 	andeq	r0, r0, sp, ror #4
      a4:	0000026d 	andeq	r0, r0, sp, ror #4
      a8:	0000026d 	andeq	r0, r0, sp, ror #4
      ac:	0000026d 	andeq	r0, r0, sp, ror #4
      b0:	0000026d 	andeq	r0, r0, sp, ror #4
      b4:	0000026d 	andeq	r0, r0, sp, ror #4
      b8:	0000026d 	andeq	r0, r0, sp, ror #4
      bc:	0000026d 	andeq	r0, r0, sp, ror #4
      c0:	0000026d 	andeq	r0, r0, sp, ror #4
      c4:	0000026d 	andeq	r0, r0, sp, ror #4
      c8:	0000026d 	andeq	r0, r0, sp, ror #4
      cc:	0000026d 	andeq	r0, r0, sp, ror #4
      d0:	0000026d 	andeq	r0, r0, sp, ror #4
      d4:	0000026d 	andeq	r0, r0, sp, ror #4
      d8:	0000026d 	andeq	r0, r0, sp, ror #4
      dc:	0000026d 	andeq	r0, r0, sp, ror #4
      e0:	0000026d 	andeq	r0, r0, sp, ror #4
      e4:	0000026d 	andeq	r0, r0, sp, ror #4
      e8:	0000026d 	andeq	r0, r0, sp, ror #4
      ec:	0000026d 	andeq	r0, r0, sp, ror #4
      f0:	0000026d 	andeq	r0, r0, sp, ror #4
      f4:	0000026d 	andeq	r0, r0, sp, ror #4
      f8:	0000026d 	andeq	r0, r0, sp, ror #4
      fc:	0000026d 	andeq	r0, r0, sp, ror #4
     100:	0000026d 	andeq	r0, r0, sp, ror #4
     104:	0000026d 	andeq	r0, r0, sp, ror #4
     108:	0000026d 	andeq	r0, r0, sp, ror #4
     10c:	0000026d 	andeq	r0, r0, sp, ror #4
     110:	0000026d 	andeq	r0, r0, sp, ror #4
     114:	0000026d 	andeq	r0, r0, sp, ror #4
     118:	0000026d 	andeq	r0, r0, sp, ror #4
     11c:	0000026d 	andeq	r0, r0, sp, ror #4
     120:	0000026d 	andeq	r0, r0, sp, ror #4
     124:	0000026d 	andeq	r0, r0, sp, ror #4
     128:	0000026d 	andeq	r0, r0, sp, ror #4
     12c:	0000026d 	andeq	r0, r0, sp, ror #4
     130:	0000026d 	andeq	r0, r0, sp, ror #4
     134:	0000026d 	andeq	r0, r0, sp, ror #4
     138:	0000026d 	andeq	r0, r0, sp, ror #4
     13c:	0000026d 	andeq	r0, r0, sp, ror #4
	...
     150:	0000026d 	andeq	r0, r0, sp, ror #4
     154:	0000026d 	andeq	r0, r0, sp, ror #4
     158:	0000026d 	andeq	r0, r0, sp, ror #4
     15c:	0000026d 	andeq	r0, r0, sp, ror #4
	...
     1b0:	0000026d 	andeq	r0, r0, sp, ror #4
     1b4:	0000026d 	andeq	r0, r0, sp, ror #4
     1b8:	0000026d 	andeq	r0, r0, sp, ror #4
     1bc:	0000026d 	andeq	r0, r0, sp, ror #4
     1c0:	0000026d 	andeq	r0, r0, sp, ror #4
     1c4:	0000026d 	andeq	r0, r0, sp, ror #4
     1c8:	0000026d 	andeq	r0, r0, sp, ror #4
     1cc:	0000026d 	andeq	r0, r0, sp, ror #4
     1d0:	0000026d 	andeq	r0, r0, sp, ror #4
     1d4:	0000026d 	andeq	r0, r0, sp, ror #4
     1d8:	0000026d 	andeq	r0, r0, sp, ror #4
     1dc:	0000026d 	andeq	r0, r0, sp, ror #4
     1e0:	0000026d 	andeq	r0, r0, sp, ror #4
     1e4:	0000026d 	andeq	r0, r0, sp, ror #4
     1e8:	0000026d 	andeq	r0, r0, sp, ror #4
     1ec:	0000026d 	andeq	r0, r0, sp, ror #4
     1f0:	0000026d 	andeq	r0, r0, sp, ror #4
     1f4:	0000026d 	andeq	r0, r0, sp, ror #4
     1f8:	0000026d 	andeq	r0, r0, sp, ror #4
     1fc:	0000026d 	andeq	r0, r0, sp, ror #4
     200:	0000026d 	andeq	r0, r0, sp, ror #4
     204:	0000026d 	andeq	r0, r0, sp, ror #4
     208:	0000026d 	andeq	r0, r0, sp, ror #4
     20c:	00000000 	andeq	r0, r0, r0
     210:	0000026d 	andeq	r0, r0, sp, ror #4
     214:	0000026d 	andeq	r0, r0, sp, ror #4
     218:	0000026d 	andeq	r0, r0, sp, ror #4
     21c:	0000026d 	andeq	r0, r0, sp, ror #4
     220:	0000026d 	andeq	r0, r0, sp, ror #4
     224:	0000026d 	andeq	r0, r0, sp, ror #4
     228:	0000026d 	andeq	r0, r0, sp, ror #4
     22c:	0000026d 	andeq	r0, r0, sp, ror #4
     230:	0000026d 	andeq	r0, r0, sp, ror #4
     234:	0000026d 	andeq	r0, r0, sp, ror #4
     238:	0000026d 	andeq	r0, r0, sp, ror #4
     23c:	0000026d 	andeq	r0, r0, sp, ror #4
     240:	0000026d 	andeq	r0, r0, sp, ror #4
     244:	0000026d 	andeq	r0, r0, sp, ror #4
     248:	0000026d 	andeq	r0, r0, sp, ror #4
     24c:	0000026d 	andeq	r0, r0, sp, ror #4
     250:	0000026d 	andeq	r0, r0, sp, ror #4
     254:	0000026d 	andeq	r0, r0, sp, ror #4
     258:	0000026d 	andeq	r0, r0, sp, ror #4
     25c:	0000026d 	andeq	r0, r0, sp, ror #4
     260:	0000026d 	andeq	r0, r0, sp, ror #4
     264:	0000026d 	andeq	r0, r0, sp, ror #4
     268:	0000026d 	andeq	r0, r0, sp, ror #4

0000026c <nullhandler>:
     26c:	b500      	push	{lr}
     26e:	f000 fe90 	bl	f92 <dotgaensefuesschen>
     272:	686e5516 	stmdavs	lr!, {r1, r2, r4, r8, sl, ip, lr}^
     276:	6c646e61 	stclvs	14, cr6, [r4], #-388	; 0xfffffe7c
     27a:	49206465 	stmdbmi	r0!, {r0, r2, r5, r6, sl, sp, lr}
     27e:	7265746e 	rsbvc	r7, r5, #1845493760	; 0x6e000000
     282:	74707572 	ldrbtvc	r7, [r0], #-1394	; 0x572
     286:	000a2120 	andeq	r2, sl, r0, lsr #2
     28a:	f85d eb04 	ldr.w	lr, [sp], #4
     28e:	4770      	bx	lr
     290:	00000000 	andeq	r0, r0, r0
     294:	00004000 	andeq	r4, r0, r0
     298:	70656405 	rsbvc	r6, r5, r5, lsl #8
     29c:	f8df6874 			; <UNDEFINED> instruction: 0xf8df6874
     2a0:	19ac      	adds	r4, r5, r6
     2a2:	1bc9      	subs	r1, r1, r7
     2a4:	ea4f 0191 	mov.w	r1, r1, lsr #2
     2a8:	f847 6d04 	str.w	r6, [r7, #-4]!
     2ac:	460e      	mov	r6, r1
     2ae:	4770      	bx	lr
     2b0:	00000061 	andeq	r0, r0, r1, rrx
     2b4:	00000290 	muleq	r0, r0, r2
     2b8:	70756403 	rsbsvc	r6, r5, r3, lsl #8
     2bc:	f847 6d04 	str.w	r6, [r7, #-4]!
     2c0:	4770      	bx	lr
     2c2:	00000061 	andeq	r0, r0, r1, rrx
     2c6:	000002b0 			; <UNDEFINED> instruction: 0x000002b0
     2ca:	6f726404 	svcvs	0x00726404
     2ce:	cf400070 	svcgt	0x00400070
     2d2:	4770      	bx	lr
     2d4:	00000041 	andeq	r0, r0, r1, asr #32
     2d8:	000002c2 	andeq	r0, r0, r2, asr #5
     2dc:	75643f04 	strbvc	r3, [r4, #-3844]!	; 0xf04
     2e0:	2e000070 	mcrcs	0, 0, r0, cr0, cr0, {3}
     2e4:	bf18      	it	ne
     2e6:	f847 6d04 	strne.w	r6, [r7, #-4]!
     2ea:	4770      	bx	lr
     2ec:	00000042 	andeq	r0, r0, r2, asr #32
     2f0:	000002d4 	ldrdeq	r0, [r0], -r4
     2f4:	61777304 	cmnvs	r7, r4, lsl #6
     2f8:	68390070 	ldmdavs	r9!, {r4, r5, r6}
     2fc:	603e      	str	r6, [r7, #0]
     2fe:	460e      	mov	r6, r1
     300:	4770      	bx	lr
     302:	00000062 	andeq	r0, r0, r2, rrx
     306:	000002ec 	andeq	r0, r0, ip, ror #5
     30a:	70696e03 	rsbvc	r6, r9, r3, lsl #28
     30e:	3704      	adds	r7, #4
     310:	4770      	bx	lr
     312:	00000042 	andeq	r0, r0, r2, asr #32
     316:	00000302 	andeq	r0, r0, r2, lsl #6
     31a:	65766f04 	ldrbvs	r6, [r6, #-3844]!	; 0xf04
     31e:	68390072 	ldmdavs	r9!, {r1, r4, r5, r6}
     322:	f847 6d04 	str.w	r6, [r7, #-4]!
     326:	460e      	mov	r6, r1
     328:	4770      	bx	lr
     32a:	00000042 	andeq	r0, r0, r2, asr #32
     32e:	00000312 	andeq	r0, r0, r2, lsl r3
     332:	63757404 	cmnvs	r5, #67108864	; 0x4000000
     336:	cf01006b 	svcgt	0x0001006b
     33a:	f847 6d04 	str.w	r6, [r7, #-4]!
     33e:	f847 0d04 	str.w	r0, [r7, #-4]!
     342:	4770      	bx	lr
     344:	00000043 	andeq	r0, r0, r3, asr #32
     348:	0000032a 	andeq	r0, r0, sl, lsr #6
     34c:	746f7203 	strbtvc	r7, [pc], #-515	; 354 <nullhandler+0xe8>
     350:	cf03      	ldmia	r7!, {r0, r1}
     352:	f847 0d04 	str.w	r0, [r7, #-4]!
     356:	f847 6d04 	str.w	r6, [r7, #-4]!
     35a:	460e      	mov	r6, r1
     35c:	4770      	bx	lr
     35e:	00000043 	andeq	r0, r0, r3, asr #32
     362:	00000344 	andeq	r0, r0, r4, asr #6
     366:	6f722d04 	svcvs	0x00722d04
     36a:	cf030074 	svcgt	0x00030074
     36e:	f847 6d04 	str.w	r6, [r7, #-4]!
     372:	f847 1d04 	str.w	r1, [r7, #-4]!
     376:	4606      	mov	r6, r0
     378:	4770      	bx	lr
     37a:	00000020 	andeq	r0, r0, r0, lsr #32
     37e:	0000035e 	andeq	r0, r0, lr, asr r3
     382:	63697004 	cmnvs	r9, #4
     386:	f857006b 			; <UNDEFINED> instruction: 0xf857006b
     38a:	6026      	str	r6, [r4, #0]
     38c:	4770      	bx	lr
     38e:	00000020 	andeq	r0, r0, r0, lsr #32
     392:	0000037a 	andeq	r0, r0, sl, ror r3
     396:	00723e02 	rsbseq	r3, r2, r2, lsl #28
     39a:	b440      	push	{r6}
     39c:	cf40      	ldmia	r7!, {r6}
     39e:	4770      	bx	lr
     3a0:	00000020 	andeq	r0, r0, r0, lsr #32
     3a4:	0000038e 	andeq	r0, r0, lr, lsl #7
     3a8:	003e7202 	eorseq	r7, lr, r2, lsl #4
     3ac:	f847 6d04 	str.w	r6, [r7, #-4]!
     3b0:	bc40      	pop	{r6}
     3b2:	4770      	bx	lr
     3b4:	00000020 	andeq	r0, r0, r0, lsr #32
     3b8:	000003a0 	andeq	r0, r0, r0, lsr #7
     3bc:	00407202 	subeq	r7, r0, r2, lsl #4
     3c0:	f847 6d04 	str.w	r6, [r7, #-4]!
     3c4:	9e00      	ldr	r6, [sp, #0]
     3c6:	4770      	bx	lr
     3c8:	00000060 	andeq	r0, r0, r0, rrx
     3cc:	000003b4 			; <UNDEFINED> instruction: 0x000003b4
     3d0:	75727404 	ldrbvc	r7, [r2, #-1028]!	; 0x404
     3d4:	f8470065 			; <UNDEFINED> instruction: 0xf8470065
     3d8:	6d04      	ldr	r4, [r0, #80]	; 0x50
     3da:	f05f 36ff 	movs.w	r6, #4294967295
     3de:	4770      	bx	lr
     3e0:	00000060 	andeq	r0, r0, r0, rrx
     3e4:	000003c8 	andeq	r0, r0, r8, asr #7
     3e8:	6c616605 	stclvs	6, cr6, [r1], #-20	; 0xffffffec
     3ec:	f8476573 			; <UNDEFINED> instruction: 0xf8476573
     3f0:	6d04      	ldr	r4, [r0, #80]	; 0x50
     3f2:	2600      	movs	r6, #0
     3f4:	4770      	bx	lr
     3f6:	00000062 	andeq	r0, r0, r2, rrx
     3fa:	000003e0 	andeq	r0, r0, r0, ror #7
     3fe:	646e6103 	strbtvs	r6, [lr], #-259	; 0x103
     402:	cf01      	ldmia	r7!, {r0}
     404:	4006      	ands	r6, r0
     406:	4770      	bx	lr
     408:	00000062 	andeq	r0, r0, r2, rrx
     40c:	000003f6 	strdeq	r0, [r0], -r6
     410:	63696203 	cmnvs	r9, #805306368	; 0x30000000
     414:	cf01      	ldmia	r7!, {r0}
     416:	ea30 0606 	bics.w	r6, r0, r6
     41a:	4770      	bx	lr
     41c:	00000062 	andeq	r0, r0, r2, rrx
     420:	00000408 	andeq	r0, r0, r8, lsl #8
     424:	00726f02 	rsbseq	r6, r2, r2, lsl #30
     428:	cf01      	ldmia	r7!, {r0}
     42a:	4306      	orrs	r6, r0
     42c:	4770      	bx	lr
     42e:	00000062 	andeq	r0, r0, r2, rrx
     432:	0000041c 	andeq	r0, r0, ip, lsl r4
     436:	726f7803 	rsbvc	r7, pc, #196608	; 0x30000
     43a:	cf01      	ldmia	r7!, {r0}
     43c:	4046      	eors	r6, r0
     43e:	4770      	bx	lr
     440:	00000061 	andeq	r0, r0, r1, rrx
     444:	0000042e 	andeq	r0, r0, lr, lsr #8
     448:	746f6e03 	strbtvc	r6, [pc], #-3587	; 450 <nullhandler+0x1e4>
     44c:	43f6      	mvns	r6, r6
     44e:	4770      	bx	lr
     450:	00000061 	andeq	r0, r0, r1, rrx
     454:	00000440 	andeq	r0, r0, r0, asr #8
     458:	7a6c6303 	bvc	1b1906c <FlashDictionaryEnde+0x1ad906c>
     45c:	fab6 f686 	clz	r6, r6
     460:	4770      	bx	lr
     462:	00000061 	andeq	r0, r0, r1, rrx
     466:	00000450 	andeq	r0, r0, r0, asr r4
     46a:	72687303 	rsbvc	r7, r8, #201326592	; 0xc000000
     46e:	0876      	lsrs	r6, r6, #1
     470:	4770      	bx	lr
     472:	00000061 	andeq	r0, r0, r1, rrx
     476:	00000462 	andeq	r0, r0, r2, ror #8
     47a:	6c687303 	stclvs	3, cr7, [r8], #-12
     47e:	0076      	lsls	r6, r6, #1
     480:	4770      	bx	lr
     482:	00000062 	andeq	r0, r0, r2, rrx
     486:	00000472 	andeq	r0, r0, r2, ror r4
     48a:	68737206 	ldmdavs	r3!, {r1, r2, r9, ip, sp, lr}^
     48e:	00746669 	rsbseq	r6, r4, r9, ror #12
     492:	cf01      	ldmia	r7!, {r0}
     494:	fa30 f606 	lsrs.w	r6, r0, r6
     498:	4770      	bx	lr
     49a:	00000062 	andeq	r0, r0, r2, rrx
     49e:	00000482 	andeq	r0, r0, r2, lsl #9
     4a2:	73726107 	cmnvc	r2, #-1073741823	; 0xc0000001
     4a6:	74666968 	strbtvc	r6, [r6], #-2408	; 0x968
     4aa:	cf01      	ldmia	r7!, {r0}
     4ac:	fa50 f606 	asrs.w	r6, r0, r6
     4b0:	4770      	bx	lr
     4b2:	00000062 	andeq	r0, r0, r2, rrx
     4b6:	0000049a 	muleq	r0, sl, r4
     4ba:	68736c06 	ldmdavs	r3!, {r1, r2, sl, fp, sp, lr}^
     4be:	00746669 	rsbseq	r6, r4, r9, ror #12
     4c2:	cf01      	ldmia	r7!, {r0}
     4c4:	fa10 f606 	lsls.w	r6, r0, r6
     4c8:	4770      	bx	lr
     4ca:	00000041 	andeq	r0, r0, r1, asr #32
     4ce:	000004b2 			; <UNDEFINED> instruction: 0x000004b2
     4d2:	003d3002 	eorseq	r3, sp, r2
     4d6:	2e00      	cmp	r6, #0
     4d8:	bf0c      	ite	eq
     4da:	43f6      	mvneq	r6, r6
     4dc:	2600      	movne	r6, #0
     4de:	4770      	bx	lr
     4e0:	00000041 	andeq	r0, r0, r1, asr #32
     4e4:	000004ca 	andeq	r0, r0, sl, asr #9
     4e8:	3e3c3003 	cdpcc	0, 3, cr3, cr12, cr3, {0}
     4ec:	2e00      	cmp	r6, #0
     4ee:	bf14      	ite	ne
     4f0:	f04f 36ff 	movne.w	r6, #4294967295
     4f4:	2600      	moveq	r6, #0
     4f6:	4770      	bx	lr
     4f8:	00000041 	andeq	r0, r0, r1, asr #32
     4fc:	000004e0 	andeq	r0, r0, r0, ror #9
     500:	003c3002 	eorseq	r3, ip, r2
     504:	2e00      	cmp	r6, #0
     506:	bf4c      	ite	mi
     508:	f04f 36ff 	movmi.w	r6, #4294967295
     50c:	2600      	movpl	r6, #0
     50e:	4770      	bx	lr
     510:	00000042 	andeq	r0, r0, r2, asr #32
     514:	000004f8 	strdeq	r0, [r0], -r8
     518:	003d3e02 	eorseq	r3, sp, r2, lsl #28
     51c:	cf01      	ldmia	r7!, {r0}
     51e:	42b0      	cmp	r0, r6
     520:	bfb4      	ite	lt
     522:	2600      	movlt	r6, #0
     524:	f04f 36ff 	movge.w	r6, #4294967295
     528:	4770      	bx	lr
     52a:	00000042 	andeq	r0, r0, r2, asr #32
     52e:	00000510 	andeq	r0, r0, r0, lsl r5
     532:	003d3c02 	eorseq	r3, sp, r2, lsl #24
     536:	cf01      	ldmia	r7!, {r0}
     538:	42b0      	cmp	r0, r6
     53a:	bfcc      	ite	gt
     53c:	2600      	movgt	r6, #0
     53e:	f04f 36ff 	movle.w	r6, #4294967295
     542:	4770      	bx	lr
     544:	00000042 	andeq	r0, r0, r2, asr #32
     548:	0000052a 	andeq	r0, r0, sl, lsr #10
     54c:	cf013c01 	svcgt	0x00013c01
     550:	42b0      	cmp	r0, r6
     552:	bfb4      	ite	lt
     554:	f04f 36ff 	movlt.w	r6, #4294967295
     558:	2600      	movge	r6, #0
     55a:	4770      	bx	lr
     55c:	00000042 	andeq	r0, r0, r2, asr #32
     560:	00000544 	andeq	r0, r0, r4, asr #10
     564:	cf013e01 	svcgt	0x00013e01
     568:	42b0      	cmp	r0, r6
     56a:	bfcc      	ite	gt
     56c:	f04f 36ff 	movgt.w	r6, #4294967295
     570:	2600      	movle	r6, #0
     572:	4770      	bx	lr
     574:	00000042 	andeq	r0, r0, r2, asr #32
     578:	0000055c 	andeq	r0, r0, ip, asr r5
     57c:	3d3e7503 	cfldr32cc	mvfx7, [lr, #-12]!
     580:	cf01      	ldmia	r7!, {r0}
     582:	42b0      	cmp	r0, r6
     584:	bf34      	ite	cc
     586:	2600      	movcc	r6, #0
     588:	f04f 36ff 	movcs.w	r6, #4294967295
     58c:	4770      	bx	lr
     58e:	00000042 	andeq	r0, r0, r2, asr #32
     592:	00000574 	andeq	r0, r0, r4, ror r5
     596:	3d3c7503 	cfldr32cc	mvfx7, [ip, #-12]!
     59a:	cf01      	ldmia	r7!, {r0}
     59c:	4286      	cmp	r6, r0
     59e:	bf34      	ite	cc
     5a0:	2600      	movcc	r6, #0
     5a2:	f04f 36ff 	movcs.w	r6, #4294967295
     5a6:	4770      	bx	lr
     5a8:	00000042 	andeq	r0, r0, r2, asr #32
     5ac:	0000058e 	andeq	r0, r0, lr, lsl #11
     5b0:	003c7502 	eorseq	r7, ip, r2, lsl #10
     5b4:	cf01      	ldmia	r7!, {r0}
     5b6:	42b0      	cmp	r0, r6
     5b8:	bf34      	ite	cc
     5ba:	f04f 36ff 	movcc.w	r6, #4294967295
     5be:	2600      	movcs	r6, #0
     5c0:	4770      	bx	lr
     5c2:	00000042 	andeq	r0, r0, r2, asr #32
     5c6:	000005a8 	andeq	r0, r0, r8, lsr #11
     5ca:	003e7502 	eorseq	r7, lr, r2, lsl #10
     5ce:	cf01      	ldmia	r7!, {r0}
     5d0:	4286      	cmp	r6, r0
     5d2:	bf34      	ite	cc
     5d4:	f04f 36ff 	movcc.w	r6, #4294967295
     5d8:	2600      	movcs	r6, #0
     5da:	4770      	bx	lr
     5dc:	00000042 	andeq	r0, r0, r2, asr #32
     5e0:	000005c2 	andeq	r0, r0, r2, asr #11
     5e4:	003e3c02 	eorseq	r3, lr, r2, lsl #24
     5e8:	cf01      	ldmia	r7!, {r0}
     5ea:	1a36      	subs	r6, r6, r0
     5ec:	bf18      	it	ne
     5ee:	f04f 36ff 	movne.w	r6, #4294967295
     5f2:	4770      	bx	lr
     5f4:	00000042 	andeq	r0, r0, r2, asr #32
     5f8:	000005dc 	ldrdeq	r0, [r0], -ip
     5fc:	cf013d01 	svcgt	0x00013d01
     600:	1a36      	subs	r6, r6, r0
     602:	bf0c      	ite	eq
     604:	43f6      	mvneq	r6, r6
     606:	2600      	movne	r6, #0
     608:	4770      	bx	lr
     60a:	00000042 	andeq	r0, r0, r2, asr #32
     60e:	000005f4 	strdeq	r0, [r0], -r4
     612:	6e696d03 	cdpvs	13, 6, cr6, cr9, cr3, {0}
     616:	cf01      	ldmia	r7!, {r0}
     618:	42b1      	cmp	r1, r6
     61a:	bfb8      	it	lt
     61c:	460e      	movlt	r6, r1
     61e:	4770      	bx	lr
     620:	00000042 	andeq	r0, r0, r2, asr #32
     624:	0000060a 	andeq	r0, r0, sl, lsl #12
     628:	78616d03 	stmdavc	r1!, {r0, r1, r8, sl, fp, sp, lr}^
     62c:	cf01      	ldmia	r7!, {r0}
     62e:	42b1      	cmp	r1, r6
     630:	bfc8      	it	gt
     632:	460e      	movgt	r6, r1
     634:	4770      	bx	lr
     636:	00000042 	andeq	r0, r0, r2, asr #32
     63a:	00000620 	andeq	r0, r0, r0, lsr #12
     63e:	616d7504 	cmnvs	sp, r4, lsl #10
     642:	cf010078 	svcgt	0x00010078
     646:	42b0      	cmp	r0, r6
     648:	bf88      	it	hi
     64a:	4606      	movhi	r6, r0
     64c:	4770      	bx	lr
     64e:	00000042 	andeq	r0, r0, r2, asr #32
     652:	00000636 	andeq	r0, r0, r6, lsr r6
     656:	696d7504 	stmdbvs	sp!, {r2, r8, sl, ip, sp, lr}^
     65a:	cf01006e 	svcgt	0x0001006e
     65e:	42b0      	cmp	r0, r6
     660:	bf38      	it	cc
     662:	4606      	movcc	r6, r0
     664:	4770      	bx	lr
     666:	00000000 	andeq	r0, r0, r0
     66a:	0000064e 	andeq	r0, r0, lr, asr #12
     66e:	766f6d04 	strbtvc	r6, [pc], -r4, lsl #26
     672:	b50f0065 	strlt	r0, [pc, #-101]	; 615 <nullhandler+0x3a9>

00000674 <move>:
     674:	b50f      	push	{r0, r1, r2, r3, lr}
     676:	4632      	mov	r2, r6
     678:	cf40      	ldmia	r7!, {r6}
     67a:	4631      	mov	r1, r6
     67c:	cf40      	ldmia	r7!, {r6}
     67e:	4630      	mov	r0, r6
     680:	cf40      	ldmia	r7!, {r6}
     682:	2a00      	cmp	r2, #0
     684:	f000 8009 	beq.w	69a <move_fertig>
     688:	4281      	cmp	r1, r0
     68a:	f000 8006 	beq.w	69a <move_fertig>
     68e:	7803      	ldrb	r3, [r0, #0]
     690:	700b      	strb	r3, [r1, #0]
     692:	3001      	adds	r0, #1
     694:	3101      	adds	r1, #1
     696:	3a01      	subs	r2, #1
     698:	d1f9      	bne.n	68e <move+0x1a>

0000069a <move_fertig>:
     69a:	bd0f      	pop	{r0, r1, r2, r3, pc}
     69c:	00000020 	andeq	r0, r0, r0, lsr #32
     6a0:	00000666 	andeq	r0, r0, r6, ror #12
     6a4:	68364001 	ldmdavs	r6!, {r0, lr}
     6a8:	4770      	bx	lr
     6aa:	00000020 	andeq	r0, r0, r0, lsr #32
     6ae:	0000069c 	muleq	r0, ip, r6
     6b2:	cf032101 	svcgt	0x00032101
     6b6:	6030      	str	r0, [r6, #0]
     6b8:	460e      	mov	r6, r1
     6ba:	4770      	bx	lr
     6bc:	00000000 	andeq	r0, r0, r0
     6c0:	000006aa 	andeq	r0, r0, sl, lsr #13
     6c4:	00212b02 	eoreq	r2, r1, r2, lsl #22
     6c8:	cf03      	ldmia	r7!, {r0, r1}
     6ca:	6832      	ldr	r2, [r6, #0]
     6cc:	1812      	adds	r2, r2, r0
     6ce:	6032      	str	r2, [r6, #0]
     6d0:	460e      	mov	r6, r1
     6d2:	4770      	bx	lr
     6d4:	00000020 	andeq	r0, r0, r0, lsr #32
     6d8:	000006bc 			; <UNDEFINED> instruction: 0x000006bc
     6dc:	00406802 	subeq	r6, r0, r2, lsl #16
     6e0:	8836      	ldrh	r6, [r6, #0]
     6e2:	4770      	bx	lr
     6e4:	00000020 	andeq	r0, r0, r0, lsr #32
     6e8:	000006d4 	ldrdeq	r0, [r0], -r4
     6ec:	00216802 	eoreq	r6, r1, r2, lsl #16
     6f0:	cf03      	ldmia	r7!, {r0, r1}
     6f2:	8030      	strh	r0, [r6, #0]
     6f4:	460e      	mov	r6, r1
     6f6:	4770      	bx	lr
     6f8:	00000000 	andeq	r0, r0, r0
     6fc:	000006e4 	andeq	r0, r0, r4, ror #13
     700:	212b6803 	teqcs	fp, r3, lsl #16
     704:	cf03      	ldmia	r7!, {r0, r1}
     706:	8832      	ldrh	r2, [r6, #0]
     708:	1812      	adds	r2, r2, r0
     70a:	8032      	strh	r2, [r6, #0]
     70c:	460e      	mov	r6, r1
     70e:	4770      	bx	lr
     710:	00000020 	andeq	r0, r0, r0, lsr #32
     714:	000006f8 	strdeq	r0, [r0], -r8
     718:	00406302 	subeq	r6, r0, r2, lsl #6
     71c:	7836      	ldrb	r6, [r6, #0]
     71e:	4770      	bx	lr
     720:	00000020 	andeq	r0, r0, r0, lsr #32
     724:	00000710 	andeq	r0, r0, r0, lsl r7
     728:	00216302 	eoreq	r6, r1, r2, lsl #6
     72c:	cf03      	ldmia	r7!, {r0, r1}
     72e:	7030      	strb	r0, [r6, #0]
     730:	460e      	mov	r6, r1
     732:	4770      	bx	lr
     734:	00000000 	andeq	r0, r0, r0
     738:	00000720 	andeq	r0, r0, r0, lsr #14
     73c:	212b6303 	teqcs	fp, r3, lsl #6
     740:	cf03      	ldmia	r7!, {r0, r1}
     742:	7832      	ldrb	r2, [r6, #0]
     744:	1812      	adds	r2, r2, r0
     746:	7032      	strb	r2, [r6, #0]
     748:	460e      	mov	r6, r1
     74a:	4770      	bx	lr
     74c:	00000000 	andeq	r0, r0, r0
     750:	00000734 	andeq	r0, r0, r4, lsr r7
     754:	73696204 	cmnvc	r9, #1073741824	; 0x40000000
     758:	cf030021 	svcgt	0x00030021
     75c:	6832      	ldr	r2, [r6, #0]
     75e:	4302      	orrs	r2, r0
     760:	6032      	str	r2, [r6, #0]
     762:	460e      	mov	r6, r1
     764:	4770      	bx	lr
     766:	00000000 	andeq	r0, r0, r0
     76a:	0000074c 	andeq	r0, r0, ip, asr #14
     76e:	63696204 	cmnvs	r9, #1073741824	; 0x40000000
     772:	cf030021 	svcgt	0x00030021
     776:	6832      	ldr	r2, [r6, #0]
     778:	4382      	bics	r2, r0
     77a:	6032      	str	r2, [r6, #0]
     77c:	460e      	mov	r6, r1
     77e:	4770      	bx	lr
     780:	00000000 	andeq	r0, r0, r0
     784:	00000766 	andeq	r0, r0, r6, ror #14
     788:	726f7804 	rsbvc	r7, pc, #262144	; 0x40000
     78c:	cf030021 	svcgt	0x00030021
     790:	6832      	ldr	r2, [r6, #0]
     792:	4042      	eors	r2, r0
     794:	6032      	str	r2, [r6, #0]
     796:	460e      	mov	r6, r1
     798:	4770      	bx	lr
     79a:	00000000 	andeq	r0, r0, r0
     79e:	00000780 	andeq	r0, r0, r0, lsl #15
     7a2:	74696204 	strbtvc	r6, [r9], #-516	; 0x204
     7a6:	cf020040 	svcgt	0x00020040
     7aa:	6832      	ldr	r2, [r6, #0]
     7ac:	4011      	ands	r1, r2
     7ae:	bf0c      	ite	eq
     7b0:	2600      	moveq	r6, #0
     7b2:	f04f 36ff 	movne.w	r6, #4294967295
     7b6:	4770      	bx	lr
     7b8:	00000000 	andeq	r0, r0, r0
     7bc:	0000079a 	muleq	r0, sl, r7
     7c0:	69626805 	stmdbvs	r2!, {r0, r2, fp, sp, lr}^
     7c4:	cf032173 	svcgt	0x00032173
     7c8:	8832      	ldrh	r2, [r6, #0]
     7ca:	4302      	orrs	r2, r0
     7cc:	8032      	strh	r2, [r6, #0]
     7ce:	460e      	mov	r6, r1
     7d0:	4770      	bx	lr
     7d2:	00000000 	andeq	r0, r0, r0
     7d6:	000007b8 			; <UNDEFINED> instruction: 0x000007b8
     7da:	69626805 	stmdbvs	r2!, {r0, r2, fp, sp, lr}^
     7de:	cf032163 	svcgt	0x00032163
     7e2:	8832      	ldrh	r2, [r6, #0]
     7e4:	4382      	bics	r2, r0
     7e6:	8032      	strh	r2, [r6, #0]
     7e8:	460e      	mov	r6, r1
     7ea:	4770      	bx	lr
     7ec:	00000000 	andeq	r0, r0, r0
     7f0:	000007d2 	ldrdeq	r0, [r0], -r2
     7f4:	6f786805 	svcvs	0x00786805
     7f8:	cf032172 	svcgt	0x00032172
     7fc:	8832      	ldrh	r2, [r6, #0]
     7fe:	4042      	eors	r2, r0
     800:	8032      	strh	r2, [r6, #0]
     802:	460e      	mov	r6, r1
     804:	4770      	bx	lr
     806:	00000000 	andeq	r0, r0, r0
     80a:	000007ec 	andeq	r0, r0, ip, ror #15
     80e:	69626805 	stmdbvs	r2!, {r0, r2, fp, sp, lr}^
     812:	cf024074 	svcgt	0x00024074
     816:	8832      	ldrh	r2, [r6, #0]
     818:	4011      	ands	r1, r2
     81a:	bf0c      	ite	eq
     81c:	2600      	moveq	r6, #0
     81e:	f04f 36ff 	movne.w	r6, #4294967295
     822:	4770      	bx	lr
     824:	00000000 	andeq	r0, r0, r0
     828:	00000806 	andeq	r0, r0, r6, lsl #16
     82c:	69626305 	stmdbvs	r2!, {r0, r2, r8, r9, sp, lr}^
     830:	cf032173 	svcgt	0x00032173
     834:	7832      	ldrb	r2, [r6, #0]
     836:	4302      	orrs	r2, r0
     838:	7032      	strb	r2, [r6, #0]
     83a:	460e      	mov	r6, r1
     83c:	4770      	bx	lr
     83e:	00000000 	andeq	r0, r0, r0
     842:	00000824 	andeq	r0, r0, r4, lsr #16
     846:	69626305 	stmdbvs	r2!, {r0, r2, r8, r9, sp, lr}^
     84a:	cf032163 	svcgt	0x00032163
     84e:	7832      	ldrb	r2, [r6, #0]
     850:	4382      	bics	r2, r0
     852:	7032      	strb	r2, [r6, #0]
     854:	460e      	mov	r6, r1
     856:	4770      	bx	lr
     858:	00000000 	andeq	r0, r0, r0
     85c:	0000083e 	andeq	r0, r0, lr, lsr r8
     860:	6f786305 	svcvs	0x00786305
     864:	cf032172 	svcgt	0x00032172
     868:	7832      	ldrb	r2, [r6, #0]
     86a:	4042      	eors	r2, r0
     86c:	7032      	strb	r2, [r6, #0]
     86e:	460e      	mov	r6, r1
     870:	4770      	bx	lr
     872:	00000000 	andeq	r0, r0, r0
     876:	00000858 	andeq	r0, r0, r8, asr r8
     87a:	69626305 	stmdbvs	r2!, {r0, r2, r8, r9, sp, lr}^
     87e:	cf024074 	svcgt	0x00024074
     882:	7832      	ldrb	r2, [r6, #0]
     884:	4011      	ands	r1, r2
     886:	bf0c      	ite	eq
     888:	2600      	moveq	r6, #0
     88a:	f04f 36ff 	movne.w	r6, #4294967295
     88e:	4770      	bx	lr
     890:	00000000 	andeq	r0, r0, r0
     894:	00000872 	andeq	r0, r0, r2, ror r8
     898:	616c6606 	cmnvs	ip, r6, lsl #12
     89c:	00216873 	eoreq	r6, r1, r3, ror r8
     8a0:	4630      	mov	r0, r6
     8a2:	cf40      	ldmia	r7!, {r6}
     8a4:	4631      	mov	r1, r6
     8a6:	cf40      	ldmia	r7!, {r6}
     8a8:	f1b1 3fff 	cmp.w	r1, #4294967295
     8ac:	d016      	beq.n	8dc <flashkomma_innen+0x1e>
     8ae:	f010 0203 	ands.w	r2, r0, #3
     8b2:	2a00      	cmp	r2, #0
     8b4:	d113      	bne.n	8de <flashkomma_innen+0x20>
     8b6:	6802      	ldr	r2, [r0, #0]
     8b8:	f1b2 3fff 	cmp.w	r2, #4294967295
     8bc:	d10f      	bne.n	8de <flashkomma_innen+0x20>

000008be <flashkomma_innen>:
     8be:	4be4      	ldr	r3, [pc, #912]	; (c50 <u_divmod+0xea>)
     8c0:	4298      	cmp	r0, r3
     8c2:	d30c      	bcc.n	8de <flashkomma_innen+0x20>
     8c4:	4ae3      	ldr	r2, [pc, #908]	; (c54 <u_divmod+0xee>)
     8c6:	6011      	str	r1, [r2, #0]
     8c8:	4ae3      	ldr	r2, [pc, #908]	; (c58 <u_divmod+0xf2>)
     8ca:	6010      	str	r0, [r2, #0]
     8cc:	4ae3      	ldr	r2, [pc, #908]	; (c5c <u_divmod+0xf6>)
     8ce:	4be4      	ldr	r3, [pc, #912]	; (c60 <u_divmod+0xfa>)
     8d0:	6013      	str	r3, [r2, #0]
     8d2:	6813      	ldr	r3, [r2, #0]
     8d4:	f013 0301 	ands.w	r3, r3, #1
     8d8:	2b00      	cmp	r3, #0
     8da:	d1fa      	bne.n	8d2 <flashkomma_innen+0x14>
     8dc:	4770      	bx	lr
     8de:	b500      	push	{lr}
     8e0:	f000 fb57 	bl	f92 <dotgaensefuesschen>
     8e4:	6f72572a 	svcvs	0x0072572a
     8e8:	6120676e 	teqvs	r0, lr, ror #14
     8ec:	65726464 	ldrbvs	r6, [r2, #-1124]!	; 0x464
     8f0:	6f207373 	svcvs	0x00207373
     8f4:	61642072 	smcvs	16898	; 0x4202
     8f8:	66206174 			; <UNDEFINED> instruction: 0x66206174
     8fc:	7720726f 	strvc	r7, [r0, -pc, ror #4]!
     900:	69746972 	ldmdbvs	r4!, {r1, r4, r5, r6, r8, fp, sp, lr}^
     904:	6620676e 	strtvs	r6, [r0], -lr, ror #14
     908:	6873616c 	ldmdavs	r3!, {r2, r3, r5, r6, r8, sp, lr}^
     90c:	000a2120 	andeq	r2, sl, r0, lsr #2
     910:	f85d eb04 	ldr.w	lr, [sp], #4
     914:	f001 bf6e 	b.w	27f4 <quit>
     918:	00000000 	andeq	r0, r0, r0
     91c:	00000890 	muleq	r0, r0, r8
     920:	6c666807 	stclvs	8, cr6, [r6], #-28	; 0xffffffe4
     924:	21687361 	cmncs	r8, r1, ror #6

00000928 <h_flashkomma>:
     928:	4630      	mov	r0, r6
     92a:	cf40      	ldmia	r7!, {r6}
     92c:	4631      	mov	r1, r6
     92e:	cf40      	ldmia	r7!, {r6}
     930:	4bcc      	ldr	r3, [pc, #816]	; (c64 <u_divmod+0xfe>)
     932:	4299      	cmp	r1, r3
     934:	d0d2      	beq.n	8dc <flashkomma_innen+0x1e>
     936:	f010 0201 	ands.w	r2, r0, #1
     93a:	2a00      	cmp	r2, #0
     93c:	d1cf      	bne.n	8de <flashkomma_innen+0x20>
     93e:	8802      	ldrh	r2, [r0, #0]
     940:	429a      	cmp	r2, r3
     942:	d1cc      	bne.n	8de <flashkomma_innen+0x20>

00000944 <h_flashkomma_innen>:
     944:	f010 0202 	ands.w	r2, r0, #2
     948:	2a00      	cmp	r2, #0
     94a:	f000 8008 	beq.w	95e <hflash_gerade>
     94e:	3802      	subs	r0, #2
     950:	8805      	ldrh	r5, [r0, #0]
     952:	ea4f 4101 	mov.w	r1, r1, lsl #16
     956:	ea41 0105 	orr.w	r1, r1, r5
     95a:	f7ff bfb0 	b.w	8be <flashkomma_innen>

0000095e <hflash_gerade>:
     95e:	1c84      	adds	r4, r0, #2
     960:	8825      	ldrh	r5, [r4, #0]
     962:	042d      	lsls	r5, r5, #16
     964:	4329      	orrs	r1, r5
     966:	f7ff bfaa 	b.w	8be <flashkomma_innen>
     96a:	00000000 	andeq	r0, r0, r0
     96e:	00000918 	andeq	r0, r0, r8, lsl r9
     972:	6c666307 	stclvs	3, cr6, [r6], #-28	; 0xffffffe4
     976:	21687361 	cmncs	r8, r1, ror #6

0000097a <c_flashkomma>:
     97a:	4630      	mov	r0, r6
     97c:	cf40      	ldmia	r7!, {r6}
     97e:	4631      	mov	r1, r6
     980:	cf40      	ldmia	r7!, {r6}
     982:	29ff      	cmp	r1, #255	; 0xff
     984:	d0aa      	beq.n	8dc <flashkomma_innen+0x1e>
     986:	7802      	ldrb	r2, [r0, #0]
     988:	2aff      	cmp	r2, #255	; 0xff
     98a:	d1a8      	bne.n	8de <flashkomma_innen+0x20>
     98c:	f010 0201 	ands.w	r2, r0, #1
     990:	2a00      	cmp	r2, #0
     992:	f000 8006 	beq.w	9a2 <cflash_gerade>
     996:	3801      	subs	r0, #1
     998:	7805      	ldrb	r5, [r0, #0]
     99a:	0209      	lsls	r1, r1, #8
     99c:	4329      	orrs	r1, r5
     99e:	f7ff bfd1 	b.w	944 <h_flashkomma_innen>

000009a2 <cflash_gerade>:
     9a2:	1c44      	adds	r4, r0, #1
     9a4:	7825      	ldrb	r5, [r4, #0]
     9a6:	022d      	lsls	r5, r5, #8
     9a8:	4329      	orrs	r1, r5
     9aa:	f7ff bfcb 	b.w	944 <h_flashkomma_innen>
     9ae:	00000000 	andeq	r0, r0, r0
     9b2:	0000096a 	andeq	r0, r0, sl, ror #18
     9b6:	616c660e 	cmnvs	ip, lr, lsl #12
     9ba:	61706873 	cmnvs	r0, r3, ror r8
     9be:	72656567 	rsbvc	r6, r5, #432013312	; 0x19c00000
     9c2:	00657361 	rsbeq	r7, r5, r1, ror #6

000009c6 <flashpageerase>:
     9c6:	b40f      	push	{r0, r1, r2, r3}
     9c8:	4630      	mov	r0, r6
     9ca:	cf40      	ldmia	r7!, {r6}
     9cc:	4ba0      	ldr	r3, [pc, #640]	; (c50 <u_divmod+0xea>)
     9ce:	4298      	cmp	r0, r3
     9d0:	d30b      	bcc.n	9ea <flashpageerase+0x24>
     9d2:	4aa1      	ldr	r2, [pc, #644]	; (c58 <u_divmod+0xf2>)
     9d4:	6010      	str	r0, [r2, #0]
     9d6:	4aa1      	ldr	r2, [pc, #644]	; (c5c <u_divmod+0xf6>)
     9d8:	4ba3      	ldr	r3, [pc, #652]	; (c68 <u_divmod+0x102>)
     9da:	6013      	str	r3, [r2, #0]
     9dc:	6813      	ldr	r3, [r2, #0]
     9de:	f013 0302 	ands.w	r3, r3, #2
     9e2:	2b00      	cmp	r3, #0
     9e4:	d1fa      	bne.n	9dc <flashpageerase+0x16>
     9e6:	bc0f      	pop	{r0, r1, r2, r3}
     9e8:	4770      	bx	lr
     9ea:	b500      	push	{lr}
     9ec:	f000 fad1 	bl	f92 <dotgaensefuesschen>
     9f0:	6f725722 	svcvs	0x00725722
     9f4:	6120676e 	teqvs	r0, lr, ror #14
     9f8:	65726464 	ldrbvs	r6, [r2, #-1124]!	; 0x464
     9fc:	66207373 			; <UNDEFINED> instruction: 0x66207373
     a00:	6520726f 	strvs	r7, [r0, #-623]!	; 0x26f
     a04:	69736172 	ldmdbvs	r3!, {r1, r4, r5, r6, r8, sp, lr}^
     a08:	6620676e 	strtvs	r6, [r0], -lr, ror #14
     a0c:	6873616c 	ldmdavs	r3!, {r2, r3, r5, r6, r8, sp, lr}^
     a10:	000a2120 	andeq	r2, sl, r0, lsr #2
     a14:	f85d eb04 	ldr.w	lr, [sp], #4
     a18:	f001 beec 	b.w	27f4 <quit>
     a1c:	00000000 	andeq	r0, r0, r0
     a20:	000009ae 	andeq	r0, r0, lr, lsr #19
     a24:	6172650a 	cmnvs	r2, sl, lsl #10
     a28:	6c666573 	cfstr64vs	mvdx6, [r6], #-460	; 0xfffffe34
     a2c:	00687361 	rsbeq	r7, r8, r1, ror #6
     a30:	488e      	ldr	r0, [pc, #568]	; (c6c <u_divmod+0x106>)

00000a32 <eraseflash_intern>:
     a32:	498f      	ldr	r1, [pc, #572]	; (c70 <u_divmod+0x10a>)
     a34:	f64f 72ff 	movw	r2, #65535	; 0xffff
     a38:	8803      	ldrh	r3, [r0, #0]
     a3a:	4293      	cmp	r3, r2
     a3c:	d024      	beq.n	a88 <eraseflash_intern+0x56>
     a3e:	f847 6d04 	str.w	r6, [r7, #-4]!
     a42:	4606      	mov	r6, r0
     a44:	f847 6d04 	str.w	r6, [r7, #-4]!
     a48:	b500      	push	{lr}
     a4a:	f000 faa2 	bl	f92 <dotgaensefuesschen>
     a4e:	b6c34c13 			; <UNDEFINED> instruction: 0xb6c34c13
     a52:	65686373 	strbvs	r6, [r8, #-883]!	; 0x373
     a56:	6f6c4220 	svcvs	0x006c4220
     a5a:	62206b63 	eorvs	r6, r0, #101376	; 0x18c00
     a5e:	20206965 	eorcs	r6, r0, r5, ror #18
     a62:	f85d eb04 	ldr.w	lr, [sp], #4
     a66:	f000 fad2 	bl	100e <hexdot>
     a6a:	b500      	push	{lr}
     a6c:	f000 fa91 	bl	f92 <dotgaensefuesschen>
     a70:	7561200f 	strbvc	r2, [r1, #-15]!
     a74:	65642073 	strbvs	r2, [r4, #-115]!	; 0x73
     a78:	6c46206d 	mcrrvs	0, 6, r2, r6, cr13
     a7c:	0a687361 	beq	1a1d808 <FlashDictionaryEnde+0x19dd808>
     a80:	f85d eb04 	ldr.w	lr, [sp], #4
     a84:	f7ff ff9f 	bl	9c6 <flashpageerase>
     a88:	3002      	adds	r0, #2
     a8a:	4288      	cmp	r0, r1
     a8c:	d1d4      	bne.n	a38 <eraseflash_intern+0x6>
     a8e:	b500      	push	{lr}
     a90:	f000 fa7f 	bl	f92 <dotgaensefuesschen>
     a94:	72654610 	rsbvc	r4, r5, #16777216	; 0x1000000
     a98:	2e676974 	mcrcs	9, 3, r6, cr7, cr4, {3}
     a9c:	73655220 	cmnvc	r5, #2
     aa0:	21207465 	teqcs	r0, r5, ror #8
     aa4:	f85d000a 			; <UNDEFINED> instruction: 0xf85d000a
     aa8:	eb04 f001 			; <UNDEFINED> instruction: 0xeb04f001
     aac:	befb      	bkpt	0x00fb
     aae:	00000000 	andeq	r0, r0, r0
     ab2:	00000a1c 	andeq	r0, r0, ip, lsl sl
     ab6:	6172650e 	cmnvs	r2, lr, lsl #10
     aba:	6c666573 	cfstr64vs	mvdx6, [r6], #-460	; 0xfffffe34
     abe:	66687361 	strbtvs	r7, [r8], -r1, ror #6
     ac2:	006d6f72 	rsbeq	r6, sp, r2, ror pc
     ac6:	4630      	mov	r0, r6
     ac8:	cf40      	ldmia	r7!, {r6}
     aca:	f7ff bfb2 	b.w	a32 <eraseflash_intern>
     ace:	00000062 	andeq	r0, r0, r2, rrx
     ad2:	00000aae 	andeq	r0, r0, lr, lsr #21
     ad6:	cf012b01 	svcgt	0x00012b01
     ada:	1836      	adds	r6, r6, r0
     adc:	4770      	bx	lr
     ade:	00000062 	andeq	r0, r0, r2, rrx
     ae2:	00000ace 	andeq	r0, r0, lr, asr #21
     ae6:	cf012d01 	svcgt	0x00012d01
     aea:	1b86      	subs	r6, r0, r6
     aec:	4770      	bx	lr
     aee:	00000061 	andeq	r0, r0, r1, rrx
     af2:	00000ade 	ldrdeq	r0, [r0], -lr
     af6:	002d3102 	eoreq	r3, sp, r2, lsl #2
     afa:	3e01      	subs	r6, #1
     afc:	4770      	bx	lr
     afe:	00000061 	andeq	r0, r0, r1, rrx
     b02:	00000aee 	andeq	r0, r0, lr, ror #21
     b06:	002b3102 	eoreq	r3, fp, r2, lsl #2
     b0a:	3601      	adds	r6, #1
     b0c:	4770      	bx	lr
     b0e:	00000061 	andeq	r0, r0, r1, rrx
     b12:	00000afe 	strdeq	r0, [r0], -lr
     b16:	002d3202 	eoreq	r3, sp, r2, lsl #4
     b1a:	3e02      	subs	r6, #2
     b1c:	4770      	bx	lr
     b1e:	00000061 	andeq	r0, r0, r1, rrx
     b22:	00000b0e 	andeq	r0, r0, lr, lsl #22
     b26:	002b3202 	eoreq	r3, fp, r2, lsl #4
     b2a:	3602      	adds	r6, #2
     b2c:	4770      	bx	lr
     b2e:	00000061 	andeq	r0, r0, r1, rrx
     b32:	00000b1e 	andeq	r0, r0, lr, lsl fp
     b36:	67656e06 	strbvs	r6, [r5, -r6, lsl #28]!
     b3a:	00657461 	rsbeq	r7, r5, r1, ror #8
     b3e:	4276      	negs	r6, r6
     b40:	4770      	bx	lr
     b42:	00000041 	andeq	r0, r0, r1, asr #32
     b46:	00000b2e 	andeq	r0, r0, lr, lsr #22
     b4a:	73626103 	cmnvc	r2, #-1073741824	; 0xc0000000
     b4e:	2e00      	cmp	r6, #0
     b50:	bf48      	it	mi
     b52:	f1d6 0600 	rsbsmi	r6, r6, #0
     b56:	4770      	bx	lr
     b58:	00000042 	andeq	r0, r0, r2, asr #32
     b5c:	00000b42 	andeq	r0, r0, r2, asr #22
     b60:	6d2f7505 	cfstr32vs	mvfx7, [pc, #-20]!	; b54 <eraseflash_intern+0x122>
     b64:	cf01646f 	svcgt	0x0001646f

00000b66 <u_divmod>:
     b66:	cf01      	ldmia	r7!, {r0}
     b68:	4631      	mov	r1, r6
     b6a:	fbb0 f6f6 	udiv	r6, r0, r6
     b6e:	4371      	muls	r1, r6
     b70:	1a40      	subs	r0, r0, r1
     b72:	f847 0d04 	str.w	r0, [r7, #-4]!
     b76:	4770      	bx	lr
     b78:	00000042 	andeq	r0, r0, r2, asr #32
     b7c:	00000b58 	andeq	r0, r0, r8, asr fp
     b80:	6f6d2f04 	svcvs	0x006d2f04
     b84:	cf010064 	svcgt	0x00010064
     b88:	4631      	mov	r1, r6
     b8a:	fb90 f6f6 	sdiv	r6, r0, r6
     b8e:	4371      	muls	r1, r6
     b90:	1a40      	subs	r0, r0, r1
     b92:	f847 0d04 	str.w	r0, [r7, #-4]!
     b96:	4770      	bx	lr
     b98:	00000062 	andeq	r0, r0, r2, rrx
     b9c:	00000b78 	andeq	r0, r0, r8, ror fp
     ba0:	cf012f01 	svcgt	0x00012f01
     ba4:	fb90 f6f6 	sdiv	r6, r0, r6
     ba8:	4770      	bx	lr
     baa:	00000062 	andeq	r0, r0, r2, rrx
     bae:	00000b98 	muleq	r0, r8, fp
     bb2:	cf012a01 	svcgt	0x00012a01
     bb6:	4346      	muls	r6, r0
     bb8:	4770      	bx	lr
     bba:	00000061 	andeq	r0, r0, r1, rrx
     bbe:	00000baa 	andeq	r0, r0, sl, lsr #23
     bc2:	002a3202 	eoreq	r3, sl, r2, lsl #4
     bc6:	0076      	lsls	r6, r6, #1
     bc8:	4770      	bx	lr
     bca:	00000061 	andeq	r0, r0, r1, rrx
     bce:	00000bba 			; <UNDEFINED> instruction: 0x00000bba
     bd2:	002f3202 	eoreq	r3, pc, r2, lsl #4
     bd6:	1076      	asrs	r6, r6, #1
     bd8:	4770      	bx	lr
     bda:	00000061 	andeq	r0, r0, r1, rrx
     bde:	00000bca 	andeq	r0, r0, sl, asr #23
     be2:	65766504 	ldrbvs	r6, [r6, #-1284]!	; 0x504
     be6:	f016006e 			; <UNDEFINED> instruction: 0xf016006e
     bea:	0101      	lsls	r1, r0, #4
     bec:	1876      	adds	r6, r6, r1
     bee:	4770      	bx	lr
     bf0:	00000040 	andeq	r0, r0, r0, asr #32
     bf4:	00000bda 	ldrdeq	r0, [r0], -sl
     bf8:	73616204 	cmnvc	r1, #1073741824	; 0x40000000
     bfc:	481d0065 	ldmdami	sp, {r0, r2, r5, r6}
     c00:	f847 6d04 	str.w	r6, [r7, #-4]!
     c04:	4606      	mov	r6, r0
     c06:	4770      	bx	lr
     c08:	00000000 	andeq	r0, r0, r0
     c0c:	00000bf0 	strdeq	r0, [r0], -r0	; <UNPREDICTABLE>
     c10:	6e696206 	cdpvs	2, 6, cr6, cr9, cr6, {0}
     c14:	00797261 	rsbseq	r7, r9, r1, ror #4
     c18:	4816      	ldr	r0, [pc, #88]	; (c74 <u_divmod+0x10e>)
     c1a:	2102      	movs	r1, #2
     c1c:	6001      	str	r1, [r0, #0]
     c1e:	4770      	bx	lr
     c20:	00000000 	andeq	r0, r0, r0
     c24:	00000c08 	andeq	r0, r0, r8, lsl #24
     c28:	63656407 	cmnvs	r5, #117440512	; 0x7000000
     c2c:	6c616d69 	stclvs	13, cr6, [r1], #-420	; 0xfffffe5c
     c30:	4810      	ldr	r0, [pc, #64]	; (c74 <u_divmod+0x10e>)
     c32:	210a      	movs	r1, #10
     c34:	6001      	str	r1, [r0, #0]
     c36:	4770      	bx	lr
     c38:	00000000 	andeq	r0, r0, r0
     c3c:	00000c20 	andeq	r0, r0, r0, lsr #24
     c40:	78656803 	stmdavc	r5!, {r0, r1, fp, sp, lr}^
     c44:	480b      	ldr	r0, [pc, #44]	; (c74 <u_divmod+0x10e>)
     c46:	2110      	movs	r1, #16
     c48:	6001      	str	r1, [r0, #0]
     c4a:	4770      	bx	lr
     c4c:	20000300 	andcs	r0, r0, r0, lsl #6
     c50:	00004000 	andeq	r4, r0, r0
     c54:	400fd004 	andmi	sp, pc, r4
     c58:	400fd000 	andmi	sp, pc, r0
     c5c:	400fd008 	andmi	sp, pc, r8
     c60:	a4420001 	strbge	r0, [r2], #-1
     c64:	0000ffff 	strdeq	pc, [r0], -pc	; <UNPREDICTABLE>
     c68:	a4420002 	strbge	r0, [r2], #-2
     c6c:	00004000 	andeq	r4, r0, r0
     c70:	00040000 	andeq	r0, r4, r0
     c74:	20000010 	andcs	r0, r0, r0, lsl r0

00000c78 <uart_init>:
     c78:	b410      	push	{r4}
     c7a:	4c1a      	ldr	r4, [pc, #104]	; (ce4 <uart_init+0x6c>)
     c7c:	4620      	mov	r0, r4
     c7e:	6800      	ldr	r0, [r0, #0]
     c80:	f040 0101 	orr.w	r1, r0, #1
     c84:	4620      	mov	r0, r4
     c86:	3c10      	subs	r4, #16
     c88:	6001      	str	r1, [r0, #0]
     c8a:	4620      	mov	r0, r4
     c8c:	6800      	ldr	r0, [r0, #0]
     c8e:	f040 0101 	orr.w	r1, r0, #1
     c92:	4620      	mov	r0, r4
     c94:	4c14      	ldr	r4, [pc, #80]	; (ce8 <uart_init+0x70>)
     c96:	6001      	str	r1, [r0, #0]
     c98:	4620      	mov	r0, r4
     c9a:	6800      	ldr	r0, [r0, #0]
     c9c:	f040 0103 	orr.w	r1, r0, #3
     ca0:	4620      	mov	r0, r4
     ca2:	34fc      	adds	r4, #252	; 0xfc
     ca4:	6001      	str	r1, [r0, #0]
     ca6:	4620      	mov	r0, r4
     ca8:	6800      	ldr	r0, [r0, #0]
     caa:	f040 0103 	orr.w	r1, r0, #3
     cae:	4620      	mov	r0, r4
     cb0:	4c0e      	ldr	r4, [pc, #56]	; (cec <uart_init+0x74>)
     cb2:	6001      	str	r1, [r0, #0]
     cb4:	4620      	mov	r0, r4
     cb6:	2100      	movs	r1, #0
     cb8:	6001      	str	r1, [r0, #0]
     cba:	2108      	movs	r1, #8
     cbc:	480c      	ldr	r0, [pc, #48]	; (cf0 <uart_init+0x78>)
     cbe:	6001      	str	r1, [r0, #0]
     cc0:	212c      	movs	r1, #44	; 0x2c
     cc2:	480c      	ldr	r0, [pc, #48]	; (cf4 <uart_init+0x7c>)
     cc4:	6001      	str	r1, [r0, #0]
     cc6:	2160      	movs	r1, #96	; 0x60
     cc8:	480b      	ldr	r0, [pc, #44]	; (cf8 <uart_init+0x80>)
     cca:	6001      	str	r1, [r0, #0]
     ccc:	2105      	movs	r1, #5
     cce:	480b      	ldr	r0, [pc, #44]	; (cfc <uart_init+0x84>)
     cd0:	6001      	str	r1, [r0, #0]
     cd2:	2100      	movs	r1, #0
     cd4:	480a      	ldr	r0, [pc, #40]	; (d00 <uart_init+0x88>)
     cd6:	6001      	str	r1, [r0, #0]
     cd8:	4620      	mov	r0, r4
     cda:	f240 3101 	movw	r1, #769	; 0x301
     cde:	6001      	str	r1, [r0, #0]
     ce0:	bc10      	pop	{r4}
     ce2:	4770      	bx	lr
     ce4:	400fe618 	andmi	lr, pc, r8, lsl r6	; <UNPREDICTABLE>
     ce8:	40004420 	andmi	r4, r0, r0, lsr #8
     cec:	4000c030 	andmi	ip, r0, r0, lsr r0
     cf0:	4000c024 	andmi	ip, r0, r4, lsr #32
     cf4:	4000c028 	andmi	ip, r0, r8, lsr #32
     cf8:	4000c02c 	andmi	ip, r0, ip, lsr #32
     cfc:	4000cfc8 	andmi	ip, r0, r8, asr #31
     d00:	4000c018 	andmi	ip, r0, r8, lsl r0
     d04:	00000000 	andeq	r0, r0, r0
     d08:	00000c38 	andeq	r0, r0, r8, lsr ip
     d0c:	696d6504 	stmdbvs	sp!, {r2, r8, sl, sp, lr}^
     d10:	b4070074 	strlt	r0, [r7], #-116	; 0x74

00000d12 <emit>:
     d12:	b407      	push	{r0, r1, r2}
     d14:	f24c 0118 	movw	r1, #49176	; 0xc018
     d18:	f2c4 0100 	movt	r1, #16384	; 0x4000
     d1c:	6809      	ldr	r1, [r1, #0]
     d1e:	060a      	lsls	r2, r1, #24
     d20:	d5f8      	bpl.n	d14 <emit+0x2>
     d22:	f24c 0100 	movw	r1, #49152	; 0xc000
     d26:	f2c4 0100 	movt	r1, #16384	; 0x4000
     d2a:	4630      	mov	r0, r6
     d2c:	cf40      	ldmia	r7!, {r6}
     d2e:	6008      	str	r0, [r1, #0]
     d30:	bc07      	pop	{r0, r1, r2}
     d32:	4770      	bx	lr
     d34:	00000000 	andeq	r0, r0, r0
     d38:	00000d04 	andeq	r0, r0, r4, lsl #26
     d3c:	79656b03 	stmdbvc	r5!, {r0, r1, r8, r9, fp, sp, lr}^

00000d40 <key>:
     d40:	b403      	push	{r0, r1}
     d42:	f24c 0018 	movw	r0, #49176	; 0xc018
     d46:	f2c4 0000 	movt	r0, #16384	; 0x4000
     d4a:	6800      	ldr	r0, [r0, #0]
     d4c:	0641      	lsls	r1, r0, #25
     d4e:	d5f8      	bpl.n	d42 <key+0x2>
     d50:	f24c 0000 	movw	r0, #49152	; 0xc000
     d54:	f2c4 0000 	movt	r0, #16384	; 0x4000
     d58:	6800      	ldr	r0, [r0, #0]
     d5a:	b2c0      	uxtb	r0, r0
     d5c:	f847 6d04 	str.w	r6, [r7, #-4]!
     d60:	4606      	mov	r6, r0
     d62:	bc03      	pop	{r0, r1}
     d64:	4770      	bx	lr
     d66:	00000000 	andeq	r0, r0, r0
     d6a:	00000d34 	andeq	r0, r0, r4, lsr sp
     d6e:	656b3f04 	strbvs	r3, [fp, #-3844]!	; 0xf04
     d72:	f24c0079 	vqadd.s8	q8, q6, <illegal reg q12.5>
     d76:	0018      	movs	r0, r3
     d78:	f2c4 0000 	movt	r0, #16384	; 0x4000
     d7c:	6800      	ldr	r0, [r0, #0]
     d7e:	0641      	lsls	r1, r0, #25
     d80:	d504      	bpl.n	d8c <key+0x4c>
     d82:	f847 6d04 	str.w	r6, [r7, #-4]!
     d86:	f04f 36ff 	mov.w	r6, #4294967295
     d8a:	4770      	bx	lr
     d8c:	f847 6d04 	str.w	r6, [r7, #-4]!
     d90:	f04f 0600 	mov.w	r6, #0
     d94:	4770      	bx	lr
     d96:	00000000 	andeq	r0, r0, r0
     d9a:	00000d66 	andeq	r0, r0, r6, ror #26
     d9e:	65757105 	ldrbvs	r7, [r5, #-261]!	; 0x105
     da2:	b51f7972 	ldrlt	r7, [pc, #-2418]	; 438 <nullhandler+0x1cc>

00000da4 <query>:
     da4:	b51f      	push	{r0, r1, r2, r3, r4, lr}
     da6:	f8df 0498 	ldr.w	r0, [pc, #1176]	; 1240 <words+0xde>
     daa:	2100      	movs	r1, #0
     dac:	7001      	strb	r1, [r0, #0]
     dae:	f8df 1494 	ldr.w	r1, [pc, #1172]	; 1244 <words+0xe2>
     db2:	f04f 0200 	mov.w	r2, #0
     db6:	f7ff ffc3 	bl	d40 <key>
     dba:	4630      	mov	r0, r6
     dbc:	cf40      	ldmia	r7!, {r6}
     dbe:	2820      	cmp	r0, #32
     dc0:	d224      	bcs.n	e0c <query+0x68>
     dc2:	280a      	cmp	r0, #10
     dc4:	d02f      	beq.n	e26 <query+0x82>
     dc6:	2808      	cmp	r0, #8
     dc8:	d1f5      	bne.n	db6 <query+0x12>
     dca:	2a00      	cmp	r2, #0
     dcc:	d0f3      	beq.n	db6 <query+0x12>
     dce:	2008      	movs	r0, #8
     dd0:	f847 6d04 	str.w	r6, [r7, #-4]!
     dd4:	4606      	mov	r6, r0
     dd6:	f7ff ff9c 	bl	d12 <emit>
     dda:	2020      	movs	r0, #32
     ddc:	f847 6d04 	str.w	r6, [r7, #-4]!
     de0:	4606      	mov	r6, r0
     de2:	f7ff ff96 	bl	d12 <emit>
     de6:	2008      	movs	r0, #8
     de8:	f847 6d04 	str.w	r6, [r7, #-4]!
     dec:	4606      	mov	r6, r0
     dee:	f7ff ff90 	bl	d12 <emit>
     df2:	2a00      	cmp	r2, #0
     df4:	d0df      	beq.n	db6 <query+0x12>
     df6:	460b      	mov	r3, r1
     df8:	189b      	adds	r3, r3, r2
     dfa:	781c      	ldrb	r4, [r3, #0]
     dfc:	3a01      	subs	r2, #1
     dfe:	f014 0f80 	tst.w	r4, #128	; 0x80
     e02:	d0d8      	beq.n	db6 <query+0x12>
     e04:	f014 0f40 	tst.w	r4, #64	; 0x40
     e08:	d0f3      	beq.n	df2 <query+0x4e>
     e0a:	e7d4      	b.n	db6 <query+0x12>
     e0c:	f1b2 0ffa 	cmp.w	r2, #250	; 0xfa
     e10:	d2d1      	bcs.n	db6 <query+0x12>
     e12:	f847 6d04 	str.w	r6, [r7, #-4]!
     e16:	4606      	mov	r6, r0
     e18:	f7ff ff7b 	bl	d12 <emit>
     e1c:	3201      	adds	r2, #1
     e1e:	460b      	mov	r3, r1
     e20:	189b      	adds	r3, r3, r2
     e22:	7018      	strb	r0, [r3, #0]
     e24:	e7c7      	b.n	db6 <query+0x12>
     e26:	2020      	movs	r0, #32
     e28:	f847 6d04 	str.w	r6, [r7, #-4]!
     e2c:	4606      	mov	r6, r0
     e2e:	f7ff ff70 	bl	d12 <emit>
     e32:	700a      	strb	r2, [r1, #0]
     e34:	bd1f      	pop	{r0, r1, r2, r3, r4, pc}
     e36:	00000000 	andeq	r0, r0, r0
     e3a:	00000d96 	muleq	r0, r6, sp
     e3e:	6d6f6307 	stclvs	3, cr6, [pc, #-28]!	; e28 <query+0x84>
     e42:	65726170 	ldrbvs	r6, [r2, #-368]!	; 0x170

00000e46 <compare>:
     e46:	b41f      	push	{r0, r1, r2, r3, r4}
     e48:	4630      	mov	r0, r6
     e4a:	cf40      	ldmia	r7!, {r6}
     e4c:	4631      	mov	r1, r6
     e4e:	cf40      	ldmia	r7!, {r6}
     e50:	7802      	ldrb	r2, [r0, #0]
     e52:	780b      	ldrb	r3, [r1, #0]
     e54:	429a      	cmp	r2, r3
     e56:	d119      	bne.n	e8c <compare+0x46>
     e58:	3001      	adds	r0, #1
     e5a:	3101      	adds	r1, #1
     e5c:	7803      	ldrb	r3, [r0, #0]
     e5e:	780c      	ldrb	r4, [r1, #0]
     e60:	2b41      	cmp	r3, #65	; 0x41
     e62:	d302      	bcc.n	e6a <compare+0x24>
     e64:	2b5b      	cmp	r3, #91	; 0x5b
     e66:	bf38      	it	cc
     e68:	3320      	addcc	r3, #32
     e6a:	2c41      	cmp	r4, #65	; 0x41
     e6c:	d302      	bcc.n	e74 <compare+0x2e>
     e6e:	2c5b      	cmp	r4, #91	; 0x5b
     e70:	bf38      	it	cc
     e72:	3420      	addcc	r4, #32
     e74:	42a3      	cmp	r3, r4
     e76:	d109      	bne.n	e8c <compare+0x46>
     e78:	3a01      	subs	r2, #1
     e7a:	2a00      	cmp	r2, #0
     e7c:	d1ec      	bne.n	e58 <compare+0x12>
     e7e:	f05f 30ff 	movs.w	r0, #4294967295
     e82:	f847 6d04 	str.w	r6, [r7, #-4]!
     e86:	4606      	mov	r6, r0
     e88:	bc1f      	pop	{r0, r1, r2, r3, r4}
     e8a:	4770      	bx	lr
     e8c:	f04f 0000 	mov.w	r0, #0
     e90:	f847 6d04 	str.w	r6, [r7, #-4]!
     e94:	4606      	mov	r6, r0
     e96:	bc1f      	pop	{r0, r1, r2, r3, r4}
     e98:	4770      	bx	lr
     e9a:	00000000 	andeq	r0, r0, r0
     e9e:	00000e36 	andeq	r0, r0, r6, lsr lr
     ea2:	00726302 	rsbseq	r6, r2, r2, lsl #6
     ea6:	f847 6d04 	str.w	r6, [r7, #-4]!
     eaa:	260a      	movs	r6, #10
     eac:	f7ff bf31 	b.w	d12 <emit>
     eb0:	00000000 	andeq	r0, r0, r0
     eb4:	00000e9a 	muleq	r0, sl, lr
     eb8:	006c6202 	rsbeq	r6, ip, r2, lsl #4
     ebc:	f847 6d04 	str.w	r6, [r7, #-4]!
     ec0:	2620      	movs	r6, #32
     ec2:	4770      	bx	lr
     ec4:	00000000 	andeq	r0, r0, r0
     ec8:	00000eb0 			; <UNDEFINED> instruction: 0x00000eb0
     ecc:	61707305 	cmnvs	r0, r5, lsl #6
     ed0:	f8476563 			; <UNDEFINED> instruction: 0xf8476563
     ed4:	6d04      	ldr	r4, [r0, #80]	; 0x50
     ed6:	2620      	movs	r6, #32
     ed8:	f7ff bf1b 	b.w	d12 <emit>
     edc:	00000050 	andeq	r0, r0, r0, asr r0
     ee0:	00000ec4 	andeq	r0, r0, r4, asr #29
     ee4:	68635b06 	stmdavs	r3!, {r1, r2, r8, r9, fp, ip, lr}^
     ee8:	005d7261 	subseq	r7, sp, r1, ror #4
     eec:	f000 b807 	b.w	efe <holechar>
     ef0:	00000000 	andeq	r0, r0, r0
     ef4:	00000edc 	ldrdeq	r0, [r0], -ip
     ef8:	61686304 	cmnvs	r8, r4, lsl #6
     efc:	b5000072 	strlt	r0, [r0, #-114]	; 0x72

00000efe <holechar>:
     efe:	b500      	push	{lr}
     f00:	f001 fa53 	bl	23aa <token>
     f04:	3601      	adds	r6, #1
     f06:	7836      	ldrb	r6, [r6, #0]
     f08:	bd00      	pop	{pc}
     f0a:	00000050 	andeq	r0, r0, r0, asr r0
     f0e:	00000ef0 	strdeq	r0, [r0], -r0	; <UNPREDICTABLE>
     f12:	b5002801 	strlt	r2, [r0, #-2049]	; 0x801
     f16:	f847 6d04 	str.w	r6, [r7, #-4]!
     f1a:	2629      	movs	r6, #41	; 0x29
     f1c:	f001 fa52 	bl	23c4 <parse>
     f20:	cf40      	ldmia	r7!, {r6}
     f22:	bd00      	pop	{pc}
     f24:	00000050 	andeq	r0, r0, r0, asr r0
     f28:	00000f0a 	andeq	r0, r0, sl, lsl #30
     f2c:	b5005c01 	strlt	r5, [r0, #-3073]	; 0xc01
     f30:	f847 6d04 	str.w	r6, [r7, #-4]!
     f34:	2600      	movs	r6, #0
     f36:	f001 fa45 	bl	23c4 <parse>
     f3a:	cf40      	ldmia	r7!, {r6}
     f3c:	bd00      	pop	{pc}
     f3e:	00000010 	andeq	r0, r0, r0, lsl r0
     f42:	00000f24 	andeq	r0, r0, r4, lsr #30
     f46:	00222e02 	eoreq	r2, r2, r2, lsl #28
     f4a:	b500      	push	{lr}
     f4c:	48be      	ldr	r0, [pc, #760]	; (1248 <words+0xe6>)
     f4e:	f847 6d04 	str.w	r6, [r7, #-4]!
     f52:	4606      	mov	r6, r0
     f54:	f000 fa87 	bl	1466 <callkomma>
     f58:	f847 6d04 	str.w	r6, [r7, #-4]!
     f5c:	2622      	movs	r6, #34	; 0x22
     f5e:	f001 fa31 	bl	23c4 <parse>
     f62:	f000 fd69 	bl	1a38 <stringkomma>
     f66:	bd00      	pop	{pc}
     f68:	00000010 	andeq	r0, r0, r0, lsl r0
     f6c:	00000f3e 	andeq	r0, r0, lr, lsr pc
     f70:	00227302 	eoreq	r7, r2, r2, lsl #6
     f74:	b500      	push	{lr}
     f76:	48b5      	ldr	r0, [pc, #724]	; (124c <words+0xea>)
     f78:	f847 6d04 	str.w	r6, [r7, #-4]!
     f7c:	4606      	mov	r6, r0
     f7e:	f000 fa72 	bl	1466 <callkomma>
     f82:	f847 6d04 	str.w	r6, [r7, #-4]!
     f86:	2622      	movs	r6, #34	; 0x22
     f88:	f001 fa1c 	bl	23c4 <parse>
     f8c:	f000 fd54 	bl	1a38 <stringkomma>
     f90:	bd00      	pop	{pc}

00000f92 <dotgaensefuesschen>:
     f92:	b41c      	push	{r2, r3, r4}
     f94:	4672      	mov	r2, lr
     f96:	3a01      	subs	r2, #1
     f98:	f847 6d04 	str.w	r6, [r7, #-4]!
     f9c:	4616      	mov	r6, r2
     f9e:	7813      	ldrb	r3, [r2, #0]
     fa0:	3301      	adds	r3, #1
     fa2:	f013 0401 	ands.w	r4, r3, #1
     fa6:	191b      	adds	r3, r3, r4
     fa8:	eb1e 0e03 	adds.w	lr, lr, r3
     fac:	bc1c      	pop	{r2, r3, r4}
     fae:	f000 b816 	b.w	fde <type>

00000fb2 <dotfuesschen>:
     fb2:	b41c      	push	{r2, r3, r4}
     fb4:	4672      	mov	r2, lr
     fb6:	3a01      	subs	r2, #1
     fb8:	f847 6d04 	str.w	r6, [r7, #-4]!
     fbc:	4616      	mov	r6, r2
     fbe:	7813      	ldrb	r3, [r2, #0]
     fc0:	3301      	adds	r3, #1
     fc2:	f013 0401 	ands.w	r4, r3, #1
     fc6:	191b      	adds	r3, r3, r4
     fc8:	eb1e 0e03 	adds.w	lr, lr, r3
     fcc:	bc1c      	pop	{r2, r3, r4}
     fce:	4770      	bx	lr
     fd0:	00000000 	andeq	r0, r0, r0
     fd4:	00000f68 	andeq	r0, r0, r8, ror #30
     fd8:	70797404 	rsbsvc	r7, r9, r4, lsl #8
     fdc:	b50b0065 	strlt	r0, [fp, #-101]	; 0x65

00000fde <type>:
     fde:	b50b      	push	{r0, r1, r3, lr}
     fe0:	4630      	mov	r0, r6
     fe2:	cf40      	ldmia	r7!, {r6}
     fe4:	4603      	mov	r3, r0
     fe6:	7819      	ldrb	r1, [r3, #0]
     fe8:	2900      	cmp	r1, #0
     fea:	d008      	beq.n	ffe <type+0x20>
     fec:	3301      	adds	r3, #1
     fee:	7818      	ldrb	r0, [r3, #0]
     ff0:	f847 6d04 	str.w	r6, [r7, #-4]!
     ff4:	4606      	mov	r6, r0
     ff6:	f7ff fe8c 	bl	d12 <emit>
     ffa:	3901      	subs	r1, #1
     ffc:	d1f6      	bne.n	fec <type+0xe>
     ffe:	bd0b      	pop	{r0, r1, r3, pc}
    1000:	00000000 	andeq	r0, r0, r0
    1004:	00000fd0 	ldrdeq	r0, [r0], -r0	; <UNPREDICTABLE>
    1008:	78656804 	stmdavc	r5!, {r2, fp, sp, lr}^
    100c:	b53f002e 	ldrlt	r0, [pc, #-46]!	; fe6 <type+0x8>

0000100e <hexdot>:
    100e:	b53f      	push	{r0, r1, r2, r3, r4, r5, lr}
    1010:	4630      	mov	r0, r6
    1012:	cf40      	ldmia	r7!, {r6}
    1014:	4605      	mov	r5, r0
    1016:	2420      	movs	r4, #32
    1018:	3c04      	subs	r4, #4
    101a:	fa25 f304 	lsr.w	r3, r5, r4
    101e:	f003 010f 	and.w	r1, r3, #15
    1022:	2909      	cmp	r1, #9
    1024:	bf8c      	ite	hi
    1026:	f101 0037 	addhi.w	r0, r1, #55	; 0x37
    102a:	f101 0030 	addls.w	r0, r1, #48	; 0x30
    102e:	f847 6d04 	str.w	r6, [r7, #-4]!
    1032:	4606      	mov	r6, r0
    1034:	f7ff fe6d 	bl	d12 <emit>
    1038:	2c00      	cmp	r4, #0
    103a:	d1ed      	bne.n	1018 <hexdot+0xa>
    103c:	2020      	movs	r0, #32
    103e:	f847 6d04 	str.w	r6, [r7, #-4]!
    1042:	4606      	mov	r6, r0
    1044:	e8bd 403f 	ldmia.w	sp!, {r0, r1, r2, r3, r4, r5, lr}
    1048:	f7ff be63 	b.w	d12 <emit>
    104c:	00000000 	andeq	r0, r0, r0
    1050:	00001000 	andeq	r1, r0, r0
    1054:	00732e02 	rsbseq	r2, r3, r2, lsl #28

00001058 <dots>:
    1058:	b50f      	push	{r0, r1, r2, r3, lr}
    105a:	b500      	push	{lr}
    105c:	f7ff ff99 	bl	f92 <dotgaensefuesschen>
    1060:	61745308 	cmnvs	r4, r8, lsl #6
    1064:	203a6b63 	eorscs	r6, sl, r3, ror #22
    1068:	f85d005b 			; <UNDEFINED> instruction: 0xf85d005b
    106c:	eb04 4978 	add.w	r9, r4, r8, ror #17
    1070:	1bc9      	subs	r1, r1, r7
    1072:	4608      	mov	r0, r1
    1074:	f847 6d04 	str.w	r6, [r7, #-4]!
    1078:	4606      	mov	r6, r0
    107a:	f7ff ffc8 	bl	100e <hexdot>
    107e:	b500      	push	{lr}
    1080:	f7ff ff87 	bl	f92 <dotgaensefuesschen>
    1084:	34202f06 	strtcc	r2, [r0], #-3846	; 0xf06
    1088:	00203d20 	eoreq	r3, r0, r0, lsr #26
    108c:	f85d eb04 	ldr.w	lr, [sp], #4
    1090:	0889      	lsrs	r1, r1, #2
    1092:	4608      	mov	r0, r1
    1094:	f847 6d04 	str.w	r6, [r7, #-4]!
    1098:	4606      	mov	r6, r0
    109a:	f7ff ffb8 	bl	100e <hexdot>
    109e:	b500      	push	{lr}
    10a0:	f7ff ff77 	bl	f92 <dotgaensefuesschen>
    10a4:	00205d02 	eoreq	r5, r0, r2, lsl #26
    10a8:	f85d eb04 	ldr.w	lr, [sp], #4
    10ac:	2900      	cmp	r1, #0
    10ae:	d009      	beq.n	10c4 <dots+0x6c>
    10b0:	4a68      	ldr	r2, [pc, #416]	; (1254 <words+0xf2>)
    10b2:	6810      	ldr	r0, [r2, #0]
    10b4:	f847 6d04 	str.w	r6, [r7, #-4]!
    10b8:	4606      	mov	r6, r0
    10ba:	f7ff ffa8 	bl	100e <hexdot>
    10be:	3a04      	subs	r2, #4
    10c0:	3901      	subs	r1, #1
    10c2:	d1f6      	bne.n	10b2 <dots+0x5a>
    10c4:	b500      	push	{lr}
    10c6:	f7ff ff64 	bl	f92 <dotgaensefuesschen>
    10ca:	4f542006 	svcmi	0x00542006
    10ce:	00203a53 	eoreq	r3, r0, r3, asr sl
    10d2:	f85d eb04 	ldr.w	lr, [sp], #4
    10d6:	f847 6d04 	str.w	r6, [r7, #-4]!
    10da:	4636      	mov	r6, r6
    10dc:	f7ff ff97 	bl	100e <hexdot>
    10e0:	b500      	push	{lr}
    10e2:	f7ff ff56 	bl	f92 <dotgaensefuesschen>
    10e6:	0a3e2003 	beq	f890fa <FlashDictionaryEnde+0xf490fa>
    10ea:	f85d eb04 	ldr.w	lr, [sp], #4
    10ee:	bd0f      	pop	{r0, r1, r2, r3, pc}
    10f0:	00000000 	andeq	r0, r0, r0
    10f4:	0000104c 	andeq	r1, r0, ip, asr #32
    10f8:	6d756404 	cfldrdvs	mvd6, [r5, #-16]!
    10fc:	b5070070 	strlt	r0, [r7, #-112]	; 0x70

000010fe <dump>:
    10fe:	b507      	push	{r0, r1, r2, lr}
    1100:	4630      	mov	r0, r6
    1102:	cf40      	ldmia	r7!, {r6}
    1104:	f04f 0120 	mov.w	r1, #32
    1108:	b500      	push	{lr}
    110a:	f7ff ff42 	bl	f92 <dotgaensefuesschen>
    110e:	75642007 	strbvc	r2, [r4, #-7]!
    1112:	0a3e706d 	beq	f9d2ce <FlashDictionaryEnde+0xf5d2ce>
    1116:	f85d eb04 	ldr.w	lr, [sp], #4
    111a:	f847 6d04 	str.w	r6, [r7, #-4]!
    111e:	4606      	mov	r6, r0
    1120:	f7ff ff75 	bl	100e <hexdot>
    1124:	b500      	push	{lr}
    1126:	f7ff ff34 	bl	f92 <dotgaensefuesschen>
    112a:	00203a02 	eoreq	r3, r0, r2, lsl #20
    112e:	f85d eb04 	ldr.w	lr, [sp], #4
    1132:	8802      	ldrh	r2, [r0, #0]
    1134:	f847 6d04 	str.w	r6, [r7, #-4]!
    1138:	4616      	mov	r6, r2
    113a:	f7ff ff68 	bl	100e <hexdot>
    113e:	b500      	push	{lr}
    1140:	f7ff ff27 	bl	f92 <dotgaensefuesschen>
    1144:	0a3e2003 	beq	f89158 <FlashDictionaryEnde+0xf49158>
    1148:	f85d eb04 	ldr.w	lr, [sp], #4
    114c:	3002      	adds	r0, #2
    114e:	3901      	subs	r1, #1
    1150:	d1e3      	bne.n	111a <dump+0x1c>
    1152:	bd07      	pop	{r0, r1, r2, pc}
    1154:	00000000 	andeq	r0, r0, r0
    1158:	000010f0 	strdeq	r1, [r0], -r0
    115c:	726f7705 	rsbvc	r7, pc, #1310720	; 0x140000
    1160:	b51f7364 	ldrlt	r7, [pc, #-868]	; e04 <query+0x60>

00001162 <words>:
    1162:	b51f      	push	{r0, r1, r2, r3, r4, lr}
    1164:	b500      	push	{lr}
    1166:	f7ff ff14 	bl	f92 <dotgaensefuesschen>
    116a:	726f7706 	rsbvc	r7, pc, #1572864	; 0x180000
    116e:	000a7364 	andeq	r7, sl, r4, ror #6
    1172:	f85d eb04 	ldr.w	lr, [sp], #4
    1176:	f000 fd93 	bl	1ca0 <dictionarystart>
    117a:	4630      	mov	r0, r6
    117c:	cf40      	ldmia	r7!, {r6}
    117e:	3008      	adds	r0, #8
    1180:	7801      	ldrb	r1, [r0, #0]
    1182:	29ff      	cmp	r1, #255	; 0xff
    1184:	d05b      	beq.n	123e <words+0xdc>
    1186:	3808      	subs	r0, #8
    1188:	b500      	push	{lr}
    118a:	f7ff ff02 	bl	f92 <dotgaensefuesschen>
    118e:	64644109 	strbtvs	r4, [r4], #-265	; 0x109
    1192:	73736572 	cmnvc	r3, #478150656	; 0x1c800000
    1196:	f85d203a 			; <UNDEFINED> instruction: 0xf85d203a
    119a:	eb04 f847 			; <UNDEFINED> instruction: 0xeb04f847
    119e:	6d04      	ldr	r4, [r0, #80]	; 0x50
    11a0:	4606      	mov	r6, r0
    11a2:	f7ff ff34 	bl	100e <hexdot>
    11a6:	6801      	ldr	r1, [r0, #0]
    11a8:	3004      	adds	r0, #4
    11aa:	b500      	push	{lr}
    11ac:	f7ff fef1 	bl	f92 <dotgaensefuesschen>
    11b0:	616c4607 	cmnvs	ip, r7, lsl #12
    11b4:	203a7367 	eorscs	r7, sl, r7, ror #6
    11b8:	f85d eb04 	ldr.w	lr, [sp], #4
    11bc:	f847 6d04 	str.w	r6, [r7, #-4]!
    11c0:	460e      	mov	r6, r1
    11c2:	f7ff ff24 	bl	100e <hexdot>
    11c6:	b500      	push	{lr}
    11c8:	f7ff fee3 	bl	f92 <dotgaensefuesschen>
    11cc:	6e694c06 	cdpvs	12, 6, cr4, cr9, cr6, {0}
    11d0:	00203a6b 	eoreq	r3, r0, fp, ror #20
    11d4:	f85d eb04 	ldr.w	lr, [sp], #4
    11d8:	6802      	ldr	r2, [r0, #0]
    11da:	3004      	adds	r0, #4
    11dc:	f847 6d04 	str.w	r6, [r7, #-4]!
    11e0:	4616      	mov	r6, r2
    11e2:	f7ff ff14 	bl	100e <hexdot>
    11e6:	f847 6d04 	str.w	r6, [r7, #-4]!
    11ea:	4606      	mov	r6, r0
    11ec:	7803      	ldrb	r3, [r0, #0]
    11ee:	3301      	adds	r3, #1
    11f0:	f013 0401 	ands.w	r4, r3, #1
    11f4:	191b      	adds	r3, r3, r4
    11f6:	18c0      	adds	r0, r0, r3
    11f8:	b500      	push	{lr}
    11fa:	f7ff feca 	bl	f92 <dotgaensefuesschen>
    11fe:	646f4306 	strbtvs	r4, [pc], #-774	; 1206 <words+0xa4>
    1202:	00203a65 	eoreq	r3, r0, r5, ror #20
    1206:	f85d eb04 	ldr.w	lr, [sp], #4
    120a:	f847 6d04 	str.w	r6, [r7, #-4]!
    120e:	4606      	mov	r6, r0
    1210:	f7ff fefd 	bl	100e <hexdot>
    1214:	b500      	push	{lr}
    1216:	f7ff febc 	bl	f92 <dotgaensefuesschen>
    121a:	6d614e06 	stclvs	14, cr4, [r1, #-24]!	; 0xffffffe8
    121e:	00203a65 	eoreq	r3, r0, r5, ror #20
    1222:	f85d eb04 	ldr.w	lr, [sp], #4
    1226:	f7ff feda 	bl	fde <type>
    122a:	f847 6d04 	str.w	r6, [r7, #-4]!
    122e:	260a      	movs	r6, #10
    1230:	f7ff fd6f 	bl	d12 <emit>
    1234:	f1b2 3fff 	cmp.w	r2, #4294967295
    1238:	d001      	beq.n	123e <words+0xdc>
    123a:	4610      	mov	r0, r2
    123c:	e79f      	b.n	117e <words+0x1c>
    123e:	bd1f      	pop	{r0, r1, r2, r3, r4, pc}
    1240:	20000000 	andcs	r0, r0, r0
    1244:	20000100 	andcs	r0, r0, r0, lsl #2
    1248:	00000f92 	muleq	r0, r2, pc	; <UNPREDICTABLE>
    124c:	00000fb2 			; <UNDEFINED> instruction: 0x00000fb2
    1250:	20000300 	andcs	r0, r0, r0, lsl #6
    1254:	200002fc 	strdcs	r0, [r0], -ip
    1258:	00000000 	andeq	r0, r0, r0
    125c:	00001154 	andeq	r1, r0, r4, asr r1
    1260:	72656804 	rsbvc	r6, r5, #262144	; 0x40000
    1264:	f8df0065 			; <UNDEFINED> instruction: 0xf8df0065

00001266 <here>:
    1266:	f8df 0adc 	ldr.w	r0, [pc, #2780]	; 1d44 <find+0x6a>
    126a:	6801      	ldr	r1, [r0, #0]
    126c:	f847 6d04 	str.w	r6, [r7, #-4]!
    1270:	460e      	mov	r6, r1
    1272:	4770      	bx	lr
    1274:	00000050 	andeq	r0, r0, r0, asr r0
    1278:	00001258 	andeq	r1, r0, r8, asr r2
    127c:	5d275b03 	fstmdbxpl	r7!, {d5}	;@ Deprecated
    1280:	f000 b805 	b.w	128e <tick>
    1284:	00000000 	andeq	r0, r0, r0
    1288:	00001274 	andeq	r1, r0, r4, ror r2
    128c:	b5002701 	strlt	r2, [r0, #-1793]	; 0x701

0000128e <tick>:
    128e:	b500      	push	{lr}
    1290:	f001 f88b 	bl	23aa <token>
    1294:	4630      	mov	r0, r6
    1296:	cf40      	ldmia	r7!, {r6}
    1298:	7801      	ldrb	r1, [r0, #0]
    129a:	2900      	cmp	r1, #0
    129c:	d10f      	bne.n	12be <tick+0x30>
    129e:	b500      	push	{lr}
    12a0:	f7ff fe77 	bl	f92 <dotgaensefuesschen>
    12a4:	20272010 	eorcs	r2, r7, r0, lsl r0
    12a8:	6465656e 	strbtvs	r6, [r5], #-1390	; 0x56e
    12ac:	616e2073 	smcvs	57859	; 0xe203
    12b0:	2120656d 	teqcs	r0, sp, ror #10
    12b4:	f85d000a 			; <UNDEFINED> instruction: 0xf85d000a
    12b8:	eb04 f001 			; <UNDEFINED> instruction: 0xeb04f001
    12bc:	ba9b      			; <UNDEFINED> instruction: 0xba9b
    12be:	f847 6d04 	str.w	r6, [r7, #-4]!
    12c2:	4606      	mov	r6, r0
    12c4:	f000 fd09 	bl	1cda <find>
    12c8:	cf40      	ldmia	r7!, {r6}
    12ca:	2e00      	cmp	r6, #0
    12cc:	d114      	bne.n	12f8 <nicht_gefunden+0x2a>

000012ce <nicht_gefunden>:
    12ce:	f8df 0a78 	ldr.w	r0, [pc, #2680]	; 1d48 <find+0x6e>
    12d2:	f847 6d04 	str.w	r6, [r7, #-4]!
    12d6:	4606      	mov	r6, r0
    12d8:	f7ff fe81 	bl	fde <type>
    12dc:	b500      	push	{lr}
    12de:	f7ff fe58 	bl	f92 <dotgaensefuesschen>
    12e2:	6f6e200c 	svcvs	0x006e200c
    12e6:	6f662074 	svcvs	0x00662074
    12ea:	2e646e75 	mcrcs	14, 3, r6, cr4, cr5, {3}
    12ee:	f85d000a 			; <UNDEFINED> instruction: 0xf85d000a
    12f2:	eb04 f001 			; <UNDEFINED> instruction: 0xeb04f001
    12f6:	ba7e      	rev16	r6, r7
    12f8:	bd00      	pop	{pc}
    12fa:	00000010 	andeq	r0, r0, r0, lsl r0
    12fe:	00001284 	andeq	r1, r0, r4, lsl #5
    1302:	736f7008 	cmnvc	pc, #8
    1306:	6e6f7074 	mcrvs	0, 3, r7, cr15, cr4, {3}
    130a:	b5000065 	strlt	r0, [r0, #-101]	; 0x65
    130e:	f001 f84c 	bl	23aa <token>
    1312:	f000 fce2 	bl	1cda <find>
    1316:	4630      	mov	r0, r6
    1318:	cf40      	ldmia	r7!, {r6}
    131a:	2e00      	cmp	r6, #0
    131c:	d101      	bne.n	1322 <nicht_gefunden+0x54>
    131e:	f7ff bfd6 	b.w	12ce <nicht_gefunden>
    1322:	f000 0110 	and.w	r1, r0, #16
    1326:	2910      	cmp	r1, #16
    1328:	d102      	bne.n	1330 <nicht_gefunden+0x62>
    132a:	f000 f89c 	bl	1466 <callkomma>
    132e:	bd00      	pop	{pc}
    1330:	f000 0120 	and.w	r1, r0, #32
    1334:	2920      	cmp	r1, #32
    1336:	d109      	bne.n	134c <nicht_gefunden+0x7e>
    1338:	f000 f8da 	bl	14f0 <literalkomma>
    133c:	f241 4192 	movw	r1, #5266	; 0x1492
    1340:	f847 6d04 	str.w	r6, [r7, #-4]!
    1344:	460e      	mov	r6, r1
    1346:	f000 f88e 	bl	1466 <callkomma>
    134a:	bd00      	pop	{pc}
    134c:	f000 f8d0 	bl	14f0 <literalkomma>
    1350:	f241 4166 	movw	r1, #5222	; 0x1466
    1354:	f847 6d04 	str.w	r6, [r7, #-4]!
    1358:	460e      	mov	r6, r1
    135a:	f000 f884 	bl	1466 <callkomma>
    135e:	bd00      	pop	{pc}

00001360 <movwkomma>:
    1360:	f8df 39e8 	ldr.w	r3, [pc, #2536]	; 1d4c <find+0x72>
    1364:	f8df 19e8 	ldr.w	r1, [pc, #2536]	; 1d50 <find+0x76>
    1368:	ea00 0201 	and.w	r2, r0, r1
    136c:	ea4f 1202 	mov.w	r2, r2, lsl #4
    1370:	ea43 0302 	orr.w	r3, r3, r2
    1374:	f8df 19dc 	ldr.w	r1, [pc, #2524]	; 1d54 <find+0x7a>
    1378:	ea00 0201 	and.w	r2, r0, r1
    137c:	ea4f 32c2 	mov.w	r2, r2, lsl #15
    1380:	ea43 0302 	orr.w	r3, r3, r2
    1384:	f8df 19d0 	ldr.w	r1, [pc, #2512]	; 1d58 <find+0x7e>
    1388:	ea00 0201 	and.w	r2, r0, r1
    138c:	ea4f 1202 	mov.w	r2, r2, lsl #4
    1390:	ea43 0302 	orr.w	r3, r3, r2
    1394:	f8df 19c4 	ldr.w	r1, [pc, #2500]	; 1d5c <find+0x82>
    1398:	ea00 0201 	and.w	r2, r0, r1
    139c:	ea43 0302 	orr.w	r3, r3, r2
    13a0:	ea43 0304 	orr.w	r3, r3, r4
    13a4:	f847 6d04 	str.w	r6, [r7, #-4]!
    13a8:	461e      	mov	r6, r3
    13aa:	f000 bb1d 	b.w	19e8 <reversekomma>

000013ae <movtkomma>:
    13ae:	f8df 39b0 	ldr.w	r3, [pc, #2480]	; 1d60 <find+0x86>
    13b2:	f8df 19b0 	ldr.w	r1, [pc, #2480]	; 1d64 <find+0x8a>
    13b6:	ea00 0201 	and.w	r2, r0, r1
    13ba:	ea4f 3212 	mov.w	r2, r2, lsr #12
    13be:	ea43 0302 	orr.w	r3, r3, r2
    13c2:	f8df 19a4 	ldr.w	r1, [pc, #2468]	; 1d68 <find+0x8e>
    13c6:	ea00 0201 	and.w	r2, r0, r1
    13ca:	ea4f 0252 	mov.w	r2, r2, lsr #1
    13ce:	ea43 0302 	orr.w	r3, r3, r2
    13d2:	f8df 1998 	ldr.w	r1, [pc, #2456]	; 1d6c <find+0x92>
    13d6:	ea00 0201 	and.w	r2, r0, r1
    13da:	ea4f 3212 	mov.w	r2, r2, lsr #12
    13de:	ea43 0302 	orr.w	r3, r3, r2
    13e2:	f8df 198c 	ldr.w	r1, [pc, #2444]	; 1d70 <find+0x96>
    13e6:	ea00 0201 	and.w	r2, r0, r1
    13ea:	ea4f 4212 	mov.w	r2, r2, lsr #16
    13ee:	ea43 0302 	orr.w	r3, r3, r2
    13f2:	ea43 0304 	orr.w	r3, r3, r4
    13f6:	f847 6d04 	str.w	r6, [r7, #-4]!
    13fa:	461e      	mov	r6, r3
    13fc:	f000 baf4 	b.w	19e8 <reversekomma>
    1400:	00000000 	andeq	r0, r0, r0
    1404:	000012fa 	strdeq	r1, [r0], -sl
    1408:	766f6d09 	strbtvc	r6, [pc], -r9, lsl #26
    140c:	766f6d77 			; <UNDEFINED> instruction: 0x766f6d77
    1410:	b5002c74 	strlt	r2, [r0, #-3188]	; 0xc74

00001412 <movwmovtkomma>:
    1412:	b500      	push	{lr}
    1414:	4634      	mov	r4, r6
    1416:	cf40      	ldmia	r7!, {r6}
    1418:	ea4f 2404 	mov.w	r4, r4, lsl #8
    141c:	4630      	mov	r0, r6
    141e:	cf40      	ldmia	r7!, {r6}
    1420:	f7ff ff9e 	bl	1360 <movwkomma>
    1424:	f8df 194c 	ldr.w	r1, [pc, #2380]	; 1d74 <find+0x9a>
    1428:	ea00 0001 	and.w	r0, r0, r1
    142c:	2800      	cmp	r0, #0
    142e:	d001      	beq.n	1434 <movwmovtkomma+0x22>
    1430:	f7ff ffbd 	bl	13ae <movtkomma>
    1434:	bd00      	pop	{pc}

00001436 <callkommalang>:
    1436:	b53f      	push	{r0, r1, r2, r3, r4, r5, lr}
    1438:	3601      	adds	r6, #1
    143a:	4630      	mov	r0, r6
    143c:	cf40      	ldmia	r7!, {r6}
    143e:	f04f 0400 	mov.w	r4, #0
    1442:	f7ff ff8d 	bl	1360 <movwkomma>
    1446:	f7ff ffb2 	bl	13ae <movtkomma>
    144a:	f847 6d04 	str.w	r6, [r7, #-4]!
    144e:	f45f 468f 	movs.w	r6, #18304	; 0x4780
    1452:	f000 fa95 	bl	1980 <hkomma>
    1456:	bd3f      	pop	{r0, r1, r2, r3, r4, r5, pc}
    1458:	00000000 	andeq	r0, r0, r0
    145c:	00001400 	andeq	r1, r0, r0, lsl #8
    1460:	6c616305 	stclvs	3, cr6, [r1], #-20	; 0xffffffec
    1464:	b51f2c6c 	ldrlt	r2, [pc, #-3180]	; 800 <move_fertig+0x166>

00001466 <callkomma>:
    1466:	b51f      	push	{r0, r1, r2, r3, r4, lr}
    1468:	3601      	adds	r6, #1
    146a:	f847 6d04 	str.w	r6, [r7, #-4]!
    146e:	2600      	movs	r6, #0
    1470:	f7ff ffcf 	bl	1412 <movwmovtkomma>
    1474:	f847 6d04 	str.w	r6, [r7, #-4]!
    1478:	f45f 468f 	movs.w	r6, #18304	; 0x4780
    147c:	f000 fa80 	bl	1980 <hkomma>
    1480:	bd1f      	pop	{r0, r1, r2, r3, r4, pc}
    1482:	00000000 	andeq	r0, r0, r0
    1486:	00001458 	andeq	r1, r0, r8, asr r4
    148a:	6c6e6907 	stclvs	9, cr6, [lr], #-28	; 0xffffffe4
    148e:	2c656e69 	stclcs	14, cr6, [r5], #-420	; 0xfffffe5c

00001492 <inlinekomma>:
    1492:	b500      	push	{lr}
    1494:	4630      	mov	r0, r6
    1496:	cf40      	ldmia	r7!, {r6}
    1498:	f44f 4235 	mov.w	r2, #46336	; 0xb500
    149c:	f44f 433d 	mov.w	r3, #48384	; 0xbd00
    14a0:	f244 7470 	movw	r4, #18288	; 0x4770
    14a4:	8801      	ldrh	r1, [r0, #0]
    14a6:	4291      	cmp	r1, r2
    14a8:	d008      	beq.n	14bc <inlinekomma+0x2a>
    14aa:	4299      	cmp	r1, r3
    14ac:	d008      	beq.n	14c0 <inlinekomma+0x2e>
    14ae:	42a1      	cmp	r1, r4
    14b0:	d006      	beq.n	14c0 <inlinekomma+0x2e>
    14b2:	f847 6d04 	str.w	r6, [r7, #-4]!
    14b6:	460e      	mov	r6, r1
    14b8:	f000 fa62 	bl	1980 <hkomma>
    14bc:	3002      	adds	r0, #2
    14be:	e7f1      	b.n	14a4 <inlinekomma+0x12>
    14c0:	bd00      	pop	{pc}

000014c2 <suchedefinitionsende>:
    14c2:	b41a      	push	{r1, r3, r4}
    14c4:	f44f 433d 	mov.w	r3, #48384	; 0xbd00
    14c8:	f244 7470 	movw	r4, #18288	; 0x4770
    14cc:	8801      	ldrh	r1, [r0, #0]
    14ce:	3002      	adds	r0, #2
    14d0:	4299      	cmp	r1, r3
    14d2:	d002      	beq.n	14da <suchedefinitionsende+0x18>
    14d4:	42a1      	cmp	r1, r4
    14d6:	d000      	beq.n	14da <suchedefinitionsende+0x18>
    14d8:	e7f8      	b.n	14cc <suchedefinitionsende+0xa>
    14da:	bc1a      	pop	{r1, r3, r4}
    14dc:	4770      	bx	lr
    14de:	00000000 	andeq	r0, r0, r0
    14e2:	00001482 	andeq	r1, r0, r2, lsl #9
    14e6:	74696c08 	strbtvc	r6, [r9], #-3080	; 0xc08
    14ea:	6c617265 	sfmvs	f7, 2, [r1], #-404	; 0xfffffe6c
    14ee:	b51f002c 	ldrlt	r0, [pc, #-44]	; 14ca <suchedefinitionsende+0x8>

000014f0 <literalkomma>:
    14f0:	b51f      	push	{r0, r1, r2, r3, r4, lr}
    14f2:	f847 6d04 	str.w	r6, [r7, #-4]!
    14f6:	f64f 0647 	movw	r6, #63559	; 0xf847
    14fa:	f000 fa41 	bl	1980 <hkomma>
    14fe:	f847 6d04 	str.w	r6, [r7, #-4]!
    1502:	f646 5604 	movw	r6, #27908	; 0x6d04
    1506:	f000 fa3b 	bl	1980 <hkomma>
    150a:	f847 6d04 	str.w	r6, [r7, #-4]!
    150e:	2606      	movs	r6, #6
    1510:	f7ff ff7f 	bl	1412 <movwmovtkomma>
    1514:	bd1f      	pop	{r0, r1, r2, r3, r4, pc}
    1516:	00000000 	andeq	r0, r0, r0
    151a:	000014de 	ldrdeq	r1, [r0], -lr
    151e:	74657204 	strbtvc	r7, [r5], #-516	; 0x204
    1522:	f847002c 			; <UNDEFINED> instruction: 0xf847002c

00001524 <retkomma>:
    1524:	f847 6d04 	str.w	r6, [r7, #-4]!
    1528:	f45f 463d 	movs.w	r6, #48384	; 0xbd00
    152c:	f000 ba28 	b.w	1980 <hkomma>
    1530:	00000030 	andeq	r0, r0, r0, lsr r0
    1534:	00001516 	andeq	r1, r0, r6, lsl r5
    1538:	63657207 	cmnvs	r5, #1879048192	; 0x70000000
    153c:	65737275 	ldrbvs	r7, [r3, #-629]!	; 0x275
    1540:	b500      	push	{lr}
    1542:	f000 f803 	bl	154c <fadenende_einsprungadresse>
    1546:	f7ff ff8e 	bl	1466 <callkomma>
    154a:	bd00      	pop	{pc}

0000154c <fadenende_einsprungadresse>:
    154c:	b407      	push	{r0, r1, r2}
    154e:	f8df 0828 	ldr.w	r0, [pc, #2088]	; 1d78 <find+0x9e>
    1552:	6800      	ldr	r0, [r0, #0]
    1554:	3008      	adds	r0, #8
    1556:	7801      	ldrb	r1, [r0, #0]
    1558:	3101      	adds	r1, #1
    155a:	f011 0201 	ands.w	r2, r1, #1
    155e:	1889      	adds	r1, r1, r2
    1560:	1840      	adds	r0, r0, r1
    1562:	f847 6d04 	str.w	r6, [r7, #-4]!
    1566:	4606      	mov	r6, r0
    1568:	bc07      	pop	{r0, r1, r2}
    156a:	4770      	bx	lr
    156c:	00000020 	andeq	r0, r0, r0, lsr #32
    1570:	00001530 	andeq	r1, r0, r0, lsr r5
    1574:	656f6405 	strbvs	r6, [pc, #-1029]!	; 1177 <words+0x15>
    1578:	f2413e73 			; <UNDEFINED> instruction: 0xf2413e73

0000157a <does>:
    157a:	f241 508b 	movw	r0, #5515	; 0x158b
    157e:	4780      	blx	r0
    1580:	f847 6d04 	str.w	r6, [r7, #-4]!
    1584:	4676      	mov	r6, lr
    1586:	3e01      	subs	r6, #1
    1588:	4770      	bx	lr

0000158a <dodoes>:
    158a:	f847 6d04 	str.w	r6, [r7, #-4]!
    158e:	4676      	mov	r6, lr
    1590:	3e01      	subs	r6, #1
    1592:	f8df 07b0 	ldr.w	r0, [pc, #1968]	; 1d44 <find+0x6a>
    1596:	6805      	ldr	r5, [r0, #0]
    1598:	f7ff ffd8 	bl	154c <fadenende_einsprungadresse>
    159c:	4631      	mov	r1, r6
    159e:	cf40      	ldmia	r7!, {r6}
    15a0:	3102      	adds	r1, #2
    15a2:	6001      	str	r1, [r0, #0]
    15a4:	f7ff ff47 	bl	1436 <callkommalang>
    15a8:	6005      	str	r5, [r0, #0]
    15aa:	f000 f910 	bl	17ce <smudge>
    15ae:	bd00      	pop	{pc}
    15b0:	00000000 	andeq	r0, r0, r0
    15b4:	0000156c 	andeq	r1, r0, ip, ror #10
    15b8:	75623c07 	strbvc	r3, [r2, #-3079]!	; 0xc07
    15bc:	73646c69 	cmnvc	r4, #26880	; 0x6900
    15c0:	b500      	push	{lr}
    15c2:	f000 fae1 	bl	1b88 <create>
    15c6:	f847 6d04 	str.w	r6, [r7, #-4]!
    15ca:	f45f 4635 	movs.w	r6, #46336	; 0xb500
    15ce:	f000 f9d7 	bl	1980 <hkomma>
    15d2:	f847 6d04 	str.w	r6, [r7, #-4]!
    15d6:	260a      	movs	r6, #10
    15d8:	f000 fa51 	bl	1a7e <allot>
    15dc:	bd00      	pop	{pc}
    15de:	00000040 	andeq	r0, r0, r0, asr #32
    15e2:	000015b0 			; <UNDEFINED> instruction: 0x000015b0
    15e6:	61747305 	cmnvs	r4, r5, lsl #6
    15ea:	f8df6574 			; <UNDEFINED> instruction: 0xf8df6574
    15ee:	078c      	lsls	r4, r1, #30
    15f0:	f847 6d04 	str.w	r6, [r7, #-4]!
    15f4:	4606      	mov	r6, r0
    15f6:	4770      	bx	lr
    15f8:	00000000 	andeq	r0, r0, r0
    15fc:	000015de 	ldrdeq	r1, [r0], -lr
    1600:	f8df5d01 			; <UNDEFINED> instruction: 0xf8df5d01
    1604:	0778      	lsls	r0, r7, #29
    1606:	f04f 31ff 	mov.w	r1, #4294967295
    160a:	6001      	str	r1, [r0, #0]
    160c:	4770      	bx	lr
    160e:	00000010 	andeq	r0, r0, r0, lsl r0
    1612:	000015f8 	strdeq	r1, [r0], -r8
    1616:	f8df5b01 			; <UNDEFINED> instruction: 0xf8df5b01
    161a:	0760      	lsls	r0, r4, #29
    161c:	f04f 0100 	mov.w	r1, #0
    1620:	6001      	str	r1, [r0, #0]
    1622:	4770      	bx	lr
    1624:	00000000 	andeq	r0, r0, r0
    1628:	0000160e 	andeq	r1, r0, lr, lsl #12
    162c:	b5003a01 	strlt	r3, [r0, #-2561]	; 0xa01
    1630:	f8df 074c 	ldr.w	r0, [pc, #1868]	; 1d80 <find+0xa6>
    1634:	6007      	str	r7, [r0, #0]
    1636:	f000 faa7 	bl	1b88 <create>
    163a:	f847 6d04 	str.w	r6, [r7, #-4]!
    163e:	f45f 4635 	movs.w	r6, #46336	; 0xb500
    1642:	f000 f99d 	bl	1980 <hkomma>
    1646:	f8df 0734 	ldr.w	r0, [pc, #1844]	; 1d7c <find+0xa2>
    164a:	f04f 31ff 	mov.w	r1, #4294967295
    164e:	6001      	str	r1, [r0, #0]
    1650:	bd00      	pop	{pc}
    1652:	00000030 	andeq	r0, r0, r0, lsr r0
    1656:	00001624 	andeq	r1, r0, r4, lsr #12
    165a:	b5003b01 	strlt	r3, [r0, #-2817]	; 0xb01
    165e:	f8df 0720 	ldr.w	r0, [pc, #1824]	; 1d80 <find+0xa6>
    1662:	6801      	ldr	r1, [r0, #0]
    1664:	42b9      	cmp	r1, r7
    1666:	d011      	beq.n	168c <dodoes+0x102>
    1668:	b500      	push	{lr}
    166a:	f7ff fc92 	bl	f92 <dotgaensefuesschen>
    166e:	74532015 	ldrbvc	r2, [r3], #-21
    1672:	206b6361 	rsbcs	r6, fp, r1, ror #6
    1676:	20746f6e 	rsbscs	r6, r4, lr, ror #30
    167a:	616c6162 	cmnvs	ip, r2, ror #2
    167e:	6465636e 	strbtvs	r6, [r5], #-878	; 0x36e
    1682:	f85d0a2e 			; <UNDEFINED> instruction: 0xf85d0a2e
    1686:	eb04 f001 			; <UNDEFINED> instruction: 0xeb04f001
    168a:	b8b4      			; <UNDEFINED> instruction: 0xb8b4
    168c:	f847 6d04 	str.w	r6, [r7, #-4]!
    1690:	f45f 463d 	movs.w	r6, #48384	; 0xbd00
    1694:	f000 f974 	bl	1980 <hkomma>
    1698:	f000 f899 	bl	17ce <smudge>
    169c:	f8df 06dc 	ldr.w	r0, [pc, #1756]	; 1d7c <find+0xa2>
    16a0:	f04f 0100 	mov.w	r1, #0
    16a4:	6001      	str	r1, [r0, #0]
    16a6:	bd00      	pop	{pc}
    16a8:	00000000 	andeq	r0, r0, r0
    16ac:	00001652 	andeq	r1, r0, r2, asr r6
    16b0:	65786507 	ldrbvs	r6, [r8, #-1287]!	; 0x507
    16b4:	65747563 	ldrbvs	r7, [r4, #-1379]!	; 0x563

000016b8 <execute>:
    16b8:	4630      	mov	r0, r6
    16ba:	cf40      	ldmia	r7!, {r6}
    16bc:	3001      	adds	r0, #1
    16be:	4687      	mov	pc, r0
    16c0:	00000010 	andeq	r0, r0, r0, lsl r0
    16c4:	000016a8 	andeq	r1, r0, r8, lsr #13
    16c8:	6d6d6909 	stclvs	9, cr6, [sp, #-36]!	; 0xffffffdc
    16cc:	61696465 	cmnvs	r9, r5, ror #8
    16d0:	f8476574 			; <UNDEFINED> instruction: 0xf8476574
    16d4:	6d04      	ldr	r4, [r0, #80]	; 0x50
    16d6:	2610      	movs	r6, #16
    16d8:	f000 b8cb 	b.w	1872 <setflags>
    16dc:	00000010 	andeq	r0, r0, r0, lsl r0
    16e0:	000016c0 	andeq	r1, r0, r0, asr #13
    16e4:	6c6e6906 	stclvs	9, cr6, [lr], #-24	; 0xffffffe8
    16e8:	00656e69 	rsbeq	r6, r5, r9, ror #28
    16ec:	f847 6d04 	str.w	r6, [r7, #-4]!
    16f0:	2620      	movs	r6, #32
    16f2:	f000 b8be 	b.w	1872 <setflags>
    16f6:	00000010 	andeq	r0, r0, r0, lsl r0
    16fa:	000016dc 	ldrdeq	r1, [r0], -ip
    16fe:	6d6f630b 	stclvs	3, cr6, [pc, #-44]!	; 16d8 <execute+0x20>
    1702:	656c6970 	strbvs	r6, [ip, #-2416]!	; 0x970
    1706:	796c6e6f 	stmdbvc	ip!, {r0, r1, r2, r3, r5, r6, r9, sl, fp, sp, lr}^
    170a:	f847 6d04 	str.w	r6, [r7, #-4]!
    170e:	2630      	movs	r6, #48	; 0x30
    1710:	f000 b8af 	b.w	1872 <setflags>
    1714:	00000010 	andeq	r0, r0, r0, lsl r0
    1718:	000016f6 	strdeq	r1, [r0], -r6
    171c:	662d300a 	strtvs	r3, [sp], -sl
    1720:	61646c6f 	cmnvs	r4, pc, ror #24
    1724:	00656c62 	rsbeq	r6, r5, r2, ror #24

00001728 <setze_faltbarflag>:
    1728:	f847 6d04 	str.w	r6, [r7, #-4]!
    172c:	2640      	movs	r6, #64	; 0x40
    172e:	f000 b8a0 	b.w	1872 <setflags>
    1732:	00000010 	andeq	r0, r0, r0, lsl r0
    1736:	00001714 	andeq	r1, r0, r4, lsl r7
    173a:	662d310a 	strtvs	r3, [sp], -sl, lsl #2
    173e:	61646c6f 	cmnvs	r4, pc, ror #24
    1742:	00656c62 	rsbeq	r6, r5, r2, ror #24
    1746:	f847 6d04 	str.w	r6, [r7, #-4]!
    174a:	2641      	movs	r6, #65	; 0x41
    174c:	f000 b891 	b.w	1872 <setflags>
    1750:	00000010 	andeq	r0, r0, r0, lsl r0
    1754:	00001732 	andeq	r1, r0, r2, lsr r7
    1758:	662d320a 	strtvs	r3, [sp], -sl, lsl #4
    175c:	61646c6f 	cmnvs	r4, pc, ror #24
    1760:	00656c62 	rsbeq	r6, r5, r2, ror #24
    1764:	f847 6d04 	str.w	r6, [r7, #-4]!
    1768:	2642      	movs	r6, #66	; 0x42
    176a:	f000 b882 	b.w	1872 <setflags>
    176e:	00000010 	andeq	r0, r0, r0, lsl r0
    1772:	00001750 	andeq	r1, r0, r0, asr r7
    1776:	662d330a 	strtvs	r3, [sp], -sl, lsl #6
    177a:	61646c6f 	cmnvs	r4, pc, ror #24
    177e:	00656c62 	rsbeq	r6, r5, r2, ror #24
    1782:	f847 6d04 	str.w	r6, [r7, #-4]!
    1786:	2643      	movs	r6, #67	; 0x43
    1788:	f000 b873 	b.w	1872 <setflags>
    178c:	00000000 	andeq	r0, r0, r0
    1790:	0000176e 	andeq	r1, r0, lr, ror #14
    1794:	6e6f6308 	cdpvs	3, 6, cr6, cr15, cr8, {0}
    1798:	6e617473 	mcrvs	4, 3, r7, cr1, cr3, {3}
    179c:	b5000074 	strlt	r0, [r0, #-116]	; 0x74
    17a0:	f000 f9f2 	bl	1b88 <create>
    17a4:	f7ff fea4 	bl	14f0 <literalkomma>
    17a8:	f847 6d04 	str.w	r6, [r7, #-4]!
    17ac:	f244 7670 	movw	r6, #18288	; 0x4770
    17b0:	f000 f8e6 	bl	1980 <hkomma>
    17b4:	f7ff ffb8 	bl	1728 <setze_faltbarflag>
    17b8:	f000 f809 	bl	17ce <smudge>
    17bc:	bd00      	pop	{pc}
    17be:	00000000 	andeq	r0, r0, r0
    17c2:	0000178c 	andeq	r1, r0, ip, lsl #15
    17c6:	756d7306 	strbvc	r7, [sp, #-774]!	; 0x306
    17ca:	00656764 	rsbeq	r6, r5, r4, ror #14

000017ce <smudge>:
    17ce:	f8df 0574 	ldr.w	r0, [pc, #1396]	; 1d44 <find+0x6a>
    17d2:	6801      	ldr	r1, [r0, #0]
    17d4:	f8df 25ac 	ldr.w	r2, [pc, #1452]	; 1d84 <find+0xaa>
    17d8:	4291      	cmp	r1, r2
    17da:	f080 803c 	bcs.w	1856 <smudge_ram>
    17de:	b500      	push	{lr}
    17e0:	3902      	subs	r1, #2
    17e2:	880a      	ldrh	r2, [r1, #0]
    17e4:	f8df 35a0 	ldr.w	r3, [pc, #1440]	; 1d88 <find+0xae>
    17e8:	429a      	cmp	r2, r3
    17ea:	d120      	bne.n	182e <smudge+0x60>
    17ec:	b500      	push	{lr}
    17ee:	f7ff fbd0 	bl	f92 <dotgaensefuesschen>
    17f2:	bcc3462d 	stcllt	6, cr4, [r3], {45}	; 0x2d
    17f6:	69206567 	stmdbvs	r0!, {r0, r1, r2, r5, r6, r8, sl, sp, lr}
    17fa:	6d53206e 	ldclvs	0, cr2, [r3, #-440]	; 0xfffffe48
    17fe:	65676475 	strbvs	r6, [r7, #-1141]!	; 0x475
    1802:	6e696520 	cdpvs	5, 6, cr6, cr9, cr0, {1}
    1806:	6e452065 	cdpvs	0, 4, cr2, cr5, cr5, {3}
    180a:	6b726564 	blvs	1c9ada2 <FlashDictionaryEnde+0x1c5ada2>
    180e:	756e6e65 	strbvc	r6, [lr, #-3685]!	; 0xe65
    1812:	2d73676e 	ldclcs	7, cr6, [r3, #-440]!	; 0xfffffe48
    1816:	6c6c754e 	cfstr64vs	mvdx7, [ip], #-312	; 0xfffffec8
    181a:	6e696520 	cdpvs	5, 6, cr6, cr9, cr0, {1}
    181e:	f85d0a2e 			; <UNDEFINED> instruction: 0xf85d0a2e
    1822:	eb04 f847 			; <UNDEFINED> instruction: 0xeb04f847
    1826:	6d04      	ldr	r4, [r0, #80]	; 0x50
    1828:	2600      	movs	r6, #0
    182a:	f000 f886 	bl	193a <ckomma>
    182e:	f8df 055c 	ldr.w	r0, [pc, #1372]	; 1d8c <find+0xb2>
    1832:	6800      	ldr	r0, [r0, #0]
    1834:	f847 6d04 	str.w	r6, [r7, #-4]!
    1838:	4606      	mov	r6, r0
    183a:	f8df 153c 	ldr.w	r1, [pc, #1340]	; 1d78 <find+0x9e>
    183e:	6809      	ldr	r1, [r1, #0]
    1840:	f8df 4500 	ldr.w	r4, [pc, #1280]	; 1d44 <find+0x6a>
    1844:	6825      	ldr	r5, [r4, #0]
    1846:	6021      	str	r1, [r4, #0]
    1848:	b530      	push	{r4, r5, lr}
    184a:	f000 f8b9 	bl	19c0 <komma>
    184e:	e8bd 4030 	ldmia.w	sp!, {r4, r5, lr}
    1852:	6025      	str	r5, [r4, #0]
    1854:	bd00      	pop	{pc}

00001856 <smudge_ram>:
    1856:	f847 6d04 	str.w	r6, [r7, #-4]!
    185a:	2600      	movs	r6, #0
    185c:	f000 b809 	b.w	1872 <setflags>
    1860:	00000000 	andeq	r0, r0, r0
    1864:	000017be 			; <UNDEFINED> instruction: 0x000017be
    1868:	74657308 	strbtvc	r7, [r5], #-776	; 0x308
    186c:	67616c66 	strbvs	r6, [r1, -r6, ror #24]!
    1870:	b5000073 	strlt	r0, [r0, #-115]	; 0x73

00001872 <setflags>:
    1872:	b500      	push	{lr}
    1874:	f8df 04cc 	ldr.w	r0, [pc, #1228]	; 1d44 <find+0x6a>
    1878:	6801      	ldr	r1, [r0, #0]
    187a:	f8df 2508 	ldr.w	r2, [pc, #1288]	; 1d84 <find+0xaa>
    187e:	4291      	cmp	r1, r2
    1880:	f080 8007 	bcs.w	1892 <setflags_ram>
    1884:	f8df 0504 	ldr.w	r0, [pc, #1284]	; 1d8c <find+0xb2>
    1888:	6801      	ldr	r1, [r0, #0]
    188a:	4331      	orrs	r1, r6
    188c:	6001      	str	r1, [r0, #0]
    188e:	cf40      	ldmia	r7!, {r6}
    1890:	bd00      	pop	{pc}

00001892 <setflags_ram>:
    1892:	4632      	mov	r2, r6
    1894:	cf40      	ldmia	r7!, {r6}
    1896:	f8df 04e0 	ldr.w	r0, [pc, #1248]	; 1d78 <find+0x9e>
    189a:	6800      	ldr	r0, [r0, #0]
    189c:	6801      	ldr	r1, [r0, #0]
    189e:	f1b1 3fff 	cmp.w	r1, #4294967295
    18a2:	bf0c      	ite	eq
    18a4:	4611      	moveq	r1, r2
    18a6:	4311      	orrne	r1, r2
    18a8:	6001      	str	r1, [r0, #0]
    18aa:	bd00      	pop	{pc}
    18ac:	00000000 	andeq	r0, r0, r0
    18b0:	00001860 	andeq	r1, r0, r0, ror #16
    18b4:	72617608 	rsbvc	r7, r1, #8388608	; 0x800000
    18b8:	6c626169 	stfvse	f6, [r2], #-420	; 0xfffffe5c
    18bc:	b5000065 	strlt	r0, [r0, #-101]	; 0x65
    18c0:	f000 f962 	bl	1b88 <create>
    18c4:	f8df 047c 	ldr.w	r0, [pc, #1148]	; 1d44 <find+0x6a>
    18c8:	6801      	ldr	r1, [r0, #0]
    18ca:	f8df 24b8 	ldr.w	r2, [pc, #1208]	; 1d84 <find+0xaa>
    18ce:	4291      	cmp	r1, r2
    18d0:	f080 801b 	bcs.w	190a <variable_ram>
    18d4:	f8df 04b8 	ldr.w	r0, [pc, #1208]	; 1d90 <find+0xb6>
    18d8:	6801      	ldr	r1, [r0, #0]
    18da:	3904      	subs	r1, #4
    18dc:	6001      	str	r1, [r0, #0]
    18de:	600e      	str	r6, [r1, #0]
    18e0:	f847 6d04 	str.w	r6, [r7, #-4]!
    18e4:	460e      	mov	r6, r1
    18e6:	f7ff fe03 	bl	14f0 <literalkomma>
    18ea:	f847 6d04 	str.w	r6, [r7, #-4]!
    18ee:	f244 7670 	movw	r6, #18288	; 0x4770
    18f2:	f000 f845 	bl	1980 <hkomma>
    18f6:	f000 f863 	bl	19c0 <komma>
    18fa:	f847 6d04 	str.w	r6, [r7, #-4]!
    18fe:	2681      	movs	r6, #129	; 0x81
    1900:	f7ff ffb7 	bl	1872 <setflags>
    1904:	f7ff ff63 	bl	17ce <smudge>
    1908:	bd00      	pop	{pc}

0000190a <variable_ram>:
    190a:	f7ff fcac 	bl	1266 <here>
    190e:	360e      	adds	r6, #14
    1910:	f7ff fdee 	bl	14f0 <literalkomma>
    1914:	f847 6d04 	str.w	r6, [r7, #-4]!
    1918:	f244 7670 	movw	r6, #18288	; 0x4770
    191c:	f000 f830 	bl	1980 <hkomma>
    1920:	f000 f84e 	bl	19c0 <komma>
    1924:	f7ff ff00 	bl	1728 <setze_faltbarflag>
    1928:	f7ff ff51 	bl	17ce <smudge>
    192c:	bd00      	pop	{pc}
    192e:	00000000 	andeq	r0, r0, r0
    1932:	000018ac 	andeq	r1, r0, ip, lsr #17
    1936:	002c6302 	eoreq	r6, ip, r2, lsl #6

0000193a <ckomma>:
    193a:	b53f      	push	{r0, r1, r2, r3, r4, r5, lr}
    193c:	f8df 0404 	ldr.w	r0, [pc, #1028]	; 1d44 <find+0x6a>
    1940:	6801      	ldr	r1, [r0, #0]
    1942:	f8df 2440 	ldr.w	r2, [pc, #1088]	; 1d84 <find+0xaa>
    1946:	4291      	cmp	r1, r2
    1948:	f080 800b 	bcs.w	1962 <ckomma_ram>
    194c:	f847 6d04 	str.w	r6, [r7, #-4]!
    1950:	460e      	mov	r6, r1
    1952:	f7ff f812 	bl	97a <c_flashkomma>
    1956:	f847 6d04 	str.w	r6, [r7, #-4]!
    195a:	2601      	movs	r6, #1
    195c:	f000 f88f 	bl	1a7e <allot>
    1960:	bd3f      	pop	{r0, r1, r2, r3, r4, r5, pc}

00001962 <ckomma_ram>:
    1962:	4632      	mov	r2, r6
    1964:	cf40      	ldmia	r7!, {r6}
    1966:	700a      	strb	r2, [r1, #0]
    1968:	f847 6d04 	str.w	r6, [r7, #-4]!
    196c:	2601      	movs	r6, #1
    196e:	f000 f886 	bl	1a7e <allot>
    1972:	bd3f      	pop	{r0, r1, r2, r3, r4, r5, pc}
    1974:	00000000 	andeq	r0, r0, r0
    1978:	0000192e 	andeq	r1, r0, lr, lsr #18
    197c:	002c6802 	eoreq	r6, ip, r2, lsl #16

00001980 <hkomma>:
    1980:	b53f      	push	{r0, r1, r2, r3, r4, r5, lr}
    1982:	48f0      	ldr	r0, [pc, #960]	; (1d44 <find+0x6a>)
    1984:	6801      	ldr	r1, [r0, #0]
    1986:	4aff      	ldr	r2, [pc, #1020]	; (1d84 <find+0xaa>)
    1988:	4291      	cmp	r1, r2
    198a:	f080 800b 	bcs.w	19a4 <hkomma_ram>
    198e:	f847 6d04 	str.w	r6, [r7, #-4]!
    1992:	460e      	mov	r6, r1
    1994:	f7fe ffc8 	bl	928 <h_flashkomma>
    1998:	f847 6d04 	str.w	r6, [r7, #-4]!
    199c:	2602      	movs	r6, #2
    199e:	f000 f86e 	bl	1a7e <allot>
    19a2:	bd3f      	pop	{r0, r1, r2, r3, r4, r5, pc}

000019a4 <hkomma_ram>:
    19a4:	4632      	mov	r2, r6
    19a6:	cf40      	ldmia	r7!, {r6}
    19a8:	800a      	strh	r2, [r1, #0]
    19aa:	f847 6d04 	str.w	r6, [r7, #-4]!
    19ae:	2602      	movs	r6, #2
    19b0:	f000 f865 	bl	1a7e <allot>
    19b4:	bd3f      	pop	{r0, r1, r2, r3, r4, r5, pc}
    19b6:	00000000 	andeq	r0, r0, r0
    19ba:	00001974 	andeq	r1, r0, r4, ror r9
    19be:	b5072c01 	strlt	r2, [r7, #-3073]	; 0xc01

000019c0 <komma>:
    19c0:	b507      	push	{r0, r1, r2, lr}
    19c2:	f847 6d04 	str.w	r6, [r7, #-4]!
    19c6:	48f0      	ldr	r0, [pc, #960]	; (1d88 <find+0xae>)
    19c8:	4030      	ands	r0, r6
    19ca:	f7ff ffd9 	bl	1980 <hkomma>
    19ce:	48e9      	ldr	r0, [pc, #932]	; (1d74 <find+0x9a>)
    19d0:	4030      	ands	r0, r6
    19d2:	ea4f 4616 	mov.w	r6, r6, lsr #16
    19d6:	f7ff ffd3 	bl	1980 <hkomma>
    19da:	bd07      	pop	{r0, r1, r2, pc}
    19dc:	00000000 	andeq	r0, r0, r0
    19e0:	000019b6 			; <UNDEFINED> instruction: 0x000019b6
    19e4:	2c3c3e03 	ldccs	14, cr3, [ip], #-12

000019e8 <reversekomma>:
    19e8:	b507      	push	{r0, r1, r2, lr}
    19ea:	f847 6d04 	str.w	r6, [r7, #-4]!
    19ee:	48e1      	ldr	r0, [pc, #900]	; (1d74 <find+0x9a>)
    19f0:	4030      	ands	r0, r6
    19f2:	0c36      	lsrs	r6, r6, #16
    19f4:	f7ff ffc4 	bl	1980 <hkomma>
    19f8:	48e3      	ldr	r0, [pc, #908]	; (1d88 <find+0xae>)
    19fa:	4030      	ands	r0, r6
    19fc:	f7ff ffc0 	bl	1980 <hkomma>
    1a00:	bd07      	pop	{r0, r1, r2, pc}
    1a02:	00000000 	andeq	r0, r0, r0
    1a06:	000019dc 	ldrdeq	r1, [r0], -ip
    1a0a:	696c6106 	stmdbvs	ip!, {r1, r2, r8, sp, lr}^
    1a0e:	002c6e67 	eoreq	r6, ip, r7, ror #28

00001a12 <alignkomma>:
    1a12:	48cc      	ldr	r0, [pc, #816]	; (1d44 <find+0x6a>)
    1a14:	6801      	ldr	r1, [r0, #0]
    1a16:	f011 0101 	ands.w	r1, r1, #1
    1a1a:	d004      	beq.n	1a26 <alignkomma+0x14>
    1a1c:	f847 6d04 	str.w	r6, [r7, #-4]!
    1a20:	2600      	movs	r6, #0
    1a22:	f7ff bf8a 	b.w	193a <ckomma>
    1a26:	4770      	bx	lr
    1a28:	00000000 	andeq	r0, r0, r0
    1a2c:	00001a02 	andeq	r1, r0, r2, lsl #20
    1a30:	72747307 	rsbsvc	r7, r4, #469762048	; 0x1c000000
    1a34:	2c676e69 	stclcs	14, cr6, [r7], #-420	; 0xfffffe5c

00001a38 <stringkomma>:
    1a38:	b50b      	push	{r0, r1, r3, lr}
    1a3a:	4630      	mov	r0, r6
    1a3c:	cf40      	ldmia	r7!, {r6}
    1a3e:	4603      	mov	r3, r0
    1a40:	7819      	ldrb	r1, [r3, #0]
    1a42:	b40b      	push	{r0, r1, r3}
    1a44:	f847 6d04 	str.w	r6, [r7, #-4]!
    1a48:	460e      	mov	r6, r1
    1a4a:	f7ff ff76 	bl	193a <ckomma>
    1a4e:	bc0b      	pop	{r0, r1, r3}
    1a50:	2900      	cmp	r1, #0
    1a52:	d00a      	beq.n	1a6a <stringkomma+0x32>
    1a54:	3301      	adds	r3, #1
    1a56:	7818      	ldrb	r0, [r3, #0]
    1a58:	f847 6d04 	str.w	r6, [r7, #-4]!
    1a5c:	4606      	mov	r6, r0
    1a5e:	b40b      	push	{r0, r1, r3}
    1a60:	f7ff ff6b 	bl	193a <ckomma>
    1a64:	bc0b      	pop	{r0, r1, r3}
    1a66:	3901      	subs	r1, #1
    1a68:	d1f4      	bne.n	1a54 <stringkomma+0x1c>
    1a6a:	f7ff ffd2 	bl	1a12 <alignkomma>
    1a6e:	bd0b      	pop	{r0, r1, r3, pc}
    1a70:	00000000 	andeq	r0, r0, r0
    1a74:	00001a28 	andeq	r1, r0, r8, lsr #20
    1a78:	6c6c6105 	stfvse	f6, [ip], #-20	; 0xffffffec
    1a7c:	48b1746f 	ldmmi	r1!, {r0, r1, r2, r3, r5, r6, sl, ip, sp, lr}

00001a7e <allot>:
    1a7e:	48b1      	ldr	r0, [pc, #708]	; (1d44 <find+0x6a>)
    1a80:	6801      	ldr	r1, [r0, #0]
    1a82:	4ac0      	ldr	r2, [pc, #768]	; (1d84 <find+0xaa>)
    1a84:	4291      	cmp	r1, r2
    1a86:	f080 8014 	bcs.w	1ab2 <allot_ram>
    1a8a:	4632      	mov	r2, r6
    1a8c:	cf40      	ldmia	r7!, {r6}
    1a8e:	1889      	adds	r1, r1, r2
    1a90:	4ac0      	ldr	r2, [pc, #768]	; (1d94 <find+0xba>)
    1a92:	4291      	cmp	r1, r2
    1a94:	f0c0 8021 	bcc.w	1ada <allot_ok>
    1a98:	b500      	push	{lr}
    1a9a:	f7ff fa7a 	bl	f92 <dotgaensefuesschen>
    1a9e:	616c460b 	cmnvs	ip, fp, lsl #12
    1aa2:	66206873 			; <UNDEFINED> instruction: 0x66206873
    1aa6:	0a6c6c75 	beq	1b1cc82 <FlashDictionaryEnde+0x1adcc82>
    1aaa:	f85d eb04 	ldr.w	lr, [sp], #4
    1aae:	f000 bea1 	b.w	27f4 <quit>

00001ab2 <allot_ram>:
    1ab2:	4632      	mov	r2, r6
    1ab4:	cf40      	ldmia	r7!, {r6}
    1ab6:	1889      	adds	r1, r1, r2
    1ab8:	4ab5      	ldr	r2, [pc, #724]	; (1d90 <find+0xb6>)
    1aba:	6812      	ldr	r2, [r2, #0]
    1abc:	4291      	cmp	r1, r2
    1abe:	f0c0 800c 	bcc.w	1ada <allot_ok>
    1ac2:	b500      	push	{lr}
    1ac4:	f7ff fa65 	bl	f92 <dotgaensefuesschen>
    1ac8:	6d615209 	sfmvs	f5, 2, [r1, #-36]!	; 0xffffffdc
    1acc:	6c756620 	ldclvs	6, cr6, [r5], #-128	; 0xffffff80
    1ad0:	f85d0a6c 			; <UNDEFINED> instruction: 0xf85d0a6c
    1ad4:	eb04 f000 			; <UNDEFINED> instruction: 0xeb04f000
    1ad8:	be8d      	bkpt	0x008d

00001ada <allot_ok>:
    1ada:	6001      	str	r1, [r0, #0]
    1adc:	4770      	bx	lr
    1ade:	00000000 	andeq	r0, r0, r0
    1ae2:	00001a70 	andeq	r1, r0, r0, ror sl
    1ae6:	6d6f630c 	stclvs	3, cr6, [pc, #-48]!	; 1abc <allot_ram+0xa>
    1aea:	656c6970 	strbvs	r6, [ip, #-2416]!	; 0x970
    1aee:	61726f74 	cmnvs	r2, r4, ror pc
    1af2:	4893006d 	ldmmi	r3, {r0, r2, r3, r5, r6}
    1af6:	6800      	ldr	r0, [r0, #0]
    1af8:	49a2      	ldr	r1, [pc, #648]	; (1d84 <find+0xaa>)
    1afa:	4288      	cmp	r0, r1
    1afc:	f0c0 8014 	bcc.w	1b28 <Zweitpointertausch>
    1b00:	4770      	bx	lr
    1b02:	00000000 	andeq	r0, r0, r0
    1b06:	00001ade 	ldrdeq	r1, [r0], -lr
    1b0a:	6d6f630e 	stclvs	3, cr6, [pc, #-56]!	; 1ad8 <allot_ram+0x26>
    1b0e:	656c6970 	strbvs	r6, [ip, #-2416]!	; 0x970
    1b12:	6c666f74 	stclvs	15, cr6, [r6], #-464	; 0xfffffe30
    1b16:	00687361 	rsbeq	r7, r8, r1, ror #6
    1b1a:	488a      	ldr	r0, [pc, #552]	; (1d44 <find+0x6a>)
    1b1c:	6800      	ldr	r0, [r0, #0]
    1b1e:	4999      	ldr	r1, [pc, #612]	; (1d84 <find+0xaa>)
    1b20:	4288      	cmp	r0, r1
    1b22:	f080 8001 	bcs.w	1b28 <Zweitpointertausch>
    1b26:	4770      	bx	lr

00001b28 <Zweitpointertausch>:
    1b28:	4893      	ldr	r0, [pc, #588]	; (1d78 <find+0x9e>)
    1b2a:	499b      	ldr	r1, [pc, #620]	; (1d98 <find+0xbe>)
    1b2c:	6802      	ldr	r2, [r0, #0]
    1b2e:	680b      	ldr	r3, [r1, #0]
    1b30:	600a      	str	r2, [r1, #0]
    1b32:	6003      	str	r3, [r0, #0]
    1b34:	4883      	ldr	r0, [pc, #524]	; (1d44 <find+0x6a>)
    1b36:	4999      	ldr	r1, [pc, #612]	; (1d9c <find+0xc2>)
    1b38:	6802      	ldr	r2, [r0, #0]
    1b3a:	680b      	ldr	r3, [r1, #0]
    1b3c:	600a      	str	r2, [r1, #0]
    1b3e:	6003      	str	r3, [r0, #0]
    1b40:	4893      	ldr	r0, [pc, #588]	; (1d90 <find+0xb6>)
    1b42:	6800      	ldr	r0, [r0, #0]
    1b44:	4283      	cmp	r3, r0
    1b46:	d316      	bcc.n	1b76 <Zweitpointertausch+0x4e>
    1b48:	b500      	push	{lr}
    1b4a:	f7ff fa22 	bl	f92 <dotgaensefuesschen>
    1b4e:	61562023 	cmpvs	r6, r3, lsr #32
    1b52:	62616972 	rsbvs	r6, r1, #1867776	; 0x1c8000
    1b56:	2073656c 	rsbscs	r6, r3, ip, ror #10
    1b5a:	6c6c6f63 	stclvs	15, cr6, [ip], #-396	; 0xfffffe74
    1b5e:	20656469 	rsbcs	r6, r5, r9, ror #8
    1b62:	68746977 	ldmdavs	r4!, {r0, r1, r2, r4, r5, r6, r8, fp, sp, lr}^
    1b66:	63696420 	cmnvs	r9, #536870912	; 0x20000000
    1b6a:	6e6f6974 	mcrvs	9, 3, r6, cr15, cr4, {3}
    1b6e:	0a797261 	beq	1e5e4fa <FlashDictionaryEnde+0x1e1e4fa>
    1b72:	f85d eb04 	ldr.w	lr, [sp], #4
    1b76:	4770      	bx	lr
    1b78:	00000000 	andeq	r0, r0, r0
    1b7c:	00001b02 	andeq	r1, r0, r2, lsl #22
    1b80:	65726306 	ldrbvs	r6, [r2, #-774]!	; 0x306
    1b84:	00657461 	rsbeq	r7, r5, r1, ror #8

00001b88 <create>:
    1b88:	b500      	push	{lr}
    1b8a:	f000 fc0e 	bl	23aa <token>
    1b8e:	4630      	mov	r0, r6
    1b90:	cf40      	ldmia	r7!, {r6}
    1b92:	7801      	ldrb	r1, [r0, #0]
    1b94:	2900      	cmp	r1, #0
    1b96:	d111      	bne.n	1bbc <create+0x34>
    1b98:	b500      	push	{lr}
    1b9a:	f7ff f9fa 	bl	f92 <dotgaensefuesschen>
    1b9e:	72432015 	subvc	r2, r3, #21
    1ba2:	65746165 	ldrbvs	r6, [r4, #-357]!	; 0x165
    1ba6:	65656e20 	strbvs	r6, [r5, #-3616]!	; 0xe20
    1baa:	6e207364 	cdpvs	3, 2, cr7, cr0, cr4, {3}
    1bae:	20656d61 	rsbcs	r6, r5, r1, ror #26
    1bb2:	f85d0a21 			; <UNDEFINED> instruction: 0xf85d0a21
    1bb6:	eb04 f000 			; <UNDEFINED> instruction: 0xeb04f000
    1bba:	be1c      	bkpt	0x001c
    1bbc:	f847 6d04 	str.w	r6, [r7, #-4]!
    1bc0:	4606      	mov	r6, r0
    1bc2:	f847 6d04 	str.w	r6, [r7, #-4]!
    1bc6:	f000 f888 	bl	1cda <find>
    1bca:	cf40      	ldmia	r7!, {r6}
    1bcc:	4630      	mov	r0, r6
    1bce:	cf40      	ldmia	r7!, {r6}
    1bd0:	2800      	cmp	r0, #0
    1bd2:	d014      	beq.n	1bfe <create+0x76>
    1bd4:	b500      	push	{lr}
    1bd6:	f7ff f9dc 	bl	f92 <dotgaensefuesschen>
    1bda:	64655209 	strbtvs	r5, [r5], #-521	; 0x209
    1bde:	6e696665 	cdpvs	6, 6, cr6, cr9, cr5, {3}
    1be2:	f85d2065 			; <UNDEFINED> instruction: 0xf85d2065
    1be6:	eb04 f847 			; <UNDEFINED> instruction: 0xeb04f847
    1bea:	6d04      	ldr	r4, [r0, #80]	; 0x50
    1bec:	f7ff f9f7 	bl	fde <type>
    1bf0:	b500      	push	{lr}
    1bf2:	f7ff f9ce 	bl	f92 <dotgaensefuesschen>
    1bf6:	000a2e02 	andeq	r2, sl, r2, lsl #28
    1bfa:	f85d eb04 	ldr.w	lr, [sp], #4
    1bfe:	f7ff ff08 	bl	1a12 <alignkomma>
    1c02:	f7ff fb30 	bl	1266 <here>
    1c06:	484f      	ldr	r0, [pc, #316]	; (1d44 <find+0x6a>)
    1c08:	6800      	ldr	r0, [r0, #0]
    1c0a:	495e      	ldr	r1, [pc, #376]	; (1d84 <find+0xaa>)
    1c0c:	4288      	cmp	r0, r1
    1c0e:	f080 8027 	bcs.w	1c60 <create_ram>
    1c12:	485e      	ldr	r0, [pc, #376]	; (1d8c <find+0xb2>)
    1c14:	2100      	movs	r1, #0
    1c16:	6001      	str	r1, [r0, #0]
    1c18:	f847 6d04 	str.w	r6, [r7, #-4]!
    1c1c:	2604      	movs	r6, #4
    1c1e:	f7ff ff2e 	bl	1a7e <allot>
    1c22:	f847 6d04 	str.w	r6, [r7, #-4]!
    1c26:	2604      	movs	r6, #4
    1c28:	f7ff ff29 	bl	1a7e <allot>
    1c2c:	6839      	ldr	r1, [r7, #0]
    1c2e:	603e      	str	r6, [r7, #0]
    1c30:	460e      	mov	r6, r1
    1c32:	f7ff ff01 	bl	1a38 <stringkomma>
    1c36:	4850      	ldr	r0, [pc, #320]	; (1d78 <find+0x9e>)
    1c38:	6801      	ldr	r1, [r0, #0]
    1c3a:	3104      	adds	r1, #4
    1c3c:	680a      	ldr	r2, [r1, #0]
    1c3e:	f1b2 3fff 	cmp.w	r2, #4294967295
    1c42:	d10a      	bne.n	1c5a <create+0xd2>
    1c44:	4c3f      	ldr	r4, [pc, #252]	; (1d44 <find+0x6a>)
    1c46:	6825      	ldr	r5, [r4, #0]
    1c48:	6021      	str	r1, [r4, #0]
    1c4a:	b531      	push	{r0, r4, r5, lr}
    1c4c:	f847 6d04 	str.w	r6, [r7, #-4]!
    1c50:	f7ff feb6 	bl	19c0 <komma>
    1c54:	e8bd 4031 	ldmia.w	sp!, {r0, r4, r5, lr}
    1c58:	6025      	str	r5, [r4, #0]
    1c5a:	6006      	str	r6, [r0, #0]
    1c5c:	cf40      	ldmia	r7!, {r6}
    1c5e:	bd00      	pop	{pc}

00001c60 <create_ram>:
    1c60:	f847 6d04 	str.w	r6, [r7, #-4]!
    1c64:	f05f 36ff 	movs.w	r6, #4294967295
    1c68:	f7ff feaa 	bl	19c0 <komma>
    1c6c:	4842      	ldr	r0, [pc, #264]	; (1d78 <find+0x9e>)
    1c6e:	6801      	ldr	r1, [r0, #0]
    1c70:	f847 6d04 	str.w	r6, [r7, #-4]!
    1c74:	460e      	mov	r6, r1
    1c76:	f7ff fea3 	bl	19c0 <komma>
    1c7a:	483f      	ldr	r0, [pc, #252]	; (1d78 <find+0x9e>)
    1c7c:	4631      	mov	r1, r6
    1c7e:	cf40      	ldmia	r7!, {r6}
    1c80:	6001      	str	r1, [r0, #0]
    1c82:	f7ff fed9 	bl	1a38 <stringkomma>
    1c86:	bd00      	pop	{pc}
    1c88:	00000000 	andeq	r0, r0, r0
    1c8c:	00001b78 	andeq	r1, r0, r8, ror fp
    1c90:	6369440f 	cmnvs	r9, #251658240	; 0xf000000
    1c94:	6e6f6974 	mcrvs	9, 3, r6, cr15, cr4, {3}
    1c98:	73797261 	cmnvc	r9, #268435462	; 0x10000006
    1c9c:	74726174 	ldrbtvc	r6, [r2], #-372	; 0x174

00001ca0 <dictionarystart>:
    1ca0:	4828      	ldr	r0, [pc, #160]	; (1d44 <find+0x6a>)
    1ca2:	6800      	ldr	r0, [r0, #0]
    1ca4:	4b34      	ldr	r3, [pc, #208]	; (1d78 <find+0x9e>)
    1ca6:	681b      	ldr	r3, [r3, #0]
    1ca8:	4936      	ldr	r1, [pc, #216]	; (1d84 <find+0xaa>)
    1caa:	4288      	cmp	r0, r1
    1cac:	bf34      	ite	cc
    1cae:	4a3c      	ldrcc	r2, [pc, #240]	; (1da0 <find+0xc6>)
    1cb0:	461a      	movcs	r2, r3
    1cb2:	f847 6d04 	str.w	r6, [r7, #-4]!
    1cb6:	4616      	mov	r6, r2
    1cb8:	4770      	bx	lr

00001cba <skipstring>:
    1cba:	b418      	push	{r3, r4}
    1cbc:	7803      	ldrb	r3, [r0, #0]
    1cbe:	3301      	adds	r3, #1
    1cc0:	f013 0401 	ands.w	r4, r3, #1
    1cc4:	191b      	adds	r3, r3, r4
    1cc6:	18c0      	adds	r0, r0, r3
    1cc8:	bc18      	pop	{r3, r4}
    1cca:	4770      	bx	lr
    1ccc:	00000000 	andeq	r0, r0, r0
    1cd0:	00001c88 	andeq	r1, r0, r8, lsl #25
    1cd4:	6e696604 	cdpvs	6, 6, cr6, cr9, cr4, {0}
    1cd8:	b53f0064 	ldrlt	r0, [pc, #-100]!	; 1c7c <create_ram+0x1c>

00001cda <find>:
    1cda:	b53f      	push	{r0, r1, r2, r3, r4, r5, lr}
    1cdc:	4635      	mov	r5, r6
    1cde:	cf40      	ldmia	r7!, {r6}
    1ce0:	f7ff ffde 	bl	1ca0 <dictionarystart>
    1ce4:	4630      	mov	r0, r6
    1ce6:	cf40      	ldmia	r7!, {r6}
    1ce8:	2300      	movs	r3, #0
    1cea:	2400      	movs	r4, #0
    1cec:	3008      	adds	r0, #8
    1cee:	7801      	ldrb	r1, [r0, #0]
    1cf0:	29ff      	cmp	r1, #255	; 0xff
    1cf2:	d01f      	beq.n	1d34 <find+0x5a>
    1cf4:	3808      	subs	r0, #8
    1cf6:	6801      	ldr	r1, [r0, #0]
    1cf8:	3004      	adds	r0, #4
    1cfa:	6802      	ldr	r2, [r0, #0]
    1cfc:	3004      	adds	r0, #4
    1cfe:	f1b1 3fff 	cmp.w	r1, #4294967295
    1d02:	d012      	beq.n	1d2a <find+0x50>
    1d04:	f847 6d04 	str.w	r6, [r7, #-4]!
    1d08:	4606      	mov	r6, r0
    1d0a:	f847 6d04 	str.w	r6, [r7, #-4]!
    1d0e:	462e      	mov	r6, r5
    1d10:	f7ff f899 	bl	e46 <compare>
    1d14:	f1b6 3fff 	cmp.w	r6, #4294967295
    1d18:	cf40      	ldmia	r7!, {r6}
    1d1a:	d106      	bne.n	1d2a <find+0x50>
    1d1c:	f7ff ffcd 	bl	1cba <skipstring>
    1d20:	4603      	mov	r3, r0
    1d22:	460c      	mov	r4, r1
    1d24:	4817      	ldr	r0, [pc, #92]	; (1d84 <find+0xaa>)
    1d26:	4283      	cmp	r3, r0
    1d28:	d204      	bcs.n	1d34 <find+0x5a>
    1d2a:	f1b2 3fff 	cmp.w	r2, #4294967295
    1d2e:	d001      	beq.n	1d34 <find+0x5a>
    1d30:	4610      	mov	r0, r2
    1d32:	e7db      	b.n	1cec <find+0x12>
    1d34:	f847 6d04 	str.w	r6, [r7, #-4]!
    1d38:	461e      	mov	r6, r3
    1d3a:	f847 6d04 	str.w	r6, [r7, #-4]!
    1d3e:	4626      	mov	r6, r4
    1d40:	bd3f      	pop	{r0, r1, r2, r3, r4, r5, pc}
    1d42:	00040000 	andeq	r0, r4, r0
    1d46:	04002000 	streq	r2, [r0], #-0
    1d4a:	00002000 	andeq	r2, r0, r0
    1d4e:	f000f240 			; <UNDEFINED> instruction: 0xf000f240
    1d52:	08000000 	stmdaeq	r0, {}	; <UNPREDICTABLE>
    1d56:	07000000 	streq	r0, [r0, -r0]
    1d5a:	00ff0000 	rscseq	r0, pc, r0
    1d5e:	00000000 	andeq	r0, r0, r0
    1d62:	0000f2c0 	andeq	pc, r0, r0, asr #5
    1d66:	0000f000 	andeq	pc, r0, r0
    1d6a:	00000800 	andeq	r0, r0, r0, lsl #16
    1d6e:	00000700 	andeq	r0, r0, r0, lsl #14
    1d72:	000000ff 	strdeq	r0, [r0], -pc	; <UNPREDICTABLE>
    1d76:	0008ffff 	strdeq	pc, [r8], -pc	; <UNPREDICTABLE>
    1d7a:	000c2000 	andeq	r2, ip, r0
    1d7e:	001c2000 	andseq	r2, ip, r0
    1d82:	00002000 	andeq	r2, r0, r0
    1d86:	ffff2000 			; <UNDEFINED> instruction: 0xffff2000
    1d8a:	00280000 	eoreq	r0, r8, r0
    1d8e:	002c2000 	eoreq	r2, ip, r0
    1d92:	00002000 	andeq	r2, r0, r0
    1d96:	00240004 	eoreq	r0, r4, r4
    1d9a:	00202000 	eoreq	r2, r0, r0
    1d9e:	286c2000 	stmdacs	ip!, {sp}^
    1da2:	00000000 	andeq	r0, r0, r0
    1da6:	1ccc0000 	stclne	0, cr0, [ip], {0}
    1daa:	63060000 	movwvs	r0, #24576	; 0x6000
    1dae:	706d756a 	rsbvc	r7, sp, sl, ror #10
    1db2:	4632002c 	ldrtmi	r0, [r2], -ip, lsr #32

00001db4 <cjumpgenerator>:
    1db4:	4632      	mov	r2, r6
    1db6:	cf40      	ldmia	r7!, {r6}
    1db8:	4631      	mov	r1, r6
    1dba:	cf40      	ldmia	r7!, {r6}
    1dbc:	4630      	mov	r0, r6
    1dbe:	cf40      	ldmia	r7!, {r6}
    1dc0:	eba1 0300 	sub.w	r3, r1, r0
    1dc4:	3b04      	subs	r3, #4
    1dc6:	f8df 459c 	ldr.w	r4, [pc, #1436]	; 2364 <spruenge_einpflegen+0x2c>
    1dca:	401c      	ands	r4, r3
    1dcc:	2c00      	cmp	r4, #0
    1dce:	d011      	beq.n	1df4 <cjumpgenerator+0x40>
    1dd0:	f8df 5594 	ldr.w	r5, [pc, #1428]	; 2368 <spruenge_einpflegen+0x30>
    1dd4:	42ac      	cmp	r4, r5
    1dd6:	d00d      	beq.n	1df4 <cjumpgenerator+0x40>
    1dd8:	b500      	push	{lr}
    1dda:	f7ff f8da 	bl	f92 <dotgaensefuesschen>
    1dde:	6d754a0d 	vldmdbvs	r5!, {s9-s21}
    1de2:	6f742070 	svcvs	0x00742070
    1de6:	6166206f 	cmnvs	r6, pc, rrx
    1dea:	f85d0a72 			; <UNDEFINED> instruction: 0xf85d0a72
    1dee:	eb04 f000 			; <UNDEFINED> instruction: 0xeb04f000
    1df2:	bd00      	pop	{pc}
    1df4:	105b      	asrs	r3, r3, #1
    1df6:	f04f 04ff 	mov.w	r4, #255	; 0xff
    1dfa:	4023      	ands	r3, r4
    1dfc:	4313      	orrs	r3, r2

00001dfe <sprungbefehl_einfuegen>:
    1dfe:	f8df 456c 	ldr.w	r4, [pc, #1388]	; 236c <spruenge_einpflegen+0x34>
    1e02:	6825      	ldr	r5, [r4, #0]
    1e04:	6020      	str	r0, [r4, #0]
    1e06:	b530      	push	{r4, r5, lr}
    1e08:	f847 6d04 	str.w	r6, [r7, #-4]!
    1e0c:	461e      	mov	r6, r3
    1e0e:	f7ff fdb7 	bl	1980 <hkomma>
    1e12:	e8bd 4030 	ldmia.w	sp!, {r4, r5, lr}
    1e16:	6025      	str	r5, [r4, #0]
    1e18:	4770      	bx	lr
    1e1a:	00000000 	andeq	r0, r0, r0
    1e1e:	00001da4 	andeq	r1, r0, r4, lsr #27
    1e22:	6d756a05 	vldmdbvs	r5!, {s13-s17}
    1e26:	46312c70 			; <UNDEFINED> instruction: 0x46312c70

00001e28 <jumpgenerator>:
    1e28:	4631      	mov	r1, r6
    1e2a:	cf40      	ldmia	r7!, {r6}
    1e2c:	4630      	mov	r0, r6
    1e2e:	cf40      	ldmia	r7!, {r6}
    1e30:	eba1 0300 	sub.w	r3, r1, r0
    1e34:	3b04      	subs	r3, #4
    1e36:	f8df 4538 	ldr.w	r4, [pc, #1336]	; 2370 <spruenge_einpflegen+0x38>
    1e3a:	401c      	ands	r4, r3
    1e3c:	2c00      	cmp	r4, #0
    1e3e:	d011      	beq.n	1e64 <jumpgenerator+0x3c>
    1e40:	f8df 5530 	ldr.w	r5, [pc, #1328]	; 2374 <spruenge_einpflegen+0x3c>
    1e44:	42ac      	cmp	r4, r5
    1e46:	d00d      	beq.n	1e64 <jumpgenerator+0x3c>
    1e48:	b500      	push	{lr}
    1e4a:	f7ff f8a2 	bl	f92 <dotgaensefuesschen>
    1e4e:	6d754a0d 	vldmdbvs	r5!, {s9-s21}
    1e52:	6f742070 	svcvs	0x00742070
    1e56:	6166206f 	cmnvs	r6, pc, rrx
    1e5a:	f85d0a72 			; <UNDEFINED> instruction: 0xf85d0a72
    1e5e:	eb04 f000 			; <UNDEFINED> instruction: 0xeb04f000
    1e62:	bcc8      	pop	{r3, r6, r7}
    1e64:	105b      	asrs	r3, r3, #1
    1e66:	f8df 4510 	ldr.w	r4, [pc, #1296]	; 2378 <spruenge_einpflegen+0x40>
    1e6a:	4023      	ands	r3, r4
    1e6c:	f453 4360 	orrs.w	r3, r3, #57344	; 0xe000
    1e70:	f7ff bfc5 	b.w	1dfe <sprungbefehl_einfuegen>

00001e74 <nullprobekomma>:
    1e74:	b500      	push	{lr}
    1e76:	f847 6d04 	str.w	r6, [r7, #-4]!
    1e7a:	f45f 5638 	movs.w	r6, #11776	; 0x2e00
    1e7e:	f7ff fd7f 	bl	1980 <hkomma>
    1e82:	f847 6d04 	str.w	r6, [r7, #-4]!
    1e86:	f64c 7640 	movw	r6, #53056	; 0xcf40
    1e8a:	f7ff fd79 	bl	1980 <hkomma>
    1e8e:	bd00      	pop	{pc}

00001e90 <branch_r>:
    1e90:	f7ff b9e9 	b.w	1266 <here>

00001e94 <r_branch_jne>:
    1e94:	b500      	push	{lr}
    1e96:	f000 f83a 	bl	1f0e <branch_v>
    1e9a:	6839      	ldr	r1, [r7, #0]
    1e9c:	603e      	str	r6, [r7, #0]
    1e9e:	460e      	mov	r6, r1
    1ea0:	f847 6d04 	str.w	r6, [r7, #-4]!
    1ea4:	f45f 4651 	movs.w	r6, #53504	; 0xd100
    1ea8:	f7ff ff84 	bl	1db4 <cjumpgenerator>
    1eac:	bd00      	pop	{pc}

00001eae <r_branch_jvc>:
    1eae:	b500      	push	{lr}
    1eb0:	f000 f82d 	bl	1f0e <branch_v>
    1eb4:	6839      	ldr	r1, [r7, #0]
    1eb6:	603e      	str	r6, [r7, #0]
    1eb8:	460e      	mov	r6, r1
    1eba:	f847 6d04 	str.w	r6, [r7, #-4]!
    1ebe:	f45f 4657 	movs.w	r6, #55040	; 0xd700
    1ec2:	f7ff ff77 	bl	1db4 <cjumpgenerator>
    1ec6:	bd00      	pop	{pc}

00001ec8 <r_nullbranch>:
    1ec8:	b500      	push	{lr}
    1eca:	f7ff ffd3 	bl	1e74 <nullprobekomma>
    1ece:	f000 f81e 	bl	1f0e <branch_v>
    1ed2:	6839      	ldr	r1, [r7, #0]
    1ed4:	603e      	str	r6, [r7, #0]
    1ed6:	460e      	mov	r6, r1
    1ed8:	f847 6d04 	str.w	r6, [r7, #-4]!
    1edc:	f45f 4650 	movs.w	r6, #53248	; 0xd000
    1ee0:	f7ff ff68 	bl	1db4 <cjumpgenerator>
    1ee4:	bd00      	pop	{pc}

00001ee6 <r_branch>:
    1ee6:	b500      	push	{lr}
    1ee8:	f000 f811 	bl	1f0e <branch_v>
    1eec:	6839      	ldr	r1, [r7, #0]
    1eee:	603e      	str	r6, [r7, #0]
    1ef0:	460e      	mov	r6, r1
    1ef2:	f7ff ff99 	bl	1e28 <jumpgenerator>
    1ef6:	bd00      	pop	{pc}

00001ef8 <nullbranch_v>:
    1ef8:	b500      	push	{lr}
    1efa:	f7ff ffbb 	bl	1e74 <nullprobekomma>
    1efe:	f7ff f9b2 	bl	1266 <here>
    1f02:	f847 6d04 	str.w	r6, [r7, #-4]!
    1f06:	2602      	movs	r6, #2
    1f08:	f7ff fdb9 	bl	1a7e <allot>
    1f0c:	bd00      	pop	{pc}

00001f0e <branch_v>:
    1f0e:	b500      	push	{lr}
    1f10:	f7ff f9a9 	bl	1266 <here>
    1f14:	f847 6d04 	str.w	r6, [r7, #-4]!
    1f18:	2602      	movs	r6, #2
    1f1a:	f7ff fdb0 	bl	1a7e <allot>
    1f1e:	bd00      	pop	{pc}

00001f20 <v_branch>:
    1f20:	b500      	push	{lr}
    1f22:	f7ff f9a0 	bl	1266 <here>
    1f26:	f7ff ff7f 	bl	1e28 <jumpgenerator>
    1f2a:	bd00      	pop	{pc}

00001f2c <v_nullbranch>:
    1f2c:	b500      	push	{lr}
    1f2e:	f7ff f99a 	bl	1266 <here>
    1f32:	f847 6d04 	str.w	r6, [r7, #-4]!
    1f36:	f45f 4650 	movs.w	r6, #53248	; 0xd000
    1f3a:	f7ff ff3b 	bl	1db4 <cjumpgenerator>
    1f3e:	bd00      	pop	{pc}

00001f40 <v_casebranch>:
    1f40:	b500      	push	{lr}
    1f42:	f7ff f990 	bl	1266 <here>
    1f46:	f847 6d04 	str.w	r6, [r7, #-4]!
    1f4a:	f45f 4651 	movs.w	r6, #53504	; 0xd100
    1f4e:	f7ff ff31 	bl	1db4 <cjumpgenerator>
    1f52:	bd00      	pop	{pc}
    1f54:	00000030 	andeq	r0, r0, r0, lsr r0
    1f58:	00001e1a 	andeq	r1, r0, sl, lsl lr
    1f5c:	65687404 	strbvs	r7, [r8, #-1028]!	; 0x404
    1f60:	2e05006e 	cdpcs	0, 0, cr0, cr5, cr14, {3}
    1f64:	d102      	bne.n	1f6c <v_casebranch+0x2c>
    1f66:	cf40      	ldmia	r7!, {r6}
    1f68:	f7ff bfda 	b.w	1f20 <v_branch>
    1f6c:	2e02      	cmp	r6, #2
    1f6e:	f040 8003 	bne.w	1f78 <strukturen_passen_nicht>
    1f72:	cf40      	ldmia	r7!, {r6}
    1f74:	f7ff bfda 	b.w	1f2c <v_nullbranch>

00001f78 <strukturen_passen_nicht>:
    1f78:	b500      	push	{lr}
    1f7a:	f7ff f80a 	bl	f92 <dotgaensefuesschen>
    1f7e:	72745317 	rsbsvc	r5, r4, #1543503872	; 0x5c000000
    1f82:	75746375 	ldrbvc	r6, [r4, #-885]!	; 0x375
    1f86:	20736572 	rsbscs	r6, r3, r2, ror r5
    1f8a:	276e6f64 	strbcs	r6, [lr, -r4, ror #30]!
    1f8e:	616d2074 	smcvs	53764	; 0xd204
    1f92:	0a686374 	beq	1a1ad6a <FlashDictionaryEnde+0x19dad6a>
    1f96:	f85d eb04 	ldr.w	lr, [sp], #4
    1f9a:	f000 bc2b 	b.w	27f4 <quit>
    1f9e:	00000030 	andeq	r0, r0, r0, lsr r0
    1fa2:	00001f54 	andeq	r1, r0, r4, asr pc
    1fa6:	736c6504 	cmnvc	ip, #16777216	; 0x1000000
    1faa:	b5000065 	strlt	r0, [r0, #-101]	; 0x65
    1fae:	2e02      	cmp	r6, #2
    1fb0:	f47f afe2 	bne.w	1f78 <strukturen_passen_nicht>
    1fb4:	cf40      	ldmia	r7!, {r6}
    1fb6:	f7ff ffaa 	bl	1f0e <branch_v>
    1fba:	6839      	ldr	r1, [r7, #0]
    1fbc:	603e      	str	r6, [r7, #0]
    1fbe:	460e      	mov	r6, r1
    1fc0:	f7ff ffb4 	bl	1f2c <v_nullbranch>
    1fc4:	f847 6d04 	str.w	r6, [r7, #-4]!
    1fc8:	2605      	movs	r6, #5
    1fca:	bd00      	pop	{pc}
    1fcc:	00000030 	andeq	r0, r0, r0, lsr r0
    1fd0:	00001f9e 	muleq	r0, lr, pc	; <UNPREDICTABLE>
    1fd4:	00666902 	rsbeq	r6, r6, r2, lsl #18

00001fd8 <struktur_if>:
    1fd8:	b500      	push	{lr}
    1fda:	f7ff ff8d 	bl	1ef8 <nullbranch_v>
    1fde:	f847 6d04 	str.w	r6, [r7, #-4]!
    1fe2:	2602      	movs	r6, #2
    1fe4:	bd00      	pop	{pc}
    1fe6:	00000030 	andeq	r0, r0, r0, lsr r0
    1fea:	00001fcc 	andeq	r1, r0, ip, asr #31
    1fee:	70657206 	rsbvc	r7, r5, r6, lsl #4
    1ff2:	00746165 	rsbseq	r6, r4, r5, ror #2
    1ff6:	2e04      	cmp	r6, #4
    1ff8:	f47f afbe 	bne.w	1f78 <strukturen_passen_nicht>
    1ffc:	cf40      	ldmia	r7!, {r6}
    1ffe:	6839      	ldr	r1, [r7, #0]
    2000:	603e      	str	r6, [r7, #0]
    2002:	460e      	mov	r6, r1
    2004:	b500      	push	{lr}
    2006:	f7ff ff6e 	bl	1ee6 <r_branch>
    200a:	f7ff ff8f 	bl	1f2c <v_nullbranch>
    200e:	bd00      	pop	{pc}
    2010:	00000030 	andeq	r0, r0, r0, lsr r0
    2014:	00001fe6 	andeq	r1, r0, r6, ror #31
    2018:	69687705 	stmdbvs	r8!, {r0, r2, r8, r9, sl, ip, sp, lr}^
    201c:	2e01656c 	cfsh32cs	mvfx6, mvfx1, #60
    2020:	f47f afaa 	bne.w	1f78 <strukturen_passen_nicht>
    2024:	cf40      	ldmia	r7!, {r6}
    2026:	b500      	push	{lr}
    2028:	f7ff ffd6 	bl	1fd8 <struktur_if>
    202c:	3602      	adds	r6, #2
    202e:	bd00      	pop	{pc}
    2030:	00000030 	andeq	r0, r0, r0, lsr r0
    2034:	00002010 	andeq	r2, r0, r0, lsl r0
    2038:	746e7505 	strbtvc	r7, [lr], #-1285	; 0x505
    203c:	2e016c69 	cdpcs	12, 0, cr6, cr1, cr9, {3}
    2040:	f47f af9a 	bne.w	1f78 <strukturen_passen_nicht>
    2044:	cf40      	ldmia	r7!, {r6}
    2046:	f7ff bf3f 	b.w	1ec8 <r_nullbranch>
    204a:	00000030 	andeq	r0, r0, r0, lsr r0
    204e:	00002030 	andeq	r2, r0, r0, lsr r0
    2052:	61676105 	cmnvs	r7, r5, lsl #2
    2056:	2e016e69 	cdpcs	14, 0, cr6, cr1, cr9, {3}
    205a:	f47f af8d 	bne.w	1f78 <strukturen_passen_nicht>
    205e:	cf40      	ldmia	r7!, {r6}
    2060:	f7ff bf41 	b.w	1ee6 <r_branch>
    2064:	00000030 	andeq	r0, r0, r0, lsr r0
    2068:	0000204a 	andeq	r2, r0, sl, asr #32
    206c:	67656205 	strbvs	r6, [r5, -r5, lsl #4]!
    2070:	b5006e69 	strlt	r6, [r0, #-3689]	; 0xe69
    2074:	f7ff ff0c 	bl	1e90 <branch_r>
    2078:	f847 6d04 	str.w	r6, [r7, #-4]!
    207c:	2601      	movs	r6, #1
    207e:	bd00      	pop	{pc}
    2080:	00000030 	andeq	r0, r0, r0, lsr r0
    2084:	00002064 	andeq	r2, r0, r4, rrx
    2088:	69786504 	ldmdbvs	r8!, {r2, r8, sl, sp, lr}^
    208c:	f7ff0074 			; <UNDEFINED> instruction: 0xf7ff0074
    2090:	ba49      	rev16	r1, r1
    2092:	00000020 	andeq	r0, r0, r0, lsr #32
    2096:	00002080 	andeq	r2, r0, r0, lsl #1
    209a:	f8476b01 			; <UNDEFINED> instruction: 0xf8476b01
    209e:	6d04      	ldr	r4, [r0, #80]	; 0x50
    20a0:	f85d 6c08 	ldr.w	r6, [sp, #-8]
    20a4:	4770      	bx	lr
    20a6:	00000020 	andeq	r0, r0, r0, lsr #32
    20aa:	00002092 	muleq	r0, r2, r0
    20ae:	f8476a01 			; <UNDEFINED> instruction: 0xf8476a01
    20b2:	6d04      	ldr	r4, [r0, #80]	; 0x50
    20b4:	9e00      	ldr	r6, [sp, #0]
    20b6:	4770      	bx	lr
    20b8:	00000020 	andeq	r0, r0, r0, lsr #32
    20bc:	000020a6 	andeq	r2, r0, r6, lsr #1
    20c0:	f8476901 			; <UNDEFINED> instruction: 0xf8476901
    20c4:	6d04      	ldr	r4, [r0, #80]	; 0x50
    20c6:	4656      	mov	r6, sl
    20c8:	4770      	bx	lr
    20ca:	00000030 	andeq	r0, r0, r0, lsr r0
    20ce:	000020b8 	strheq	r2, [r0], -r8
    20d2:	61656c05 	cmnvs	r5, r5, lsl #24
    20d6:	b5006576 	strlt	r6, [r0, #-1398]	; 0x576
    20da:	48a8      	ldr	r0, [pc, #672]	; (237c <spruenge_einpflegen+0x44>)
    20dc:	6801      	ldr	r1, [r0, #0]
    20de:	463b      	mov	r3, r7
    20e0:	3f04      	subs	r7, #4
    20e2:	681c      	ldr	r4, [r3, #0]
    20e4:	3b04      	subs	r3, #4
    20e6:	601c      	str	r4, [r3, #0]
    20e8:	3304      	adds	r3, #4
    20ea:	3304      	adds	r3, #4
    20ec:	428b      	cmp	r3, r1
    20ee:	d1f8      	bne.n	20e2 <struktur_if+0x10a>
    20f0:	b403      	push	{r0, r1}
    20f2:	f7ff ff0c 	bl	1f0e <branch_v>
    20f6:	bc03      	pop	{r0, r1}
    20f8:	4633      	mov	r3, r6
    20fa:	cf40      	ldmia	r7!, {r6}
    20fc:	3904      	subs	r1, #4
    20fe:	600b      	str	r3, [r1, #0]
    2100:	6001      	str	r1, [r0, #0]
    2102:	3904      	subs	r1, #4
    2104:	680a      	ldr	r2, [r1, #0]
    2106:	3201      	adds	r2, #1
    2108:	600a      	str	r2, [r1, #0]
    210a:	bd00      	pop	{pc}
    210c:	00000020 	andeq	r0, r0, r0, lsr #32
    2110:	000020ca 	andeq	r2, r0, sl, asr #1
    2114:	6c6e7506 	cfstr64vs	mvdx7, [lr], #-24	; 0xffffffe8
    2118:	00706f6f 	rsbseq	r6, r0, pc, ror #30

0000211c <unloop>:
    211c:	e8bd 0c00 	ldmia.w	sp!, {sl, fp}
    2120:	4770      	bx	lr
    2122:	00000030 	andeq	r0, r0, r0, lsr r0
    2126:	0000210c 	andeq	r2, r0, ip, lsl #2
    212a:	6f6c2b05 	svcvs	0x006c2b05
    212e:	2e03706f 	cdpcs	0, 0, cr7, cr3, cr15, {3}
    2132:	f47f af21 	bne.w	1f78 <strukturen_passen_nicht>
    2136:	cf40      	ldmia	r7!, {r6}
    2138:	b500      	push	{lr}
    213a:	4891      	ldr	r0, [pc, #580]	; (2380 <spruenge_einpflegen+0x48>)
    213c:	f847 6d04 	str.w	r6, [r7, #-4]!
    2140:	4606      	mov	r6, r0
    2142:	f7ff f9a6 	bl	1492 <inlinekomma>
    2146:	f7ff feb2 	bl	1eae <r_branch_jvc>
    214a:	f000 f8f5 	bl	2338 <spruenge_einpflegen>
    214e:	488b      	ldr	r0, [pc, #556]	; (237c <spruenge_einpflegen+0x44>)
    2150:	4631      	mov	r1, r6
    2152:	cf40      	ldmia	r7!, {r6}
    2154:	6001      	str	r1, [r0, #0]
    2156:	488b      	ldr	r0, [pc, #556]	; (2384 <spruenge_einpflegen+0x4c>)
    2158:	f847 6d04 	str.w	r6, [r7, #-4]!
    215c:	4606      	mov	r6, r0
    215e:	f7ff f998 	bl	1492 <inlinekomma>
    2162:	bd00      	pop	{pc}

00002164 <struktur_plusloop>:
    2164:	f11a 4a00 	adds.w	sl, sl, #2147483648	; 0x80000000
    2168:	ebba 0a0b 	subs.w	sl, sl, fp
    216c:	eb1a 0a06 	adds.w	sl, sl, r6
    2170:	cf40      	ldmia	r7!, {r6}
    2172:	44da      	add	sl, fp
    2174:	f1aa 4a00 	sub.w	sl, sl, #2147483648	; 0x80000000
    2178:	4770      	bx	lr
    217a:	00000030 	andeq	r0, r0, r0, lsr r0
    217e:	00002122 	andeq	r2, r0, r2, lsr #2
    2182:	6f6f6c04 	svcvs	0x006f6c04
    2186:	2e030070 	mcrcs	0, 0, r0, cr3, cr0, {3}
    218a:	f47f aef5 	bne.w	1f78 <strukturen_passen_nicht>
    218e:	cf40      	ldmia	r7!, {r6}
    2190:	b500      	push	{lr}
    2192:	487d      	ldr	r0, [pc, #500]	; (2388 <spruenge_einpflegen+0x50>)
    2194:	f847 6d04 	str.w	r6, [r7, #-4]!
    2198:	4606      	mov	r6, r0
    219a:	f7ff f97a 	bl	1492 <inlinekomma>
    219e:	f7ff fe79 	bl	1e94 <r_branch_jne>
    21a2:	f000 f8c9 	bl	2338 <spruenge_einpflegen>
    21a6:	4875      	ldr	r0, [pc, #468]	; (237c <spruenge_einpflegen+0x44>)
    21a8:	4631      	mov	r1, r6
    21aa:	cf40      	ldmia	r7!, {r6}
    21ac:	6001      	str	r1, [r0, #0]
    21ae:	4875      	ldr	r0, [pc, #468]	; (2384 <spruenge_einpflegen+0x4c>)
    21b0:	f847 6d04 	str.w	r6, [r7, #-4]!
    21b4:	4606      	mov	r6, r0
    21b6:	f7ff f96c 	bl	1492 <inlinekomma>
    21ba:	bd00      	pop	{pc}

000021bc <struktur_loop>:
    21bc:	f11a 0a01 	adds.w	sl, sl, #1
    21c0:	45da      	cmp	sl, fp
    21c2:	4770      	bx	lr
    21c4:	00000030 	andeq	r0, r0, r0, lsr r0
    21c8:	0000217a 	andeq	r2, r0, sl, ror r1
    21cc:	006f6402 	rsbeq	r6, pc, r2, lsl #8
    21d0:	b500      	push	{lr}
    21d2:	486e      	ldr	r0, [pc, #440]	; (238c <spruenge_einpflegen+0x54>)
    21d4:	f847 6d04 	str.w	r6, [r7, #-4]!
    21d8:	4606      	mov	r6, r0
    21da:	f7ff f95a 	bl	1492 <inlinekomma>
    21de:	4867      	ldr	r0, [pc, #412]	; (237c <spruenge_einpflegen+0x44>)
    21e0:	6801      	ldr	r1, [r0, #0]
    21e2:	f847 6d04 	str.w	r6, [r7, #-4]!
    21e6:	460e      	mov	r6, r1
    21e8:	f847 6d04 	str.w	r6, [r7, #-4]!
    21ec:	2600      	movs	r6, #0
    21ee:	6007      	str	r7, [r0, #0]
    21f0:	f7ff fe4e 	bl	1e90 <branch_r>
    21f4:	f847 6d04 	str.w	r6, [r7, #-4]!
    21f8:	2603      	movs	r6, #3
    21fa:	bd00      	pop	{pc}

000021fc <struktur_do>:
    21fc:	e92d 0c00 	stmdb	sp!, {sl, fp}
    2200:	46b2      	mov	sl, r6
    2202:	cf40      	ldmia	r7!, {r6}
    2204:	46b3      	mov	fp, r6
    2206:	cf40      	ldmia	r7!, {r6}
    2208:	4770      	bx	lr
    220a:	00000030 	andeq	r0, r0, r0, lsr r0
    220e:	000021c4 	andeq	r2, r0, r4, asr #3
    2212:	6f643f03 	svcvs	0x00643f03
    2216:	b500      	push	{lr}
    2218:	485d      	ldr	r0, [pc, #372]	; (2390 <spruenge_einpflegen+0x58>)
    221a:	f847 6d04 	str.w	r6, [r7, #-4]!
    221e:	4606      	mov	r6, r0
    2220:	f7ff f937 	bl	1492 <inlinekomma>
    2224:	4855      	ldr	r0, [pc, #340]	; (237c <spruenge_einpflegen+0x44>)
    2226:	6801      	ldr	r1, [r0, #0]
    2228:	f847 6d04 	str.w	r6, [r7, #-4]!
    222c:	460e      	mov	r6, r1
    222e:	f7ff fe6e 	bl	1f0e <branch_v>
    2232:	f056 0601 	orrs.w	r6, r6, #1
    2236:	f847 6d04 	str.w	r6, [r7, #-4]!
    223a:	2601      	movs	r6, #1
    223c:	484f      	ldr	r0, [pc, #316]	; (237c <spruenge_einpflegen+0x44>)
    223e:	6007      	str	r7, [r0, #0]
    2240:	f7ff fe26 	bl	1e90 <branch_r>
    2244:	f847 6d04 	str.w	r6, [r7, #-4]!
    2248:	2603      	movs	r6, #3
    224a:	bd00      	pop	{pc}

0000224c <struktur_qdo>:
    224c:	e92d 0c00 	stmdb	sp!, {sl, fp}
    2250:	46b2      	mov	sl, r6
    2252:	cf40      	ldmia	r7!, {r6}
    2254:	46b3      	mov	fp, r6
    2256:	cf40      	ldmia	r7!, {r6}
    2258:	45da      	cmp	sl, fp
    225a:	4770      	bx	lr
    225c:	00000030 	andeq	r0, r0, r0, lsr r0
    2260:	0000220a 	andeq	r2, r0, sl, lsl #4
    2264:	73616304 	cmnvc	r1, #268435456	; 0x10000000
    2268:	f8470065 			; <UNDEFINED> instruction: 0xf8470065

0000226a <case>:
    226a:	f847 6d04 	str.w	r6, [r7, #-4]!
    226e:	2600      	movs	r6, #0
    2270:	f847 6d04 	str.w	r6, [r7, #-4]!
    2274:	2608      	movs	r6, #8
    2276:	4770      	bx	lr
    2278:	00000030 	andeq	r0, r0, r0, lsr r0
    227c:	0000225c 	andeq	r2, r0, ip, asr r2
    2280:	666f3f03 	strbtvs	r3, [pc], -r3, lsl #30
    2284:	4843      	ldr	r0, [pc, #268]	; (2394 <spruenge_einpflegen+0x5c>)
    2286:	f000 b80b 	b.w	22a0 <of_inneneinsprung>

0000228a <struktur_qof>:
    228a:	f1b6 3fff 	cmp.w	r6, #4294967295
    228e:	cf40      	ldmia	r7!, {r6}
    2290:	4770      	bx	lr
    2292:	00000030 	andeq	r0, r0, r0, lsr r0
    2296:	00002278 	andeq	r2, r0, r8, ror r2
    229a:	00666f02 	rsbeq	r6, r6, r2, lsl #30
    229e:	483e      	ldr	r0, [pc, #248]	; (2398 <spruenge_einpflegen+0x60>)

000022a0 <of_inneneinsprung>:
    22a0:	2e08      	cmp	r6, #8
    22a2:	f47f ae69 	bne.w	1f78 <strukturen_passen_nicht>
    22a6:	cf40      	ldmia	r7!, {r6}
    22a8:	b500      	push	{lr}
    22aa:	f847 6d04 	str.w	r6, [r7, #-4]!
    22ae:	4606      	mov	r6, r0
    22b0:	f7ff f8ef 	bl	1492 <inlinekomma>
    22b4:	f7ff fe2b 	bl	1f0e <branch_v>
    22b8:	6839      	ldr	r1, [r7, #0]
    22ba:	603e      	str	r6, [r7, #0]
    22bc:	460e      	mov	r6, r1
    22be:	3601      	adds	r6, #1
    22c0:	f847 6d04 	str.w	r6, [r7, #-4]!
    22c4:	2609      	movs	r6, #9
    22c6:	f85d eb04 	ldr.w	lr, [sp], #4

000022ca <dropkomma>:
    22ca:	f847 6d04 	str.w	r6, [r7, #-4]!
    22ce:	f64c 7640 	movw	r6, #53056	; 0xcf40
    22d2:	f7ff bb55 	b.w	1980 <hkomma>

000022d6 <struktur_of>:
    22d6:	4630      	mov	r0, r6
    22d8:	cf40      	ldmia	r7!, {r6}
    22da:	42b0      	cmp	r0, r6
    22dc:	4770      	bx	lr
    22de:	00000030 	andeq	r0, r0, r0, lsr r0
    22e2:	00002292 	muleq	r0, r2, r2
    22e6:	646e6505 	strbtvs	r6, [lr], #-1285	; 0x505
    22ea:	2e09666f 	cfmadd32cs	mvax3, mvfx6, mvfx9, mvfx15

000022ec <strukturendof>:
    22ec:	2e09      	cmp	r6, #9
    22ee:	f47f ae43 	bne.w	1f78 <strukturen_passen_nicht>
    22f2:	cf40      	ldmia	r7!, {r6}
    22f4:	b500      	push	{lr}
    22f6:	b440      	push	{r6}
    22f8:	cf40      	ldmia	r7!, {r6}
    22fa:	f7ff fe08 	bl	1f0e <branch_v>
    22fe:	6839      	ldr	r1, [r7, #0]
    2300:	603e      	str	r6, [r7, #0]
    2302:	460e      	mov	r6, r1
    2304:	f7ff fe1c 	bl	1f40 <v_casebranch>
    2308:	f847 6d04 	str.w	r6, [r7, #-4]!
    230c:	bc40      	pop	{r6}
    230e:	f847 6d04 	str.w	r6, [r7, #-4]!
    2312:	2608      	movs	r6, #8
    2314:	bd00      	pop	{pc}
    2316:	00000030 	andeq	r0, r0, r0, lsr r0
    231a:	000022de 	ldrdeq	r2, [r0], -lr
    231e:	646e6507 	strbtvs	r6, [lr], #-1287	; 0x507
    2322:	65736163 	ldrbvs	r6, [r3, #-355]!	; 0x163

00002326 <strukturendcase>:
    2326:	2e08      	cmp	r6, #8
    2328:	f47f ae26 	bne.w	1f78 <strukturen_passen_nicht>
    232c:	cf40      	ldmia	r7!, {r6}
    232e:	b500      	push	{lr}
    2330:	f7ff ffcb 	bl	22ca <dropkomma>
    2334:	f85d eb04 	ldr.w	lr, [sp], #4

00002338 <spruenge_einpflegen>:
    2338:	b500      	push	{lr}
    233a:	4630      	mov	r0, r6
    233c:	cf40      	ldmia	r7!, {r6}
    233e:	2800      	cmp	r0, #0
    2340:	d00e      	beq.n	2360 <spruenge_einpflegen+0x28>
    2342:	b401      	push	{r0}
    2344:	f016 0101 	ands.w	r1, r6, #1
    2348:	2900      	cmp	r1, #0
    234a:	d004      	beq.n	2356 <spruenge_einpflegen+0x1e>
    234c:	f026 0601 	bic.w	r6, r6, #1
    2350:	f7ff fdec 	bl	1f2c <v_nullbranch>
    2354:	e001      	b.n	235a <spruenge_einpflegen+0x22>
    2356:	f7ff fde3 	bl	1f20 <v_branch>
    235a:	bc01      	pop	{r0}
    235c:	3801      	subs	r0, #1
    235e:	e7ee      	b.n	233e <spruenge_einpflegen+0x6>
    2360:	bd00      	pop	{pc}
    2362:	ff010000 			; <UNDEFINED> instruction: 0xff010000
    2366:	ff00ffff 			; <UNDEFINED> instruction: 0xff00ffff
    236a:	0004ffff 	strdeq	pc, [r4], -pc	; <UNPREDICTABLE>
    236e:	f8012000 			; <UNDEFINED> instruction: 0xf8012000
    2372:	f800ffff 			; <UNDEFINED> instruction: 0xf800ffff
    2376:	07ffffff 			; <UNDEFINED> instruction: 0x07ffffff
    237a:	00180000 	andseq	r0, r8, r0
    237e:	21642000 	cmncs	r4, r0
    2382:	211c0000 	tstcs	ip, r0
    2386:	21bc0000 			; <UNDEFINED> instruction: 0x21bc0000
    238a:	21fc0000 	mvnscs	r0, r0
    238e:	224c0000 	subcs	r0, ip, #0
    2392:	228a0000 	addcs	r0, sl, #0
    2396:	22d60000 	sbcscs	r0, r6, #0
    239a:	00000000 	andeq	r0, r0, r0
    239e:	23160000 	tstcs	r6, #0
    23a2:	74050000 	strvc	r0, [r5], #-0
    23a6:	6e656b6f 	vnmulvs.f64	d22, d5, d31

000023aa <token>:
    23aa:	2020      	movs	r0, #32
    23ac:	f847 6d04 	str.w	r6, [r7, #-4]!
    23b0:	4606      	mov	r6, r0
    23b2:	f000 b807 	b.w	23c4 <parse>
    23b6:	00000000 	andeq	r0, r0, r0
    23ba:	0000239c 	muleq	r0, ip, r3
    23be:	72617005 	rsbvc	r7, r1, #5
    23c2:	b5006573 	strlt	r6, [r0, #-1395]	; 0x573

000023c4 <parse>:
    23c4:	b500      	push	{lr}
    23c6:	f8df 06d4 	ldr.w	r0, [pc, #1748]	; 2a9c <init_name+0x8>
    23ca:	7801      	ldrb	r1, [r0, #0]
    23cc:	f8df 26d0 	ldr.w	r2, [pc, #1744]	; 2aa0 <init_name+0xc>
    23d0:	7812      	ldrb	r2, [r2, #0]
    23d2:	f8df 36d0 	ldr.w	r3, [pc, #1744]	; 2aa4 <init_name+0x10>
    23d6:	2400      	movs	r4, #0
    23d8:	1880      	adds	r0, r0, r2
    23da:	2e20      	cmp	r6, #32
    23dc:	d107      	bne.n	23ee <parse+0x2a>
    23de:	4291      	cmp	r1, r2
    23e0:	d010      	beq.n	2404 <parse+0x40>
    23e2:	3001      	adds	r0, #1
    23e4:	3201      	adds	r2, #1
    23e6:	7805      	ldrb	r5, [r0, #0]
    23e8:	42b5      	cmp	r5, r6
    23ea:	d0f8      	beq.n	23de <parse+0x1a>
    23ec:	e006      	b.n	23fc <parse+0x38>
    23ee:	4291      	cmp	r1, r2
    23f0:	d008      	beq.n	2404 <parse+0x40>
    23f2:	3001      	adds	r0, #1
    23f4:	3201      	adds	r2, #1
    23f6:	7805      	ldrb	r5, [r0, #0]
    23f8:	42b5      	cmp	r5, r6
    23fa:	d003      	beq.n	2404 <parse+0x40>
    23fc:	3301      	adds	r3, #1
    23fe:	3401      	adds	r4, #1
    2400:	701d      	strb	r5, [r3, #0]
    2402:	e7f4      	b.n	23ee <parse+0x2a>
    2404:	f8df 0698 	ldr.w	r0, [pc, #1688]	; 2aa0 <init_name+0xc>
    2408:	7002      	strb	r2, [r0, #0]
    240a:	f8df 3698 	ldr.w	r3, [pc, #1688]	; 2aa4 <init_name+0x10>
    240e:	701c      	strb	r4, [r3, #0]
    2410:	461e      	mov	r6, r3
    2412:	f85d eb04 	ldr.w	lr, [sp], #4
    2416:	4770      	bx	lr
    2418:	00000000 	andeq	r0, r0, r0
    241c:	000023b6 			; <UNDEFINED> instruction: 0x000023b6
    2420:	67696405 	strbvs	r6, [r9, -r5, lsl #8]!
    2424:	f8df7469 			; <UNDEFINED> instruction: 0xf8df7469

00002426 <digit>:
    2426:	f8df 4680 	ldr.w	r4, [pc, #1664]	; 2aa8 <init_name+0x14>
    242a:	6824      	ldr	r4, [r4, #0]

0000242c <digit_base_r4>:
    242c:	b401      	push	{r0}
    242e:	4630      	mov	r0, r6
    2430:	cf40      	ldmia	r7!, {r6}
    2432:	3830      	subs	r0, #48	; 0x30
    2434:	d30b      	bcc.n	244e <digit_base_r4+0x22>
    2436:	280a      	cmp	r0, #10
    2438:	d30f      	bcc.n	245a <digit_base_r4+0x2e>
    243a:	3807      	subs	r0, #7
    243c:	280a      	cmp	r0, #10
    243e:	d306      	bcc.n	244e <digit_base_r4+0x22>
    2440:	2824      	cmp	r0, #36	; 0x24
    2442:	d30a      	bcc.n	245a <digit_base_r4+0x2e>
    2444:	3820      	subs	r0, #32
    2446:	280a      	cmp	r0, #10
    2448:	d301      	bcc.n	244e <digit_base_r4+0x22>
    244a:	2824      	cmp	r0, #36	; 0x24
    244c:	d305      	bcc.n	245a <digit_base_r4+0x2e>
    244e:	2000      	movs	r0, #0
    2450:	f847 6d04 	str.w	r6, [r7, #-4]!
    2454:	4606      	mov	r6, r0
    2456:	bc01      	pop	{r0}
    2458:	4770      	bx	lr
    245a:	42a0      	cmp	r0, r4
    245c:	d2f7      	bcs.n	244e <digit_base_r4+0x22>
    245e:	f847 6d04 	str.w	r6, [r7, #-4]!
    2462:	4606      	mov	r6, r0
    2464:	f05f 30ff 	movs.w	r0, #4294967295
    2468:	f847 6d04 	str.w	r6, [r7, #-4]!
    246c:	4606      	mov	r6, r0
    246e:	bc01      	pop	{r0}
    2470:	4770      	bx	lr
    2472:	00000000 	andeq	r0, r0, r0
    2476:	00002418 	andeq	r2, r0, r8, lsl r4
    247a:	6d756e06 	ldclvs	14, cr6, [r5, #-24]!	; 0xffffffe8
    247e:	00726562 	rsbseq	r6, r2, r2, ror #10

00002482 <number>:
    2482:	b53f      	push	{r0, r1, r2, r3, r4, r5, lr}
    2484:	4630      	mov	r0, r6
    2486:	cf40      	ldmia	r7!, {r6}
    2488:	7801      	ldrb	r1, [r0, #0]
    248a:	2200      	movs	r2, #0
    248c:	f8df 4618 	ldr.w	r4, [pc, #1560]	; 2aa8 <init_name+0x14>
    2490:	6824      	ldr	r4, [r4, #0]
    2492:	2501      	movs	r5, #1
    2494:	2900      	cmp	r1, #0
    2496:	d021      	beq.n	24dc <number+0x5a>
    2498:	3001      	adds	r0, #1
    249a:	3901      	subs	r1, #1
    249c:	7803      	ldrb	r3, [r0, #0]
    249e:	2b2d      	cmp	r3, #45	; 0x2d
    24a0:	bf04      	itt	eq
    24a2:	f04f 35ff 	moveq.w	r5, #4294967295
    24a6:	e7f5      	beq.n	2494 <number+0x12>
    24a8:	2b23      	cmp	r3, #35	; 0x23
    24aa:	bf04      	itt	eq
    24ac:	240a      	moveq	r4, #10
    24ae:	e7f1      	beq.n	2494 <number+0x12>
    24b0:	2b24      	cmp	r3, #36	; 0x24
    24b2:	bf04      	itt	eq
    24b4:	2410      	moveq	r4, #16
    24b6:	e7ed      	beq.n	2494 <number+0x12>
    24b8:	2b25      	cmp	r3, #37	; 0x25
    24ba:	bf04      	itt	eq
    24bc:	2402      	moveq	r4, #2
    24be:	e7e9      	beq.n	2494 <number+0x12>
    24c0:	f847 6d04 	str.w	r6, [r7, #-4]!
    24c4:	461e      	mov	r6, r3
    24c6:	f7ff ffb1 	bl	242c <digit_base_r4>
    24ca:	4633      	mov	r3, r6
    24cc:	cf40      	ldmia	r7!, {r6}
    24ce:	2b00      	cmp	r3, #0
    24d0:	d00d      	beq.n	24ee <number+0x6c>
    24d2:	4633      	mov	r3, r6
    24d4:	cf40      	ldmia	r7!, {r6}
    24d6:	fb02 3204 	mla	r2, r2, r4, r3
    24da:	e7db      	b.n	2494 <number+0x12>
    24dc:	436a      	muls	r2, r5
    24de:	f847 6d04 	str.w	r6, [r7, #-4]!
    24e2:	4616      	mov	r6, r2
    24e4:	2201      	movs	r2, #1
    24e6:	f847 6d04 	str.w	r6, [r7, #-4]!
    24ea:	4616      	mov	r6, r2
    24ec:	bd3f      	pop	{r0, r1, r2, r3, r4, r5, pc}
    24ee:	2200      	movs	r2, #0
    24f0:	f847 6d04 	str.w	r6, [r7, #-4]!
    24f4:	4616      	mov	r6, r2
    24f6:	bd3f      	pop	{r0, r1, r2, r3, r4, r5, pc}
    24f8:	00000000 	andeq	r0, r0, r0
    24fc:	00002472 	andeq	r2, r0, r2, ror r4
    2500:	69642e06 	stmdbvs	r4!, {r1, r2, r9, sl, fp, sp}^
    2504:	00746967 	rsbseq	r6, r4, r7, ror #18

00002508 <digitausgeben>:
    2508:	4630      	mov	r0, r6
    250a:	cf40      	ldmia	r7!, {r6}
    250c:	280a      	cmp	r0, #10
    250e:	bf3c      	itt	cc
    2510:	3030      	addcc	r0, #48	; 0x30
    2512:	e003      	bcc.n	251c <digitausgeben+0x14>
    2514:	2824      	cmp	r0, #36	; 0x24
    2516:	bf34      	ite	cc
    2518:	3037      	addcc	r0, #55	; 0x37
    251a:	2023      	movcs	r0, #35	; 0x23
    251c:	f847 6d04 	str.w	r6, [r7, #-4]!
    2520:	4606      	mov	r6, r0
    2522:	4770      	bx	lr
    2524:	00000000 	andeq	r0, r0, r0
    2528:	000024f8 	strdeq	r2, [r0], -r8
    252c:	6c6f6804 	stclvs	8, cr6, [pc], #-16	; 2524 <digitausgeben+0x1c>
    2530:	46330064 	ldrtmi	r0, [r3], -r4, rrx

00002532 <hold>:
    2532:	4633      	mov	r3, r6
    2534:	cf40      	ldmia	r7!, {r6}
    2536:	f8df 0574 	ldr.w	r0, [pc, #1396]	; 2aac <init_name+0x18>
    253a:	7801      	ldrb	r1, [r0, #0]
    253c:	f1b1 0f3c 	cmp.w	r1, #60	; 0x3c
    2540:	d20d      	bcs.n	255e <hold+0x2c>
    2542:	3101      	adds	r1, #1
    2544:	7001      	strb	r1, [r0, #0]
    2546:	1840      	adds	r0, r0, r1
    2548:	2901      	cmp	r1, #1
    254a:	d007      	beq.n	255c <hold+0x2a>
    254c:	3801      	subs	r0, #1
    254e:	7802      	ldrb	r2, [r0, #0]
    2550:	3001      	adds	r0, #1
    2552:	7002      	strb	r2, [r0, #0]
    2554:	3801      	subs	r0, #1
    2556:	3901      	subs	r1, #1
    2558:	2901      	cmp	r1, #1
    255a:	d1f7      	bne.n	254c <hold+0x1a>
    255c:	7003      	strb	r3, [r0, #0]
    255e:	4770      	bx	lr
    2560:	00000000 	andeq	r0, r0, r0
    2564:	00002524 	andeq	r2, r0, r4, lsr #10
    2568:	67697304 	strbvs	r7, [r9, -r4, lsl #6]!
    256c:	4630006e 	ldrtmi	r0, [r0], -lr, rrx

0000256e <vorzeichen>:
    256e:	4630      	mov	r0, r6
    2570:	cf40      	ldmia	r7!, {r6}
    2572:	2800      	cmp	r0, #0
    2574:	d400      	bmi.n	2578 <vorzeichen+0xa>
    2576:	4770      	bx	lr
    2578:	f847 6d04 	str.w	r6, [r7, #-4]!
    257c:	262d      	movs	r6, #45	; 0x2d
    257e:	f7ff bfd8 	b.w	2532 <hold>
    2582:	00000000 	andeq	r0, r0, r0
    2586:	00002560 	andeq	r2, r0, r0, ror #10
    258a:	003e2302 	eorseq	r2, lr, r2, lsl #6

0000258e <zifferstringende>:
    258e:	f8df 651c 	ldr.w	r6, [pc, #1308]	; 2aac <init_name+0x18>
    2592:	4770      	bx	lr
    2594:	00000000 	andeq	r0, r0, r0
    2598:	00002582 	andeq	r2, r0, r2, lsl #11
    259c:	00532302 	subseq	r2, r3, r2, lsl #6

000025a0 <alleziffern>:
    25a0:	b500      	push	{lr}
    25a2:	f000 f808 	bl	25b6 <ziffer>
    25a6:	2e00      	cmp	r6, #0
    25a8:	d1fb      	bne.n	25a2 <alleziffern+0x2>
    25aa:	bd00      	pop	{pc}
    25ac:	00000000 	andeq	r0, r0, r0
    25b0:	00002594 	muleq	r0, r4, r5
    25b4:	b5002301 	strlt	r2, [r0, #-769]	; 0x301

000025b6 <ziffer>:
    25b6:	b500      	push	{lr}
    25b8:	f8df 04ec 	ldr.w	r0, [pc, #1260]	; 2aa8 <init_name+0x14>
    25bc:	6800      	ldr	r0, [r0, #0]
    25be:	f847 6d04 	str.w	r6, [r7, #-4]!
    25c2:	4606      	mov	r6, r0
    25c4:	f7fe facf 	bl	b66 <u_divmod>
    25c8:	6839      	ldr	r1, [r7, #0]
    25ca:	603e      	str	r6, [r7, #0]
    25cc:	460e      	mov	r6, r1
    25ce:	f7ff ff9b 	bl	2508 <digitausgeben>
    25d2:	f7ff ffae 	bl	2532 <hold>
    25d6:	bd00      	pop	{pc}
    25d8:	00000000 	andeq	r0, r0, r0
    25dc:	000025ac 	andeq	r2, r0, ip, lsr #11
    25e0:	00233c02 	eoreq	r3, r3, r2, lsl #24

000025e4 <zifferstringanfang>:
    25e4:	f8df 04c4 	ldr.w	r0, [pc, #1220]	; 2aac <init_name+0x18>
    25e8:	2100      	movs	r1, #0
    25ea:	7001      	strb	r1, [r0, #0]
    25ec:	4770      	bx	lr
    25ee:	00000000 	andeq	r0, r0, r0
    25f2:	000025d8 	ldrdeq	r2, [r0], -r8
    25f6:	002e7502 	eoreq	r7, lr, r2, lsl #10
    25fa:	b500      	push	{lr}
    25fc:	f7ff fff2 	bl	25e4 <zifferstringanfang>
    2600:	f7ff ffce 	bl	25a0 <alleziffern>
    2604:	f000 f815 	bl	2632 <dot_inneneinsprung>
    2608:	00000000 	andeq	r0, r0, r0
    260c:	000025ee 	andeq	r2, r0, lr, ror #11
    2610:	b5002e01 	strlt	r2, [r0, #-3585]	; 0xe01
    2614:	f847 6d04 	str.w	r6, [r7, #-4]!
    2618:	2e00      	cmp	r6, #0
    261a:	bf48      	it	mi
    261c:	f1d6 0600 	rsbsmi	r6, r6, #0
    2620:	f7ff ffe0 	bl	25e4 <zifferstringanfang>
    2624:	f7ff ffbc 	bl	25a0 <alleziffern>
    2628:	6839      	ldr	r1, [r7, #0]
    262a:	603e      	str	r6, [r7, #0]
    262c:	460e      	mov	r6, r1
    262e:	f7ff ff9e 	bl	256e <vorzeichen>

00002632 <dot_inneneinsprung>:
    2632:	f7ff ffac 	bl	258e <zifferstringende>
    2636:	f7fe fcd2 	bl	fde <type>
    263a:	b500      	push	{lr}
    263c:	f7fe fca9 	bl	f92 <dotgaensefuesschen>
    2640:	f85d2001 			; <UNDEFINED> instruction: 0xf85d2001
    2644:	eb04 bd00 			; <UNDEFINED> instruction: 0xeb04bd00
    2648:	00000000 	andeq	r0, r0, r0
    264c:	00002608 	andeq	r2, r0, r8, lsl #12
    2650:	746e6909 	strbtvc	r6, [lr], #-2313	; 0x909
    2654:	72707265 	rsbsvc	r7, r0, #1342177286	; 0x50000006
    2658:	b5007465 	strlt	r7, [r0, #-1125]	; 0x465

0000265a <interpret>:
    265a:	b500      	push	{lr}
    265c:	f8df 0450 	ldr.w	r0, [pc, #1104]	; 2ab0 <init_name+0x1c>
    2660:	4287      	cmp	r7, r0
    2662:	d90f      	bls.n	2684 <interpret+0x2a>
    2664:	b500      	push	{lr}
    2666:	f7fe fc94 	bl	f92 <dotgaensefuesschen>
    266a:	61745310 	cmnvs	r4, r0, lsl r3
    266e:	75206b63 	strvc	r6, [r0, #-2915]!	; 0xb63
    2672:	7265646e 	rsbvc	r6, r5, #1845493760	; 0x6e000000
    2676:	776f6c66 	strbvc	r6, [pc, -r6, ror #24]!
    267a:	f85d000a 			; <UNDEFINED> instruction: 0xf85d000a
    267e:	eb04 f000 			; <UNDEFINED> instruction: 0xeb04f000
    2682:	b8b8      			; <UNDEFINED> instruction: 0xb8b8
    2684:	f8df 042c 	ldr.w	r0, [pc, #1068]	; 2ab4 <init_name+0x20>
    2688:	4287      	cmp	r7, r0
    268a:	d20e      	bcs.n	26aa <interpret+0x50>
    268c:	b500      	push	{lr}
    268e:	f7fe fc80 	bl	f92 <dotgaensefuesschen>
    2692:	6174530f 	cmnvs	r4, pc, lsl #6
    2696:	6f206b63 	svcvs	0x00206b63
    269a:	66726576 			; <UNDEFINED> instruction: 0x66726576
    269e:	0a776f6c 	beq	1dde456 <FlashDictionaryEnde+0x1d9e456>
    26a2:	f85d eb04 	ldr.w	lr, [sp], #4
    26a6:	f000 b8a5 	b.w	27f4 <quit>
    26aa:	f7ff fe7e 	bl	23aa <token>
    26ae:	4630      	mov	r0, r6
    26b0:	cf40      	ldmia	r7!, {r6}
    26b2:	7801      	ldrb	r1, [r0, #0]
    26b4:	2900      	cmp	r1, #0
    26b6:	d102      	bne.n	26be <interpret+0x64>
    26b8:	f85d eb04 	ldr.w	lr, [sp], #4
    26bc:	4770      	bx	lr
    26be:	4cfe      	ldr	r4, [pc, #1016]	; (2ab8 <init_name+0x24>)
    26c0:	6825      	ldr	r5, [r4, #0]
    26c2:	2d00      	cmp	r5, #0
    26c4:	d101      	bne.n	26ca <interpret+0x70>
    26c6:	463d      	mov	r5, r7
    26c8:	6025      	str	r5, [r4, #0]
    26ca:	f847 6d04 	str.w	r6, [r7, #-4]!
    26ce:	4606      	mov	r6, r0
    26d0:	f7ff fb03 	bl	1cda <find>
    26d4:	4631      	mov	r1, r6
    26d6:	cf40      	ldmia	r7!, {r6}
    26d8:	4632      	mov	r2, r6
    26da:	cf40      	ldmia	r7!, {r6}
    26dc:	2a00      	cmp	r2, #0
    26de:	d11b      	bne.n	2718 <interpret+0xbe>
    26e0:	f847 6d04 	str.w	r6, [r7, #-4]!
    26e4:	4606      	mov	r6, r0
    26e6:	f7ff fecc 	bl	2482 <number>
    26ea:	4632      	mov	r2, r6
    26ec:	cf40      	ldmia	r7!, {r6}
    26ee:	2a00      	cmp	r2, #0
    26f0:	d1b4      	bne.n	265c <interpret+0x2>
    26f2:	f847 6d04 	str.w	r6, [r7, #-4]!
    26f6:	4606      	mov	r6, r0
    26f8:	f7fe fc71 	bl	fde <type>
    26fc:	b500      	push	{lr}
    26fe:	f7fe fc48 	bl	f92 <dotgaensefuesschen>
    2702:	6f6e200c 	svcvs	0x006e200c
    2706:	6f662074 	svcvs	0x00662074
    270a:	2e646e75 	mcrcs	14, 3, r6, cr4, cr5, {3}
    270e:	f85d000a 			; <UNDEFINED> instruction: 0xf85d000a
    2712:	eb04 f000 			; <UNDEFINED> instruction: 0xeb04f000
    2716:	b86e      			; <UNDEFINED> instruction: 0xb86e
    2718:	4be8      	ldr	r3, [pc, #928]	; (2abc <init_name+0x28>)
    271a:	681b      	ldr	r3, [r3, #0]
    271c:	f1b3 3fff 	cmp.w	r3, #4294967295
    2720:	d024      	beq.n	276c <.ausfuehren+0xe>
    2722:	f04f 0500 	mov.w	r5, #0
    2726:	6025      	str	r5, [r4, #0]
    2728:	f011 0330 	ands.w	r3, r1, #48	; 0x30
    272c:	2b30      	cmp	r3, #48	; 0x30
    272e:	f040 8016 	bne.w	275e <.ausfuehren>
    2732:	f847 6d04 	str.w	r6, [r7, #-4]!
    2736:	4606      	mov	r6, r0
    2738:	f7fe fc51 	bl	fde <type>
    273c:	b500      	push	{lr}
    273e:	f7fe fc28 	bl	f92 <dotgaensefuesschen>
    2742:	73692012 	cmnvc	r9, #18
    2746:	6d6f6320 	stclvs	3, cr6, [pc, #-128]!	; 26cc <interpret+0x72>
    274a:	656c6970 	strbvs	r6, [ip, #-2416]!	; 0x970
    274e:	6c6e6f2d 	stclvs	15, cr6, [lr], #-180	; 0xffffff4c
    2752:	000a2e79 	andeq	r2, sl, r9, ror lr
    2756:	f85d eb04 	ldr.w	lr, [sp], #4
    275a:	f000 b84b 	b.w	27f4 <quit>

0000275e <.ausfuehren>:
    275e:	f847 6d04 	str.w	r6, [r7, #-4]!
    2762:	4616      	mov	r6, r2
    2764:	f7fe ffa8 	bl	16b8 <execute>
    2768:	f7ff ff78 	bl	265c <interpret+0x2>
    276c:	2080      	movs	r0, #128	; 0x80
    276e:	4008      	ands	r0, r1
    2770:	2880      	cmp	r0, #128	; 0x80
    2772:	f000 800c 	beq.w	278e <.interpret_faltoptimierung>
    2776:	1beb      	subs	r3, r5, r7
    2778:	089b      	lsrs	r3, r3, #2
    277a:	2040      	movs	r0, #64	; 0x40
    277c:	4008      	ands	r0, r1
    277e:	2840      	cmp	r0, #64	; 0x40
    2780:	f040 800b 	bne.w	279a <.konstantenschleife>
    2784:	200f      	movs	r0, #15
    2786:	4008      	ands	r0, r1
    2788:	4283      	cmp	r3, r0
    278a:	f0c0 8006 	bcc.w	279a <.konstantenschleife>

0000278e <.interpret_faltoptimierung>:
    278e:	f847 6d04 	str.w	r6, [r7, #-4]!
    2792:	4616      	mov	r6, r2
    2794:	f7fe ff90 	bl	16b8 <execute>
    2798:	e760      	b.n	265c <interpret+0x2>

0000279a <.konstantenschleife>:
    279a:	2b00      	cmp	r3, #0
    279c:	d00d      	beq.n	27ba <.konstanteninnenschleife+0x1c>

0000279e <.konstanteninnenschleife>:
    279e:	3b01      	subs	r3, #1
    27a0:	f847 6d04 	str.w	r6, [r7, #-4]!
    27a4:	461e      	mov	r6, r3
    27a6:	f857 6026 	ldr.w	r6, [r7, r6, lsl #2]
    27aa:	f7fe fea1 	bl	14f0 <literalkomma>
    27ae:	2b00      	cmp	r3, #0
    27b0:	f47f aff5 	bne.w	279e <.konstanteninnenschleife>
    27b4:	3d04      	subs	r5, #4
    27b6:	462f      	mov	r7, r5
    27b8:	cf40      	ldmia	r7!, {r6}
    27ba:	2500      	movs	r5, #0
    27bc:	6025      	str	r5, [r4, #0]
    27be:	f847 6d04 	str.w	r6, [r7, #-4]!
    27c2:	4616      	mov	r6, r2
    27c4:	f011 0210 	ands.w	r2, r1, #16
    27c8:	2a10      	cmp	r2, #16
    27ca:	d102      	bne.n	27d2 <.konstanteninnenschleife+0x34>
    27cc:	f7fe ff74 	bl	16b8 <execute>
    27d0:	e744      	b.n	265c <interpret+0x2>
    27d2:	f011 0220 	ands.w	r2, r1, #32
    27d6:	2a20      	cmp	r2, #32
    27d8:	d102      	bne.n	27e0 <.konstanteninnenschleife+0x42>
    27da:	f7fe fe5a 	bl	1492 <inlinekomma>
    27de:	e73d      	b.n	265c <interpret+0x2>
    27e0:	f7fe fe41 	bl	1466 <callkomma>
    27e4:	e73a      	b.n	265c <interpret+0x2>
    27e6:	00000000 	andeq	r0, r0, r0
    27ea:	00002648 	andeq	r2, r0, r8, asr #12
    27ee:	69757104 	ldmdbvs	r5!, {r2, r8, ip, sp, lr}^
    27f2:	f8df0074 			; <UNDEFINED> instruction: 0xf8df0074

000027f4 <quit>:
    27f4:	f8df d2c8 	ldr.w	sp, [pc, #712]	; 2ac0 <init_name+0x2c>
    27f8:	4fad      	ldr	r7, [pc, #692]	; (2ab0 <init_name+0x1c>)
    27fa:	48ab      	ldr	r0, [pc, #684]	; (2aa8 <init_name+0x14>)
    27fc:	210a      	movs	r1, #10
    27fe:	6001      	str	r1, [r0, #0]
    2800:	48ae      	ldr	r0, [pc, #696]	; (2abc <init_name+0x28>)
    2802:	2100      	movs	r1, #0
    2804:	6001      	str	r1, [r0, #0]
    2806:	48ac      	ldr	r0, [pc, #688]	; (2ab8 <init_name+0x24>)
    2808:	2100      	movs	r1, #0
    280a:	6001      	str	r1, [r0, #0]

0000280c <quit_innenschleife>:
    280c:	f7fe faca 	bl	da4 <query>
    2810:	f7ff ff23 	bl	265a <interpret>
    2814:	b500      	push	{lr}
    2816:	f7fe fbbc 	bl	f92 <dotgaensefuesschen>
    281a:	6b6f2005 	blvs	1bca836 <FlashDictionaryEnde+0x1b8a836>
    281e:	f85d0a2e 			; <UNDEFINED> instruction: 0xf85d0a2e
    2822:	eb04 f7ff 			; <UNDEFINED> instruction: 0xeb04f7ff
    2826:	bff2      	itee	<und>
    2828:	00000000 	andeq	r0, r0, r0
    282c:	000027e6 	andeq	r2, r0, r6, ror #15
    2830:	61747305 	cmnvs	r4, r5, lsl #6
    2834:	f0007472 			; <UNDEFINED> instruction: 0xf0007472
    2838:	b83f      			; <UNDEFINED> instruction: 0xb83f
    283a:	00000000 	andeq	r0, r0, r0
    283e:	00002828 	andeq	r2, r0, r8, lsr #16
    2842:	6e696504 	cdpvs	5, 6, cr6, cr9, cr4, {0}
    2846:	b6620074 			; <UNDEFINED> instruction: 0xb6620074
    284a:	4770      	bx	lr	; unpredictable branch in IT block

    284c:	00000000 	andeq	r0, r0, r0
    2850:	0000283a 	andeq	r2, r0, sl, lsr r8
    2854:	6e696404 	cdpvs	4, 6, cr6, cr9, cr4, {0}
    2858:	b6720074 			; <UNDEFINED> instruction: 0xb6720074
    285c:	4770      	bx	lr	; unpredictable branch in IT block

    285e:	00000000 	andeq	r0, r0, r0
    2862:	0000284c 	andeq	r2, r0, ip, asr #16
    2866:	706f6e03 	rsbvc	r6, pc, r3, lsl #28

0000286a <nop_vektor>:
    286a:	4770      	bx	lr	; unpredictable branch in IT block


0000286c <CoreDictionaryAnfang>:
    286c:	00000081 	andeq	r0, r0, r1, lsl #1
    2870:	0000285e 	andeq	r2, r0, lr, asr r8
    2874:	7172690b 	cmnvc	r2, fp, lsl #18
    2878:	7379732d 	cmnvc	r9, #-1275068416	; 0xb4000000
    287c:	6b636974 	blvs	18dce54 <FlashDictionaryEnde+0x189ce54>
    2880:	4890      	ldr	r0, [pc, #576]	; (2ac4 <init_name+0x30>)
    2882:	f847 6d04 	str<und>.w	r6, [r7, #-4]!
    2886:	4606      	moval	r6, r0
    2888:	4770      	bxal	lr
    288a:	0000286a 	andeq	r2, r0, sl, ror #16

0000288e <irq_vektor_systick>:
    288e:	b5f0      	push	{r4, r5, r6, r7, lr}
    2890:	488c      	ldr	r0, [pc, #560]	; (2ac4 <init_name+0x30>)
    2892:	6800      	ldr	r0, [r0, #0]
    2894:	f847 6d04 	str.w	r6, [r7, #-4]!
    2898:	4606      	mov	r6, r0
    289a:	f7fe ff0d 	bl	16b8 <execute>
    289e:	e8bd 40f0 	ldmia.w	sp!, {r4, r5, r6, r7, lr}
    28a2:	4770      	bx	lr

000028a4 <Reset>:
    28a4:	4888      	ldr	r0, [pc, #544]	; (2ac8 <init_name+0x34>)
    28a6:	4989      	ldr	r1, [pc, #548]	; (2acc <init_name+0x38>)
    28a8:	f05f 32ff 	movs.w	r2, #4294967295
    28ac:	8002      	strh	r2, [r0, #0]
    28ae:	3002      	adds	r0, #2
    28b0:	4288      	cmp	r0, r1
    28b2:	d1fb      	bne.n	28ac <Reset+0x8>
    28b4:	f7fe f9e0 	bl	c78 <uart_init>

000028b8 <Reset_mit_Inhalt>:
    28b8:	4f7d      	ldr	r7, [pc, #500]	; (2ab0 <init_name+0x1c>)
    28ba:	4e85      	ldr	r6, [pc, #532]	; (2ad0 <init_name+0x3c>)
    28bc:	4885      	ldr	r0, [pc, #532]	; (2ad4 <init_name+0x40>)
    28be:	4986      	ldr	r1, [pc, #536]	; (2ad8 <init_name+0x44>)
    28c0:	6001      	str	r1, [r0, #0]
    28c2:	4886      	ldr	r0, [pc, #536]	; (2adc <init_name+0x48>)
    28c4:	4986      	ldr	r1, [pc, #536]	; (2ae0 <init_name+0x4c>)
    28c6:	6001      	str	r1, [r0, #0]
    28c8:	4885      	ldr	r0, [pc, #532]	; (2ae0 <init_name+0x4c>)
    28ca:	4d86      	ldr	r5, [pc, #536]	; (2ae4 <init_name+0x50>)

000028cc <SucheFlashPointer_Hangelschleife>:
    28cc:	4604      	mov	r4, r0
    28ce:	6801      	ldr	r1, [r0, #0]
    28d0:	3004      	adds	r0, #4
    28d2:	6802      	ldr	r2, [r0, #0]
    28d4:	3004      	adds	r0, #4
    28d6:	f1b1 3fff 	cmp.w	r1, #4294967295
    28da:	f000 8028 	beq.w	292e <Sucheflashpointer_Speicherbelegung_fertig>
    28de:	f011 0f80 	tst.w	r1, #128	; 0x80
    28e2:	f000 8024 	beq.w	292e <Sucheflashpointer_Speicherbelegung_fertig>
    28e6:	b500      	push	{lr}
    28e8:	f7fe fb53 	bl	f92 <dotgaensefuesschen>
    28ec:	65705316 	ldrbvs	r5, [r0, #-790]!	; 0x316
    28f0:	65686369 	strbvs	r6, [r8, #-873]!	; 0x369
    28f4:	65672072 	strbvs	r2, [r7, #-114]!	; 0x72
    28f8:	6ebcc377 	mrcvs	3, 5, ip, cr12, cr7, {3}
    28fc:	74686373 	strbtvc	r6, [r8], #-883	; 0x373
    2900:	000a2120 	andeq	r2, sl, r0, lsr #2
    2904:	f85d eb04 	ldr.w	lr, [sp], #4
    2908:	f011 010f 	ands.w	r1, r1, #15
    290c:	0089      	lsls	r1, r1, #2
    290e:	1a6d      	subs	r5, r5, r1
    2910:	f7ff f9d3 	bl	1cba <skipstring>
    2914:	f7fe fdd5 	bl	14c2 <suchedefinitionsende>
    2918:	f847 6d04 	str.w	r6, [r7, #-4]!
    291c:	4606      	mov	r6, r0
    291e:	f847 6d04 	str.w	r6, [r7, #-4]!
    2922:	462e      	mov	r6, r5
    2924:	f847 6d04 	str.w	r6, [r7, #-4]!
    2928:	460e      	mov	r6, r1
    292a:	f7fd fea3 	bl	674 <move>

0000292e <Sucheflashpointer_Speicherbelegung_fertig>:
    292e:	f1b2 3fff 	cmp.w	r2, #4294967295
    2932:	f000 8008 	beq.w	2946 <SucheFlashPointer_Fadenende_gefunden>
    2936:	4610      	mov	r0, r2
    2938:	3208      	adds	r2, #8
    293a:	7812      	ldrb	r2, [r2, #0]
    293c:	2aff      	cmp	r2, #255	; 0xff
    293e:	f000 8002 	beq.w	2946 <SucheFlashPointer_Fadenende_gefunden>
    2942:	f7ff bfc3 	b.w	28cc <SucheFlashPointer_Hangelschleife>

00002946 <SucheFlashPointer_Fadenende_gefunden>:
    2946:	4868      	ldr	r0, [pc, #416]	; (2ae8 <init_name+0x54>)
    2948:	6004      	str	r4, [r0, #0]
    294a:	b500      	push	{lr}
    294c:	f7fe fb21 	bl	f92 <dotgaensefuesschen>
    2950:	64614614 	strbtvs	r4, [r1], #-1556	; 0x614
    2954:	6e656e65 	cdpvs	14, 6, cr6, cr5, cr5, {3}
    2958:	69206564 	stmdbvs	r0!, {r2, r5, r6, r8, sl, sp, lr}
    295c:	6c46206d 	mcrrvs	0, 6, r2, r6, cr13
    2960:	3a687361 	bcc	1a1f6ec <FlashDictionaryEnde+0x19df6ec>
    2964:	f85d0020 			; <UNDEFINED> instruction: 0xf85d0020
    2968:	eb04 f847 			; <UNDEFINED> instruction: 0xeb04f847
    296c:	6d04      	ldr	r4, [r0, #80]	; 0x50
    296e:	4626      	mov	r6, r4
    2970:	f7fe fb4d 	bl	100e <hexdot>
    2974:	b500      	push	{lr}
    2976:	f7fe fb0c 	bl	f92 <dotgaensefuesschen>
    297a:	6567200b 	strbvs	r2, [r7, #-11]!
    297e:	646e7566 	strbtvs	r7, [lr], #-1382	; 0x566
    2982:	0a2e6e65 	beq	b9e31e <FlashDictionaryEnde+0xb5e31e>
    2986:	f85d eb04 	ldr.w	lr, [sp], #4
    298a:	4858      	ldr	r0, [pc, #352]	; (2aec <init_name+0x58>)
    298c:	6005      	str	r5, [r0, #0]
    298e:	b500      	push	{lr}
    2990:	f7fe faff 	bl	f92 <dotgaensefuesschen>
    2994:	6174531d 	cmnvs	r4, sp, lsl r3
    2998:	6420646e 	strtvs	r6, [r0], #-1134	; 0x46e
    299c:	56207365 	strtpl	r7, [r0], -r5, ror #6
    29a0:	61697261 	cmnvs	r9, r1, ror #4
    29a4:	6e656c62 	cdpvs	12, 6, cr6, cr5, cr2, {3}
    29a8:	6e696f70 	mcrvs	15, 3, r6, cr9, cr0, {3}
    29ac:	73726574 	cmnvc	r2, #486539264	; 0x1d000000
    29b0:	f85d203a 			; <UNDEFINED> instruction: 0xf85d203a
    29b4:	eb04 f847 			; <UNDEFINED> instruction: 0xeb04f847
    29b8:	6d04      	ldr	r4, [r0, #80]	; 0x50
    29ba:	462e      	mov	r6, r5
    29bc:	f7fe fb27 	bl	100e <hexdot>
    29c0:	b500      	push	{lr}
    29c2:	f7fe fae6 	bl	f92 <dotgaensefuesschen>
    29c6:	6567200b 	strbvs	r2, [r7, #-11]!
    29ca:	646e7566 	strbtvs	r7, [lr], #-1382	; 0x566
    29ce:	0a2e6e65 	beq	b9e36a <FlashDictionaryEnde+0xb5e36a>
    29d2:	f85d eb04 	ldr.w	lr, [sp], #4
    29d6:	4846      	ldr	r0, [pc, #280]	; (2af0 <init_name+0x5c>)
    29d8:	4946      	ldr	r1, [pc, #280]	; (2af4 <init_name+0x60>)
    29da:	4a47      	ldr	r2, [pc, #284]	; (2af8 <init_name+0x64>)
    29dc:	4288      	cmp	r0, r1
    29de:	d004      	beq.n	29ea <SucheFlashPointer_Fadenende_gefunden+0xa4>
    29e0:	3802      	subs	r0, #2
    29e2:	8803      	ldrh	r3, [r0, #0]
    29e4:	4293      	cmp	r3, r2
    29e6:	d0f9      	beq.n	29dc <SucheFlashPointer_Fadenende_gefunden+0x96>
    29e8:	3002      	adds	r0, #2
    29ea:	4944      	ldr	r1, [pc, #272]	; (2afc <init_name+0x68>)
    29ec:	6008      	str	r0, [r1, #0]
    29ee:	b500      	push	{lr}
    29f0:	f7fe facf 	bl	f92 <dotgaensefuesschen>
    29f4:	6369441c 	cmnvs	r9, #469762048	; 0x1c000000
    29f8:	6e6f6974 	mcrvs	9, 3, r6, cr15, cr4, {3}
    29fc:	70797261 	rsbsvc	r7, r9, r1, ror #4
    2a00:	746e696f 	strbtvc	r6, [lr], #-2415	; 0x96f
    2a04:	69207265 	stmdbvs	r0!, {r0, r2, r5, r6, r9, ip, sp, lr}
    2a08:	6c46206d 	mcrrvs	0, 6, r2, r6, cr13
    2a0c:	3a687361 	bcc	1a1f798 <FlashDictionaryEnde+0x19df798>
    2a10:	f85d0020 			; <UNDEFINED> instruction: 0xf85d0020
    2a14:	eb04 f847 			; <UNDEFINED> instruction: 0xeb04f847
    2a18:	6d04      	ldr	r4, [r0, #80]	; 0x50
    2a1a:	4606      	mov	r6, r0
    2a1c:	f7fe faf7 	bl	100e <hexdot>
    2a20:	b500      	push	{lr}
    2a22:	f7fe fab6 	bl	f92 <dotgaensefuesschen>
    2a26:	6567200b 	strbvs	r2, [r7, #-11]!
    2a2a:	646e7566 	strbtvs	r7, [lr], #-1382	; 0x566
    2a2e:	0a2e6e65 	beq	b9e3ca <FlashDictionaryEnde+0xb5e3ca>
    2a32:	f85d eb04 	ldr.w	lr, [sp], #4
    2a36:	b500      	push	{lr}
    2a38:	f7fe faab 	bl	f92 <dotgaensefuesschen>
    2a3c:	63654d23 	cmnvs	r5, #2240	; 0x8c0
    2a40:	70736972 	rsbsvc	r6, r3, r2, ror r9
    2a44:	6574532d 	ldrbvs	r5, [r4, #-813]!	; 0x32d
    2a48:	72616c6c 	rsbvc	r6, r1, #27648	; 0x6c00
    2a4c:	62207369 	eorvs	r7, r0, #-1543503871	; 0xa4000001
    2a50:	614d2079 	hvcvs	53769	; 0xd209
    2a54:	69687474 	stmdbvs	r8!, {r2, r4, r5, r6, sl, ip, sp, lr}^
    2a58:	4b207361 	blmi	81f7e4 <FlashDictionaryEnde+0x7df7e4>
    2a5c:	0a68636f 	beq	1a1b820 <FlashDictionaryEnde+0x19db820>
    2a60:	f85d eb04 	ldr.w	lr, [sp], #4
    2a64:	4810      	ldr	r0, [pc, #64]	; (2aa8 <init_name+0x14>)
    2a66:	210a      	movs	r1, #10
    2a68:	6001      	str	r1, [r0, #0]
    2a6a:	4814      	ldr	r0, [pc, #80]	; (2abc <init_name+0x28>)
    2a6c:	2100      	movs	r1, #0
    2a6e:	6001      	str	r1, [r0, #0]
    2a70:	4811      	ldr	r0, [pc, #68]	; (2ab8 <init_name+0x24>)
    2a72:	2100      	movs	r1, #0
    2a74:	6001      	str	r1, [r0, #0]
    2a76:	4822      	ldr	r0, [pc, #136]	; (2b00 <init_name+0x6c>)
    2a78:	f847 6d04 	str.w	r6, [r7, #-4]!
    2a7c:	4606      	mov	r6, r0
    2a7e:	f7ff f92c 	bl	1cda <find>
    2a82:	cf40      	ldmia	r7!, {r6}
    2a84:	2e00      	cmp	r6, #0
    2a86:	d003      	beq.n	2a90 <SucheFlashPointer_Fadenende_gefunden+0x14a>
    2a88:	f7fe fe16 	bl	16b8 <execute>
    2a8c:	f7ff bebe 	b.w	280c <quit_innenschleife>
    2a90:	f7ff beb0 	b.w	27f4 <quit>

00002a94 <init_name>:
    2a94:	696e6904 	stmdbvs	lr!, {r2, r8, fp, sp, lr}^
    2a98:	00000074 	andeq	r0, r0, r4, ror r0
    2a9c:	20000100 	andcs	r0, r0, r0, lsl #2
    2aa0:	20000000 	andcs	r0, r0, r0
    2aa4:	20000400 	andcs	r0, r0, r0, lsl #8
    2aa8:	20000010 	andcs	r0, r0, r0, lsl r0
    2aac:	20000040 	andcs	r0, r0, r0, asr #32
    2ab0:	20000300 	andcs	r0, r0, r0, lsl #6
    2ab4:	20000200 	andcs	r0, r0, r0, lsl #4
    2ab8:	20000014 	andcs	r0, r0, r4, lsl r0
    2abc:	2000000c 	andcs	r0, r0, ip
    2ac0:	20000400 	andcs	r0, r0, r0, lsl #8
    2ac4:	20007ffc 	strdcs	r7, [r0], -ip
    2ac8:	20000000 	andcs	r0, r0, r0
    2acc:	20008000 	andcs	r8, r0, r0
    2ad0:	affebeef 	svcge	0x00febeef
    2ad4:	20000004 	andcs	r0, r0, r4
    2ad8:	20000500 	andcs	r0, r0, r0, lsl #10
    2adc:	20000008 	andcs	r0, r0, r8
    2ae0:	0000286c 	andeq	r2, r0, ip, ror #16
    2ae4:	20008000 	andcs	r8, r0, r0
    2ae8:	20000024 	andcs	r0, r0, r4, lsr #32
    2aec:	2000002c 	andcs	r0, r0, ip, lsr #32
    2af0:	00040000 	andeq	r0, r4, r0
    2af4:	00004000 	andeq	r4, r0, r0
    2af8:	0000ffff 	strdeq	pc, [r0], -pc	; <UNPREDICTABLE>
    2afc:	20000020 	andcs	r0, r0, r0, lsr #32
    2b00:	00002a94 	muleq	r0, r4, sl

Disassembly of section .ARM.attributes:

00000000 <.ARM.attributes>:
   0:	00002041 	andeq	r2, r0, r1, asr #32
   4:	61656100 	cmnvs	r5, r0, lsl #2
   8:	01006962 	tsteq	r0, r2, ror #18
   c:	00000016 	andeq	r0, r0, r6, lsl r0
  10:	726f4305 	rsbvc	r4, pc, #335544320	; 0x14000000
  14:	2d786574 	cfldr64cs	mvdx6, [r8, #-464]!	; 0xfffffe30
  18:	0600344d 	streq	r3, [r0], -sp, asr #8
  1c:	094d070d 	stmdbeq	sp, {r0, r2, r3, r8, r9, sl}^
  20:	Address 0x00000020 is out of bounds.

