
mecrisp-stellaris-kl25z128.elf:     file format elf32-littlearm


Disassembly of section .text:

00000000 <addresszero>:
       0:	1ffff358 	svcne	0x00fff358
       4:	000046b1 			; <UNDEFINED> instruction: 0x000046b1
       8:	000045b9 			; <UNDEFINED> instruction: 0x000045b9
       c:	000045b9 			; <UNDEFINED> instruction: 0x000045b9
	...
      2c:	000045e3 	andeq	r4, r0, r3, ror #11
	...
      38:	000045e3 	andeq	r4, r0, r3, ror #11
      3c:	00004597 	muleq	r0, r7, r5
      40:	000045e3 	andeq	r4, r0, r3, ror #11
      44:	000045e3 	andeq	r4, r0, r3, ror #11
      48:	000045e3 	andeq	r4, r0, r3, ror #11
      4c:	000045e3 	andeq	r4, r0, r3, ror #11
      50:	000045e3 	andeq	r4, r0, r3, ror #11
      54:	000045e3 	andeq	r4, r0, r3, ror #11
      58:	000045e3 	andeq	r4, r0, r3, ror #11
      5c:	000045e3 	andeq	r4, r0, r3, ror #11
      60:	000045e3 	andeq	r4, r0, r3, ror #11
      64:	000045e3 	andeq	r4, r0, r3, ror #11
      68:	000045e3 	andeq	r4, r0, r3, ror #11
      6c:	000045e3 	andeq	r4, r0, r3, ror #11
      70:	000045e3 	andeq	r4, r0, r3, ror #11
      74:	000045e3 	andeq	r4, r0, r3, ror #11
      78:	000045e3 	andeq	r4, r0, r3, ror #11
      7c:	00004603 	andeq	r4, r0, r3, lsl #12
      80:	00004623 	andeq	r4, r0, r3, lsr #12
      84:	000045e3 	andeq	r4, r0, r3, ror #11
      88:	000045e3 	andeq	r4, r0, r3, ror #11
      8c:	000045e3 	andeq	r4, r0, r3, ror #11
      90:	000045e3 	andeq	r4, r0, r3, ror #11
      94:	000045e3 	andeq	r4, r0, r3, ror #11
      98:	000045e3 	andeq	r4, r0, r3, ror #11
      9c:	000045e3 	andeq	r4, r0, r3, ror #11
      a0:	000045e3 	andeq	r4, r0, r3, ror #11
      a4:	00004643 	andeq	r4, r0, r3, asr #12
      a8:	000045e3 	andeq	r4, r0, r3, ror #11
      ac:	000045e3 	andeq	r4, r0, r3, ror #11
      b0:	000045e3 	andeq	r4, r0, r3, ror #11
      b4:	000045e3 	andeq	r4, r0, r3, ror #11
      b8:	00004665 	andeq	r4, r0, r5, ror #12
      bc:	00004689 	andeq	r4, r0, r9, lsl #13
      c0:	ffffffff 			; <UNDEFINED> instruction: 0xffffffff
      c4:	ffffffff 			; <UNDEFINED> instruction: 0xffffffff
      c8:	ffffffff 			; <UNDEFINED> instruction: 0xffffffff
      cc:	ffffffff 			; <UNDEFINED> instruction: 0xffffffff
      d0:	ffffffff 			; <UNDEFINED> instruction: 0xffffffff
      d4:	ffffffff 			; <UNDEFINED> instruction: 0xffffffff
      d8:	ffffffff 			; <UNDEFINED> instruction: 0xffffffff
      dc:	ffffffff 			; <UNDEFINED> instruction: 0xffffffff
      e0:	ffffffff 			; <UNDEFINED> instruction: 0xffffffff
      e4:	ffffffff 			; <UNDEFINED> instruction: 0xffffffff
      e8:	ffffffff 			; <UNDEFINED> instruction: 0xffffffff
      ec:	ffffffff 			; <UNDEFINED> instruction: 0xffffffff
      f0:	ffffffff 			; <UNDEFINED> instruction: 0xffffffff
      f4:	ffffffff 			; <UNDEFINED> instruction: 0xffffffff
      f8:	ffffffff 			; <UNDEFINED> instruction: 0xffffffff
      fc:	ffffffff 			; <UNDEFINED> instruction: 0xffffffff
     100:	ffffffff 			; <UNDEFINED> instruction: 0xffffffff
     104:	ffffffff 			; <UNDEFINED> instruction: 0xffffffff
     108:	ffffffff 			; <UNDEFINED> instruction: 0xffffffff
     10c:	ffffffff 			; <UNDEFINED> instruction: 0xffffffff
     110:	ffffffff 			; <UNDEFINED> instruction: 0xffffffff
     114:	ffffffff 			; <UNDEFINED> instruction: 0xffffffff
     118:	ffffffff 			; <UNDEFINED> instruction: 0xffffffff
     11c:	ffffffff 			; <UNDEFINED> instruction: 0xffffffff
     120:	ffffffff 			; <UNDEFINED> instruction: 0xffffffff
     124:	ffffffff 			; <UNDEFINED> instruction: 0xffffffff
     128:	ffffffff 			; <UNDEFINED> instruction: 0xffffffff
     12c:	ffffffff 			; <UNDEFINED> instruction: 0xffffffff
     130:	ffffffff 			; <UNDEFINED> instruction: 0xffffffff
     134:	ffffffff 			; <UNDEFINED> instruction: 0xffffffff
     138:	ffffffff 			; <UNDEFINED> instruction: 0xffffffff
     13c:	ffffffff 			; <UNDEFINED> instruction: 0xffffffff
     140:	ffffffff 			; <UNDEFINED> instruction: 0xffffffff
     144:	ffffffff 			; <UNDEFINED> instruction: 0xffffffff
     148:	ffffffff 			; <UNDEFINED> instruction: 0xffffffff
     14c:	ffffffff 			; <UNDEFINED> instruction: 0xffffffff
     150:	ffffffff 			; <UNDEFINED> instruction: 0xffffffff
     154:	ffffffff 			; <UNDEFINED> instruction: 0xffffffff
     158:	ffffffff 			; <UNDEFINED> instruction: 0xffffffff
     15c:	ffffffff 			; <UNDEFINED> instruction: 0xffffffff
     160:	ffffffff 			; <UNDEFINED> instruction: 0xffffffff
     164:	ffffffff 			; <UNDEFINED> instruction: 0xffffffff
     168:	ffffffff 			; <UNDEFINED> instruction: 0xffffffff
     16c:	ffffffff 			; <UNDEFINED> instruction: 0xffffffff
     170:	ffffffff 			; <UNDEFINED> instruction: 0xffffffff
     174:	ffffffff 			; <UNDEFINED> instruction: 0xffffffff
     178:	ffffffff 			; <UNDEFINED> instruction: 0xffffffff
     17c:	ffffffff 			; <UNDEFINED> instruction: 0xffffffff
     180:	ffffffff 			; <UNDEFINED> instruction: 0xffffffff
     184:	ffffffff 			; <UNDEFINED> instruction: 0xffffffff
     188:	ffffffff 			; <UNDEFINED> instruction: 0xffffffff
     18c:	ffffffff 			; <UNDEFINED> instruction: 0xffffffff
     190:	ffffffff 			; <UNDEFINED> instruction: 0xffffffff
     194:	ffffffff 			; <UNDEFINED> instruction: 0xffffffff
     198:	ffffffff 			; <UNDEFINED> instruction: 0xffffffff
     19c:	ffffffff 			; <UNDEFINED> instruction: 0xffffffff
     1a0:	ffffffff 			; <UNDEFINED> instruction: 0xffffffff
     1a4:	ffffffff 			; <UNDEFINED> instruction: 0xffffffff
     1a8:	ffffffff 			; <UNDEFINED> instruction: 0xffffffff
     1ac:	ffffffff 			; <UNDEFINED> instruction: 0xffffffff
     1b0:	ffffffff 			; <UNDEFINED> instruction: 0xffffffff
     1b4:	ffffffff 			; <UNDEFINED> instruction: 0xffffffff
     1b8:	ffffffff 			; <UNDEFINED> instruction: 0xffffffff
     1bc:	ffffffff 			; <UNDEFINED> instruction: 0xffffffff
     1c0:	ffffffff 			; <UNDEFINED> instruction: 0xffffffff
     1c4:	ffffffff 			; <UNDEFINED> instruction: 0xffffffff
     1c8:	ffffffff 			; <UNDEFINED> instruction: 0xffffffff
     1cc:	ffffffff 			; <UNDEFINED> instruction: 0xffffffff
     1d0:	ffffffff 			; <UNDEFINED> instruction: 0xffffffff
     1d4:	ffffffff 			; <UNDEFINED> instruction: 0xffffffff
     1d8:	ffffffff 			; <UNDEFINED> instruction: 0xffffffff
     1dc:	ffffffff 			; <UNDEFINED> instruction: 0xffffffff
     1e0:	ffffffff 			; <UNDEFINED> instruction: 0xffffffff
     1e4:	ffffffff 			; <UNDEFINED> instruction: 0xffffffff
     1e8:	ffffffff 			; <UNDEFINED> instruction: 0xffffffff
     1ec:	ffffffff 			; <UNDEFINED> instruction: 0xffffffff
     1f0:	ffffffff 			; <UNDEFINED> instruction: 0xffffffff
     1f4:	ffffffff 			; <UNDEFINED> instruction: 0xffffffff
     1f8:	ffffffff 			; <UNDEFINED> instruction: 0xffffffff
     1fc:	ffffffff 			; <UNDEFINED> instruction: 0xffffffff
     200:	ffffffff 			; <UNDEFINED> instruction: 0xffffffff
     204:	ffffffff 			; <UNDEFINED> instruction: 0xffffffff
     208:	ffffffff 			; <UNDEFINED> instruction: 0xffffffff
     20c:	ffffffff 			; <UNDEFINED> instruction: 0xffffffff
     210:	ffffffff 			; <UNDEFINED> instruction: 0xffffffff
     214:	ffffffff 			; <UNDEFINED> instruction: 0xffffffff
     218:	ffffffff 			; <UNDEFINED> instruction: 0xffffffff
     21c:	ffffffff 			; <UNDEFINED> instruction: 0xffffffff
     220:	ffffffff 			; <UNDEFINED> instruction: 0xffffffff
     224:	ffffffff 			; <UNDEFINED> instruction: 0xffffffff
     228:	ffffffff 			; <UNDEFINED> instruction: 0xffffffff
     22c:	ffffffff 			; <UNDEFINED> instruction: 0xffffffff
     230:	ffffffff 			; <UNDEFINED> instruction: 0xffffffff
     234:	ffffffff 			; <UNDEFINED> instruction: 0xffffffff
     238:	ffffffff 			; <UNDEFINED> instruction: 0xffffffff
     23c:	ffffffff 			; <UNDEFINED> instruction: 0xffffffff
     240:	ffffffff 			; <UNDEFINED> instruction: 0xffffffff
     244:	ffffffff 			; <UNDEFINED> instruction: 0xffffffff
     248:	ffffffff 			; <UNDEFINED> instruction: 0xffffffff
     24c:	ffffffff 			; <UNDEFINED> instruction: 0xffffffff
     250:	ffffffff 			; <UNDEFINED> instruction: 0xffffffff
     254:	ffffffff 			; <UNDEFINED> instruction: 0xffffffff
     258:	ffffffff 			; <UNDEFINED> instruction: 0xffffffff
     25c:	ffffffff 			; <UNDEFINED> instruction: 0xffffffff
     260:	ffffffff 			; <UNDEFINED> instruction: 0xffffffff
     264:	ffffffff 			; <UNDEFINED> instruction: 0xffffffff
     268:	ffffffff 			; <UNDEFINED> instruction: 0xffffffff
     26c:	ffffffff 			; <UNDEFINED> instruction: 0xffffffff
     270:	ffffffff 			; <UNDEFINED> instruction: 0xffffffff
     274:	ffffffff 			; <UNDEFINED> instruction: 0xffffffff
     278:	ffffffff 			; <UNDEFINED> instruction: 0xffffffff
     27c:	ffffffff 			; <UNDEFINED> instruction: 0xffffffff
     280:	ffffffff 			; <UNDEFINED> instruction: 0xffffffff
     284:	ffffffff 			; <UNDEFINED> instruction: 0xffffffff
     288:	ffffffff 			; <UNDEFINED> instruction: 0xffffffff
     28c:	ffffffff 			; <UNDEFINED> instruction: 0xffffffff
     290:	ffffffff 			; <UNDEFINED> instruction: 0xffffffff
     294:	ffffffff 			; <UNDEFINED> instruction: 0xffffffff
     298:	ffffffff 			; <UNDEFINED> instruction: 0xffffffff
     29c:	ffffffff 			; <UNDEFINED> instruction: 0xffffffff
     2a0:	ffffffff 			; <UNDEFINED> instruction: 0xffffffff
     2a4:	ffffffff 			; <UNDEFINED> instruction: 0xffffffff
     2a8:	ffffffff 			; <UNDEFINED> instruction: 0xffffffff
     2ac:	ffffffff 			; <UNDEFINED> instruction: 0xffffffff
     2b0:	ffffffff 			; <UNDEFINED> instruction: 0xffffffff
     2b4:	ffffffff 			; <UNDEFINED> instruction: 0xffffffff
     2b8:	ffffffff 			; <UNDEFINED> instruction: 0xffffffff
     2bc:	ffffffff 			; <UNDEFINED> instruction: 0xffffffff
     2c0:	ffffffff 			; <UNDEFINED> instruction: 0xffffffff
     2c4:	ffffffff 			; <UNDEFINED> instruction: 0xffffffff
     2c8:	ffffffff 			; <UNDEFINED> instruction: 0xffffffff
     2cc:	ffffffff 			; <UNDEFINED> instruction: 0xffffffff
     2d0:	ffffffff 			; <UNDEFINED> instruction: 0xffffffff
     2d4:	ffffffff 			; <UNDEFINED> instruction: 0xffffffff
     2d8:	ffffffff 			; <UNDEFINED> instruction: 0xffffffff
     2dc:	ffffffff 			; <UNDEFINED> instruction: 0xffffffff
     2e0:	ffffffff 			; <UNDEFINED> instruction: 0xffffffff
     2e4:	ffffffff 			; <UNDEFINED> instruction: 0xffffffff
     2e8:	ffffffff 			; <UNDEFINED> instruction: 0xffffffff
     2ec:	ffffffff 			; <UNDEFINED> instruction: 0xffffffff
     2f0:	ffffffff 			; <UNDEFINED> instruction: 0xffffffff
     2f4:	ffffffff 			; <UNDEFINED> instruction: 0xffffffff
     2f8:	ffffffff 			; <UNDEFINED> instruction: 0xffffffff
     2fc:	ffffffff 			; <UNDEFINED> instruction: 0xffffffff
     300:	ffffffff 			; <UNDEFINED> instruction: 0xffffffff
     304:	ffffffff 			; <UNDEFINED> instruction: 0xffffffff
     308:	ffffffff 			; <UNDEFINED> instruction: 0xffffffff
     30c:	ffffffff 			; <UNDEFINED> instruction: 0xffffffff
     310:	ffffffff 			; <UNDEFINED> instruction: 0xffffffff
     314:	ffffffff 			; <UNDEFINED> instruction: 0xffffffff
     318:	ffffffff 			; <UNDEFINED> instruction: 0xffffffff
     31c:	ffffffff 			; <UNDEFINED> instruction: 0xffffffff
     320:	ffffffff 			; <UNDEFINED> instruction: 0xffffffff
     324:	ffffffff 			; <UNDEFINED> instruction: 0xffffffff
     328:	ffffffff 			; <UNDEFINED> instruction: 0xffffffff
     32c:	ffffffff 			; <UNDEFINED> instruction: 0xffffffff
     330:	ffffffff 			; <UNDEFINED> instruction: 0xffffffff
     334:	ffffffff 			; <UNDEFINED> instruction: 0xffffffff
     338:	ffffffff 			; <UNDEFINED> instruction: 0xffffffff
     33c:	ffffffff 			; <UNDEFINED> instruction: 0xffffffff
     340:	ffffffff 			; <UNDEFINED> instruction: 0xffffffff
     344:	ffffffff 			; <UNDEFINED> instruction: 0xffffffff
     348:	ffffffff 			; <UNDEFINED> instruction: 0xffffffff
     34c:	ffffffff 			; <UNDEFINED> instruction: 0xffffffff
     350:	ffffffff 			; <UNDEFINED> instruction: 0xffffffff
     354:	ffffffff 			; <UNDEFINED> instruction: 0xffffffff
     358:	ffffffff 			; <UNDEFINED> instruction: 0xffffffff
     35c:	ffffffff 			; <UNDEFINED> instruction: 0xffffffff
     360:	ffffffff 			; <UNDEFINED> instruction: 0xffffffff
     364:	ffffffff 			; <UNDEFINED> instruction: 0xffffffff
     368:	ffffffff 			; <UNDEFINED> instruction: 0xffffffff
     36c:	ffffffff 			; <UNDEFINED> instruction: 0xffffffff
     370:	ffffffff 			; <UNDEFINED> instruction: 0xffffffff
     374:	ffffffff 			; <UNDEFINED> instruction: 0xffffffff
     378:	ffffffff 			; <UNDEFINED> instruction: 0xffffffff
     37c:	ffffffff 			; <UNDEFINED> instruction: 0xffffffff
     380:	ffffffff 			; <UNDEFINED> instruction: 0xffffffff
     384:	ffffffff 			; <UNDEFINED> instruction: 0xffffffff
     388:	ffffffff 			; <UNDEFINED> instruction: 0xffffffff
     38c:	ffffffff 			; <UNDEFINED> instruction: 0xffffffff
     390:	ffffffff 			; <UNDEFINED> instruction: 0xffffffff
     394:	ffffffff 			; <UNDEFINED> instruction: 0xffffffff
     398:	ffffffff 			; <UNDEFINED> instruction: 0xffffffff
     39c:	ffffffff 			; <UNDEFINED> instruction: 0xffffffff
     3a0:	ffffffff 			; <UNDEFINED> instruction: 0xffffffff
     3a4:	ffffffff 			; <UNDEFINED> instruction: 0xffffffff
     3a8:	ffffffff 			; <UNDEFINED> instruction: 0xffffffff
     3ac:	ffffffff 			; <UNDEFINED> instruction: 0xffffffff
     3b0:	ffffffff 			; <UNDEFINED> instruction: 0xffffffff
     3b4:	ffffffff 			; <UNDEFINED> instruction: 0xffffffff
     3b8:	ffffffff 			; <UNDEFINED> instruction: 0xffffffff
     3bc:	ffffffff 			; <UNDEFINED> instruction: 0xffffffff
     3c0:	ffffffff 			; <UNDEFINED> instruction: 0xffffffff
     3c4:	ffffffff 			; <UNDEFINED> instruction: 0xffffffff
     3c8:	ffffffff 			; <UNDEFINED> instruction: 0xffffffff
     3cc:	ffffffff 			; <UNDEFINED> instruction: 0xffffffff
     3d0:	ffffffff 			; <UNDEFINED> instruction: 0xffffffff
     3d4:	ffffffff 			; <UNDEFINED> instruction: 0xffffffff
     3d8:	ffffffff 			; <UNDEFINED> instruction: 0xffffffff
     3dc:	ffffffff 			; <UNDEFINED> instruction: 0xffffffff
     3e0:	ffffffff 			; <UNDEFINED> instruction: 0xffffffff
     3e4:	ffffffff 			; <UNDEFINED> instruction: 0xffffffff
     3e8:	ffffffff 			; <UNDEFINED> instruction: 0xffffffff
     3ec:	ffffffff 			; <UNDEFINED> instruction: 0xffffffff
     3f0:	ffffffff 			; <UNDEFINED> instruction: 0xffffffff
     3f4:	ffffffff 			; <UNDEFINED> instruction: 0xffffffff
     3f8:	ffffffff 			; <UNDEFINED> instruction: 0xffffffff
     3fc:	ffffffff 			; <UNDEFINED> instruction: 0xffffffff
     400:	ffffffff 			; <UNDEFINED> instruction: 0xffffffff
     404:	ffffffff 			; <UNDEFINED> instruction: 0xffffffff
     408:	ffffffff 			; <UNDEFINED> instruction: 0xffffffff
     40c:	ffffffff 			; <UNDEFINED> instruction: 0xffffffff

00000410 <CoreDictionaryAnfang>:
     410:	000006c8 	andeq	r0, r0, r8, asr #13
     414:	2d1effff 	ldccs	15, cr15, [lr, #-1020]	; 0xfffffc04
     418:	4d202d2d 	stcmi	13, cr2, [r0, #-180]!	; 0xffffff4c
     41c:	69726365 	ldmdbvs	r2!, {r0, r2, r5, r6, r8, r9, sp, lr}^
     420:	532d7073 	teqpl	sp, #115	; 0x73
     424:	6c6c6574 	cfstr64vs	mvdx6, [ip], #-464	; 0xfffffe30
     428:	73697261 	cmnvc	r9, #268435462	; 0x10000006
     42c:	726f4320 	rsbvc	r4, pc, #-2147483648	; 0x80000000
     430:	2d2d2065 	stccs	0, cr2, [sp, #-404]!	; 0xfffffe6c
     434:	b507002d 	strlt	r0, [r7, #-45]	; 0x2d

00000436 <Code_27>:
     436:	b507      	push	{r0, r1, r2, lr}
     438:	4850      	ldr	r0, [pc, #320]	; (57c <generiere_konstante_common+0x2a>)
     43a:	2b00      	cmp	r3, #0
     43c:	d009      	beq.n	452 <Code_27+0x1c>
     43e:	f000 f82e 	bl	49e <free_3os_element>
     442:	f000 f834 	bl	4ae <elemente_einen_weiterrutschen_lassen>
     446:	f000 f81e 	bl	486 <nget_faltkonstante>
     44a:	6142      	str	r2, [r0, #20]
     44c:	2128      	movs	r1, #40	; 0x28
     44e:	6101      	str	r1, [r0, #16]
     450:	e7f3      	b.n	43a <Code_27+0x4>
     452:	bd07      	pop	{r0, r1, r2, pc}

00000454 <nfaltkonstanten_aufschwimmen>:
     454:	b507      	push	{r0, r1, r2, lr}
     456:	4849      	ldr	r0, [pc, #292]	; (57c <generiere_konstante_common+0x2a>)
     458:	6901      	ldr	r1, [r0, #16]
     45a:	2928      	cmp	r1, #40	; 0x28
     45c:	d105      	bne.n	46a <nfaltkonstanten_aufschwimmen+0x16>
     45e:	6942      	ldr	r2, [r0, #20]
     460:	f000 f804 	bl	46c <npush_faltkonstante>
     464:	f000 f8fc 	bl	660 <eliminiere_tos>
     468:	e7f6      	b.n	458 <nfaltkonstanten_aufschwimmen+0x4>
     46a:	bd07      	pop	{r0, r1, r2, pc}

0000046c <npush_faltkonstante>:
     46c:	b503      	push	{r0, r1, lr}
     46e:	3f04      	subs	r7, #4
     470:	603e      	str	r6, [r7, #0]
     472:	0016      	movs	r6, r2
     474:	3f04      	subs	r7, #4
     476:	603e      	str	r6, [r7, #0]
     478:	001e      	movs	r6, r3
     47a:	b408      	push	{r3}
     47c:	f000 feb8 	bl	11f0 <Code_208>
     480:	bc08      	pop	{r3}
     482:	3301      	adds	r3, #1
     484:	bd03      	pop	{r0, r1, pc}

00000486 <nget_faltkonstante>:
     486:	b503      	push	{r0, r1, lr}
     488:	3b01      	subs	r3, #1
     48a:	3f04      	subs	r7, #4
     48c:	603e      	str	r6, [r7, #0]
     48e:	001e      	movs	r6, r3
     490:	b408      	push	{r3}
     492:	f000 fe97 	bl	11c4 <Code_206>
     496:	bc08      	pop	{r3}
     498:	0032      	movs	r2, r6
     49a:	cf40      	ldmia	r7!, {r6}
     49c:	bd03      	pop	{r0, r1, pc}

0000049e <free_3os_element>:
     49e:	b503      	push	{r0, r1, lr}
     4a0:	4837      	ldr	r0, [pc, #220]	; (580 <generiere_konstante_common+0x2e>)
     4a2:	6801      	ldr	r1, [r0, #0]
     4a4:	291e      	cmp	r1, #30
     4a6:	d001      	beq.n	4ac <free_3os_element+0xe>
     4a8:	f000 f816 	bl	4d8 <element_to_stack>
     4ac:	bd03      	pop	{r0, r1, pc}

000004ae <elemente_einen_weiterrutschen_lassen>:
     4ae:	6981      	ldr	r1, [r0, #24]
     4b0:	6201      	str	r1, [r0, #32]
     4b2:	6901      	ldr	r1, [r0, #16]
     4b4:	6181      	str	r1, [r0, #24]
     4b6:	69c1      	ldr	r1, [r0, #28]
     4b8:	6241      	str	r1, [r0, #36]	; 0x24
     4ba:	6941      	ldr	r1, [r0, #20]
     4bc:	61c1      	str	r1, [r0, #28]
     4be:	211e      	movs	r1, #30
     4c0:	6101      	str	r1, [r0, #16]
     4c2:	4770      	bx	lr

000004c4 <befreie_tos>:
     4c4:	b50f      	push	{r0, r1, r2, r3, lr}
     4c6:	482d      	ldr	r0, [pc, #180]	; (57c <generiere_konstante_common+0x2a>)
     4c8:	6901      	ldr	r1, [r0, #16]
     4ca:	291e      	cmp	r1, #30
     4cc:	d003      	beq.n	4d6 <befreie_tos+0x12>
     4ce:	f7ff ffe6 	bl	49e <free_3os_element>
     4d2:	f7ff ffec 	bl	4ae <elemente_einen_weiterrutschen_lassen>
     4d6:	bd0f      	pop	{r0, r1, r2, r3, pc}

000004d8 <element_to_stack>:
     4d8:	b508      	push	{r3, lr}
     4da:	6801      	ldr	r1, [r0, #0]
     4dc:	221e      	movs	r2, #30
     4de:	6002      	str	r2, [r0, #0]
     4e0:	2908      	cmp	r1, #8
     4e2:	d20b      	bcs.n	4fc <element_to_stack+0x24>
     4e4:	3f04      	subs	r7, #4
     4e6:	603e      	str	r6, [r7, #0]
     4e8:	4e26      	ldr	r6, [pc, #152]	; (584 <generiere_konstante_common+0x32>)
     4ea:	f002 fe10 	bl	310e <Code_816>
     4ee:	3f04      	subs	r7, #4
     4f0:	603e      	str	r6, [r7, #0]
     4f2:	4e25      	ldr	r6, [pc, #148]	; (588 <generiere_konstante_common+0x36>)
     4f4:	430e      	orrs	r6, r1
     4f6:	f002 fe0a 	bl	310e <Code_816>
     4fa:	bd08      	pop	{r3, pc}
     4fc:	2928      	cmp	r1, #40	; 0x28
     4fe:	d10d      	bne.n	51c <element_to_stack+0x44>
     500:	3f04      	subs	r7, #4
     502:	603e      	str	r6, [r7, #0]
     504:	4e1f      	ldr	r6, [pc, #124]	; (584 <generiere_konstante_common+0x32>)
     506:	f002 fe02 	bl	310e <Code_816>
     50a:	6843      	ldr	r3, [r0, #4]
     50c:	f000 f807 	bl	51e <generiere_konstante>
     510:	3f04      	subs	r7, #4
     512:	603e      	str	r6, [r7, #0]
     514:	4e1c      	ldr	r6, [pc, #112]	; (588 <generiere_konstante_common+0x36>)
     516:	431e      	orrs	r6, r3
     518:	f002 fdf9 	bl	310e <Code_816>
     51c:	bd08      	pop	{r3, pc}

0000051e <generiere_konstante>:
     51e:	b507      	push	{r0, r1, r2, lr}
     520:	f000 f817 	bl	552 <generiere_konstante_common>
     524:	6043      	str	r3, [r0, #4]
     526:	2128      	movs	r1, #40	; 0x28
     528:	6001      	str	r1, [r0, #0]
     52a:	2300      	movs	r3, #0
     52c:	3f04      	subs	r7, #4
     52e:	603e      	str	r6, [r7, #0]
     530:	001e      	movs	r6, r3
     532:	f002 fa55 	bl	29e0 <Code_672>
     536:	bd07      	pop	{r0, r1, r2, pc}

00000538 <generiere_adresskonstante>:
     538:	b507      	push	{r0, r1, r2, lr}
     53a:	f000 f80a 	bl	552 <generiere_konstante_common>
     53e:	60c3      	str	r3, [r0, #12]
     540:	2128      	movs	r1, #40	; 0x28
     542:	6081      	str	r1, [r0, #8]
     544:	2301      	movs	r3, #1
     546:	3f04      	subs	r7, #4
     548:	603e      	str	r6, [r7, #0]
     54a:	001e      	movs	r6, r3
     54c:	f002 fa48 	bl	29e0 <Code_672>
     550:	bd07      	pop	{r0, r1, r2, pc}

00000552 <generiere_konstante_common>:
     552:	480a      	ldr	r0, [pc, #40]	; (57c <generiere_konstante_common+0x2a>)
     554:	6801      	ldr	r1, [r0, #0]
     556:	291e      	cmp	r1, #30
     558:	d004      	beq.n	564 <generiere_konstante_common+0x12>
     55a:	6841      	ldr	r1, [r0, #4]
     55c:	4299      	cmp	r1, r3
     55e:	d101      	bne.n	564 <generiere_konstante_common+0x12>
     560:	2300      	movs	r3, #0
     562:	bd07      	pop	{r0, r1, r2, pc}
     564:	6881      	ldr	r1, [r0, #8]
     566:	291e      	cmp	r1, #30
     568:	d004      	beq.n	574 <generiere_konstante_common+0x22>
     56a:	68c1      	ldr	r1, [r0, #12]
     56c:	4299      	cmp	r1, r3
     56e:	d101      	bne.n	574 <generiere_konstante_common+0x22>
     570:	2301      	movs	r3, #1
     572:	bd07      	pop	{r0, r1, r2, pc}
     574:	3f04      	subs	r7, #4
     576:	603e      	str	r6, [r7, #0]
     578:	001e      	movs	r6, r3
     57a:	4770      	bx	lr
     57c:	1ffff028 	svcne	0x00fff028
     580:	1ffff048 	svcne	0x00fff048
     584:	00003f04 	andeq	r3, r0, r4, lsl #30
     588:	00006038 	andeq	r6, r0, r8, lsr r0

0000058c <get_free_register>:
     58c:	b507      	push	{r0, r1, r2, lr}
     58e:	4821      	ldr	r0, [pc, #132]	; (614 <expect_three_elements+0x18>)
     590:	6901      	ldr	r1, [r0, #16]
     592:	6982      	ldr	r2, [r0, #24]
     594:	6a03      	ldr	r3, [r0, #32]
     596:	2906      	cmp	r1, #6
     598:	d005      	beq.n	5a6 <get_free_register+0x1a>
     59a:	2a06      	cmp	r2, #6
     59c:	d003      	beq.n	5a6 <get_free_register+0x1a>
     59e:	2b06      	cmp	r3, #6
     5a0:	d001      	beq.n	5a6 <get_free_register+0x1a>
     5a2:	2306      	movs	r3, #6
     5a4:	bd07      	pop	{r0, r1, r2, pc}
     5a6:	2903      	cmp	r1, #3
     5a8:	d005      	beq.n	5b6 <get_free_register+0x2a>
     5aa:	2a03      	cmp	r2, #3
     5ac:	d003      	beq.n	5b6 <get_free_register+0x2a>
     5ae:	2b03      	cmp	r3, #3
     5b0:	d001      	beq.n	5b6 <get_free_register+0x2a>
     5b2:	2303      	movs	r3, #3
     5b4:	bd07      	pop	{r0, r1, r2, pc}
     5b6:	2302      	movs	r3, #2
     5b8:	bd07      	pop	{r0, r1, r2, pc}

000005ba <fill_element_from_stack>:
     5ba:	b500      	push	{lr}
     5bc:	f7ff ffe6 	bl	58c <get_free_register>
     5c0:	6003      	str	r3, [r0, #0]
     5c2:	2101      	movs	r1, #1
     5c4:	4099      	lsls	r1, r3
     5c6:	3f04      	subs	r7, #4
     5c8:	603e      	str	r6, [r7, #0]
     5ca:	4e13      	ldr	r6, [pc, #76]	; (618 <expect_three_elements+0x1c>)
     5cc:	430e      	orrs	r6, r1
     5ce:	f002 fd9e 	bl	310e <Code_816>
     5d2:	bd00      	pop	{pc}

000005d4 <expect_one_element>:
     5d4:	b50f      	push	{r0, r1, r2, r3, lr}
     5d6:	480f      	ldr	r0, [pc, #60]	; (614 <expect_three_elements+0x18>)
     5d8:	6901      	ldr	r1, [r0, #16]
     5da:	291e      	cmp	r1, #30
     5dc:	d102      	bne.n	5e4 <expect_one_element+0x10>
     5de:	480f      	ldr	r0, [pc, #60]	; (61c <expect_three_elements+0x20>)
     5e0:	f7ff ffeb 	bl	5ba <fill_element_from_stack>
     5e4:	bd0f      	pop	{r0, r1, r2, r3, pc}

000005e6 <expect_two_elements>:
     5e6:	b50f      	push	{r0, r1, r2, r3, lr}
     5e8:	480a      	ldr	r0, [pc, #40]	; (614 <expect_three_elements+0x18>)
     5ea:	6981      	ldr	r1, [r0, #24]
     5ec:	291e      	cmp	r1, #30
     5ee:	d104      	bne.n	5fa <expect_two_elements+0x14>
     5f0:	f7ff fff0 	bl	5d4 <expect_one_element>
     5f4:	480a      	ldr	r0, [pc, #40]	; (620 <expect_three_elements+0x24>)
     5f6:	f7ff ffe0 	bl	5ba <fill_element_from_stack>
     5fa:	bd0f      	pop	{r0, r1, r2, r3, pc}

000005fc <expect_three_elements>:
     5fc:	b50f      	push	{r0, r1, r2, r3, lr}
     5fe:	4805      	ldr	r0, [pc, #20]	; (614 <expect_three_elements+0x18>)
     600:	6a01      	ldr	r1, [r0, #32]
     602:	291e      	cmp	r1, #30
     604:	d104      	bne.n	610 <expect_three_elements+0x14>
     606:	f7ff ffee 	bl	5e6 <expect_two_elements>
     60a:	4806      	ldr	r0, [pc, #24]	; (624 <expect_three_elements+0x28>)
     60c:	f7ff ffd5 	bl	5ba <fill_element_from_stack>
     610:	bd0f      	pop	{r0, r1, r2, r3, pc}
     612:	f0280000 			; <UNDEFINED> instruction: 0xf0280000
     616:	cf001fff 	svcgt	0x00001fff
     61a:	f0380000 			; <UNDEFINED> instruction: 0xf0380000
     61e:	f0401fff 			; <UNDEFINED> instruction: 0xf0401fff
     622:	f0481fff 			; <UNDEFINED> instruction: 0xf0481fff
     626:	b5001fff 	strlt	r1, [r0, #-4095]	; 0xfff

00000628 <expect_tos_in_register>:
     628:	b500      	push	{lr}
     62a:	6901      	ldr	r1, [r0, #16]
     62c:	2928      	cmp	r1, #40	; 0x28
     62e:	d103      	bne.n	638 <expect_tos_in_register+0x10>
     630:	6943      	ldr	r3, [r0, #20]
     632:	f7ff ff74 	bl	51e <generiere_konstante>
     636:	0019      	movs	r1, r3
     638:	bd00      	pop	{pc}

0000063a <expect_nos_in_register>:
     63a:	b500      	push	{lr}
     63c:	6981      	ldr	r1, [r0, #24]
     63e:	2928      	cmp	r1, #40	; 0x28
     640:	d103      	bne.n	64a <expect_nos_in_register+0x10>
     642:	69c3      	ldr	r3, [r0, #28]
     644:	f7ff ff6b 	bl	51e <generiere_konstante>
     648:	0019      	movs	r1, r3
     64a:	bd00      	pop	{pc}

0000064c <tos_address_operand>:
     64c:	b500      	push	{lr}
     64e:	6903      	ldr	r3, [r0, #16]
     650:	2b28      	cmp	r3, #40	; 0x28
     652:	d102      	bne.n	65a <tos_address_operand+0xe>
     654:	6943      	ldr	r3, [r0, #20]
     656:	f7ff ff6f 	bl	538 <generiere_adresskonstante>
     65a:	00db      	lsls	r3, r3, #3
     65c:	431e      	orrs	r6, r3
     65e:	bd00      	pop	{pc}

00000660 <eliminiere_tos>:
     660:	b503      	push	{r0, r1, lr}
     662:	4858      	ldr	r0, [pc, #352]	; (7c4 <alloc_speicherschreiben+0x6>)
     664:	6981      	ldr	r1, [r0, #24]
     666:	6101      	str	r1, [r0, #16]
     668:	69c1      	ldr	r1, [r0, #28]
     66a:	6141      	str	r1, [r0, #20]
     66c:	e001      	b.n	672 <eliminiere_nos+0x4>

0000066e <eliminiere_nos>:
     66e:	b503      	push	{r0, r1, lr}
     670:	4854      	ldr	r0, [pc, #336]	; (7c4 <alloc_speicherschreiben+0x6>)
     672:	6a01      	ldr	r1, [r0, #32]
     674:	6181      	str	r1, [r0, #24]
     676:	6a41      	ldr	r1, [r0, #36]	; 0x24
     678:	61c1      	str	r1, [r0, #28]
     67a:	211e      	movs	r1, #30
     67c:	6201      	str	r1, [r0, #32]
     67e:	bd03      	pop	{r0, r1, pc}

00000680 <nos_change_tos_away_later>:
     680:	b50e      	push	{r1, r2, r3, lr}
     682:	6982      	ldr	r2, [r0, #24]
     684:	6a03      	ldr	r3, [r0, #32]
     686:	429a      	cmp	r2, r3
     688:	d10a      	bne.n	6a0 <nos_change_tos_away_later+0x20>
     68a:	2a07      	cmp	r2, #7
     68c:	d808      	bhi.n	6a0 <nos_change_tos_away_later+0x20>
     68e:	3f04      	subs	r7, #4
     690:	603e      	str	r6, [r7, #0]
     692:	00d6      	lsls	r6, r2, #3
     694:	f7ff ff7a 	bl	58c <get_free_register>
     698:	431e      	orrs	r6, r3
     69a:	6183      	str	r3, [r0, #24]
     69c:	f002 fd37 	bl	310e <Code_816>
     6a0:	bd0e      	pop	{r1, r2, r3, pc}

000006a2 <make_tos_changeable>:
     6a2:	b50e      	push	{r1, r2, r3, lr}
     6a4:	6901      	ldr	r1, [r0, #16]
     6a6:	6982      	ldr	r2, [r0, #24]
     6a8:	6a03      	ldr	r3, [r0, #32]
     6aa:	4291      	cmp	r1, r2
     6ac:	d002      	beq.n	6b4 <make_tos_changeable+0x12>
     6ae:	4299      	cmp	r1, r3
     6b0:	d000      	beq.n	6b4 <make_tos_changeable+0x12>
     6b2:	bd0e      	pop	{r1, r2, r3, pc}
     6b4:	3f04      	subs	r7, #4
     6b6:	603e      	str	r6, [r7, #0]
     6b8:	00ce      	lsls	r6, r1, #3
     6ba:	f7ff ff67 	bl	58c <get_free_register>
     6be:	431e      	orrs	r6, r3
     6c0:	6103      	str	r3, [r0, #16]
     6c2:	f002 fd24 	bl	310e <Code_816>
     6c6:	bd0e      	pop	{r1, r2, r3, pc}

000006c8 <Dictionary_53>:
     6c8:	000007c8 	andeq	r0, r0, r8, asr #15
     6cc:	61090000 	mrsvs	r0, (UNDEF: 9)
     6d0:	636f6c6c 	cmnvs	pc, #27648	; 0x6c00
     6d4:	726f7461 	rsbvc	r7, pc, #1627389952	; 0x61000000

000006d8 <Code_53>:
     6d8:	b50f      	push	{r0, r1, r2, r3, lr}
     6da:	0010      	movs	r0, r2
     6dc:	f002 fb33 	bl	2d46 <suchedefinitionsende>
     6e0:	0002      	movs	r2, r0
     6e2:	3f04      	subs	r7, #4
     6e4:	603e      	str	r6, [r7, #0]
     6e6:	8816      	ldrh	r6, [r2, #0]
     6e8:	0b09      	lsrs	r1, r1, #12
     6ea:	4836      	ldr	r0, [pc, #216]	; (7c4 <alloc_speicherschreiben+0x6>)
     6ec:	2903      	cmp	r1, #3
     6ee:	d118      	bne.n	722 <alloc_kommutativ_intern+0x32>

000006f0 <alloc_kommutativ_intern>:
     6f0:	f7ff ff79 	bl	5e6 <expect_two_elements>
     6f4:	6901      	ldr	r1, [r0, #16]
     6f6:	2906      	cmp	r1, #6
     6f8:	d101      	bne.n	6fe <alloc_kommutativ_intern+0xe>
     6fa:	f000 fc91 	bl	1020 <swap_allocator>
     6fe:	6982      	ldr	r2, [r0, #24]
     700:	2a28      	cmp	r2, #40	; 0x28
     702:	d101      	bne.n	708 <alloc_kommutativ_intern+0x18>
     704:	f000 fc8c 	bl	1020 <swap_allocator>
     708:	f7ff ffba 	bl	680 <nos_change_tos_away_later>
     70c:	f7ff ff8c 	bl	628 <expect_tos_in_register>
     710:	00c9      	lsls	r1, r1, #3
     712:	6982      	ldr	r2, [r0, #24]
     714:	430e      	orrs	r6, r1
     716:	4316      	orrs	r6, r2
     718:	f002 fcf9 	bl	310e <Code_816>
     71c:	f7ff ffa0 	bl	660 <eliminiere_tos>
     720:	bd0f      	pop	{r0, r1, r2, r3, pc}
     722:	2904      	cmp	r1, #4
     724:	d11c      	bne.n	760 <alloc_unkommutativ_intern+0x3a>

00000726 <alloc_unkommutativ_intern>:
     726:	f7ff ff5e 	bl	5e6 <expect_two_elements>
     72a:	f7ff ffa9 	bl	680 <nos_change_tos_away_later>
     72e:	f7ff ff7b 	bl	628 <expect_tos_in_register>
     732:	6982      	ldr	r2, [r0, #24]
     734:	2a28      	cmp	r2, #40	; 0x28
     736:	d10b      	bne.n	750 <alloc_unkommutativ_intern+0x2a>
     738:	3f04      	subs	r7, #4
     73a:	603e      	str	r6, [r7, #0]
     73c:	69c6      	ldr	r6, [r0, #28]
     73e:	f7ff ff25 	bl	58c <get_free_register>
     742:	6183      	str	r3, [r0, #24]
     744:	3f04      	subs	r7, #4
     746:	603e      	str	r6, [r7, #0]
     748:	001e      	movs	r6, r3
     74a:	001a      	movs	r2, r3
     74c:	f002 f948 	bl	29e0 <Code_672>
     750:	00c9      	lsls	r1, r1, #3
     752:	430e      	orrs	r6, r1
     754:	4316      	orrs	r6, r2
     756:	f002 fcda 	bl	310e <Code_816>
     75a:	f7ff ff81 	bl	660 <eliminiere_tos>
     75e:	bd0f      	pop	{r0, r1, r2, r3, pc}
     760:	2906      	cmp	r1, #6
     762:	d10e      	bne.n	782 <alloc_speicherholen_intern+0x1e>

00000764 <alloc_speicherholen_intern>:
     764:	f7ff ff36 	bl	5d4 <expect_one_element>
     768:	f7ff ff70 	bl	64c <tos_address_operand>
     76c:	f7ff ff78 	bl	660 <eliminiere_tos>
     770:	f7ff fea8 	bl	4c4 <befreie_tos>
     774:	f7ff ff0a 	bl	58c <get_free_register>
     778:	6103      	str	r3, [r0, #16]
     77a:	431e      	orrs	r6, r3
     77c:	f002 fcc7 	bl	310e <Code_816>
     780:	bd0f      	pop	{r0, r1, r2, r3, pc}
     782:	2907      	cmp	r1, #7
     784:	d111      	bne.n	7aa <alloc_speicherschreiben_intern+0x24>

00000786 <alloc_speicherschreiben_intern>:
     786:	f7ff ff2e 	bl	5e6 <expect_two_elements>
     78a:	f7ff ff5f 	bl	64c <tos_address_operand>
     78e:	6983      	ldr	r3, [r0, #24]
     790:	2b28      	cmp	r3, #40	; 0x28
     792:	d102      	bne.n	79a <alloc_speicherschreiben_intern+0x14>
     794:	69c3      	ldr	r3, [r0, #28]
     796:	f7ff fec2 	bl	51e <generiere_konstante>
     79a:	431e      	orrs	r6, r3
     79c:	f002 fcb7 	bl	310e <Code_816>
     7a0:	f7ff ff5e 	bl	660 <eliminiere_tos>
     7a4:	f7ff ff5c 	bl	660 <eliminiere_tos>
     7a8:	bd0f      	pop	{r0, r1, r2, r3, pc}
     7aa:	cf40      	ldmia	r7!, {r6}
     7ac:	3201      	adds	r2, #1
     7ae:	4790      	blx	r2
     7b0:	bd0f      	pop	{r0, r1, r2, r3, pc}

000007b2 <alloc_kommutativ>:
     7b2:	b50f      	push	{r0, r1, r2, r3, lr}
     7b4:	e79c      	b.n	6f0 <alloc_kommutativ_intern>

000007b6 <alloc_unkommutativ>:
     7b6:	b50f      	push	{r0, r1, r2, r3, lr}
     7b8:	e7b5      	b.n	726 <alloc_unkommutativ_intern>

000007ba <alloc_speicherholen>:
     7ba:	b50f      	push	{r0, r1, r2, r3, lr}
     7bc:	e7d2      	b.n	764 <alloc_speicherholen_intern>

000007be <alloc_speicherschreiben>:
     7be:	b50f      	push	{r0, r1, r2, r3, lr}
     7c0:	e7e1      	b.n	786 <alloc_speicherschreiben_intern>
     7c2:	f0280000 			; <UNDEFINED> instruction: 0xf0280000
     7c6:	08781fff 	ldmdaeq	r8!, {r0, r1, r2, r3, r4, r5, r6, r7, r8, r9, sl, fp, ip}^

000007c8 <Dictionary_59>:
     7c8:	00000878 	andeq	r0, r0, r8, ror r8
     7cc:	74090000 	strvc	r0, [r9], #-0
     7d0:	75796469 	ldrbvc	r6, [r9, #-1129]!	; 0x469
     7d4:	61722d70 	cmnvs	r2, r0, ror sp

000007d8 <Code_59>:
     7d8:	b500      	push	{lr}
     7da:	f000 f805 	bl	7e8 <tidyup_register_allocator_3os>
     7de:	f000 f808 	bl	7f2 <tidyup_register_allocator_nos>
     7e2:	f000 f80b 	bl	7fc <tidyup_register_allocator_tos>
     7e6:	bd00      	pop	{pc}

000007e8 <tidyup_register_allocator_3os>:
     7e8:	b50f      	push	{r0, r1, r2, r3, lr}
     7ea:	482f      	ldr	r0, [pc, #188]	; (8a8 <Code_72+0x14>)
     7ec:	f7ff fe74 	bl	4d8 <element_to_stack>
     7f0:	bd0f      	pop	{r0, r1, r2, r3, pc}

000007f2 <tidyup_register_allocator_nos>:
     7f2:	b50f      	push	{r0, r1, r2, r3, lr}
     7f4:	482d      	ldr	r0, [pc, #180]	; (8ac <Code_72+0x18>)
     7f6:	f7ff fe6f 	bl	4d8 <element_to_stack>
     7fa:	bd0f      	pop	{r0, r1, r2, r3, pc}

000007fc <tidyup_register_allocator_tos>:
     7fc:	b50f      	push	{r0, r1, r2, r3, lr}
     7fe:	482c      	ldr	r0, [pc, #176]	; (8b0 <Code_72+0x1c>)
     800:	6901      	ldr	r1, [r0, #16]
     802:	2206      	movs	r2, #6
     804:	6102      	str	r2, [r0, #16]
     806:	291e      	cmp	r1, #30
     808:	d105      	bne.n	816 <BIT11+0x16>
     80a:	3f04      	subs	r7, #4
     80c:	603e      	str	r6, [r7, #0]
     80e:	4e29      	ldr	r6, [pc, #164]	; (8b4 <Code_72+0x20>)
     810:	f002 fc7d 	bl	310e <Code_816>
     814:	e02c      	b.n	870 <tidyup_finish>
     816:	2928      	cmp	r1, #40	; 0x28
     818:	d121      	bne.n	85e <BIT11+0x5e>
     81a:	6943      	ldr	r3, [r0, #20]
     81c:	6801      	ldr	r1, [r0, #0]
     81e:	291e      	cmp	r1, #30
     820:	d008      	beq.n	834 <BIT11+0x34>
     822:	6841      	ldr	r1, [r0, #4]
     824:	428b      	cmp	r3, r1
     826:	d105      	bne.n	834 <BIT11+0x34>
     828:	3f04      	subs	r7, #4
     82a:	603e      	str	r6, [r7, #0]
     82c:	4e22      	ldr	r6, [pc, #136]	; (8b8 <Code_72+0x24>)
     82e:	f002 fc6e 	bl	310e <Code_816>
     832:	e01d      	b.n	870 <tidyup_finish>
     834:	6881      	ldr	r1, [r0, #8]
     836:	291e      	cmp	r1, #30
     838:	d008      	beq.n	84c <BIT11+0x4c>
     83a:	68c1      	ldr	r1, [r0, #12]
     83c:	428b      	cmp	r3, r1
     83e:	d105      	bne.n	84c <BIT11+0x4c>
     840:	3f04      	subs	r7, #4
     842:	603e      	str	r6, [r7, #0]
     844:	4e1d      	ldr	r6, [pc, #116]	; (8bc <Code_72+0x28>)
     846:	f002 fc62 	bl	310e <Code_816>
     84a:	e011      	b.n	870 <tidyup_finish>
     84c:	3f04      	subs	r7, #4
     84e:	603e      	str	r6, [r7, #0]
     850:	001e      	movs	r6, r3
     852:	3f04      	subs	r7, #4
     854:	603e      	str	r6, [r7, #0]
     856:	2606      	movs	r6, #6
     858:	f002 f8c2 	bl	29e0 <Code_672>
     85c:	e008      	b.n	870 <tidyup_finish>
     85e:	2906      	cmp	r1, #6
     860:	d006      	beq.n	870 <tidyup_finish>
     862:	3f04      	subs	r7, #4
     864:	603e      	str	r6, [r7, #0]
     866:	4e14      	ldr	r6, [pc, #80]	; (8b8 <Code_72+0x24>)
     868:	00c9      	lsls	r1, r1, #3
     86a:	430e      	orrs	r6, r1
     86c:	f002 fc4f 	bl	310e <Code_816>

00000870 <tidyup_finish>:
     870:	f000 f810 	bl	894 <Code_72>
     874:	bd0f      	pop	{r0, r1, r2, r3, pc}
     876:	46c0      	nop			; (mov r8, r8)

00000878 <Dictionary_72>:
     878:	000008c0 	andeq	r0, r0, r0, asr #17
     87c:	69150000 	ldmdbvs	r5, {}	; <UNPREDICTABLE>
     880:	7274696e 	rsbsvc	r6, r4, #1802240	; 0x1b8000
     884:	73696765 	cmnvc	r9, #26476544	; 0x1940000
     888:	61726574 	cmnvs	r2, r4, ror r5
     88c:	636f6c6c 	cmnvs	pc, #27648	; 0x6c00
     890:	726f7461 	rsbvc	r7, pc, #1627389952	; 0x61000000

00000894 <Code_72>:
     894:	4806      	ldr	r0, [pc, #24]	; (8b0 <Code_72+0x1c>)
     896:	211e      	movs	r1, #30
     898:	6001      	str	r1, [r0, #0]
     89a:	6081      	str	r1, [r0, #8]
     89c:	6201      	str	r1, [r0, #32]
     89e:	6181      	str	r1, [r0, #24]
     8a0:	2106      	movs	r1, #6
     8a2:	6101      	str	r1, [r0, #16]
     8a4:	4770      	bx	lr
     8a6:	f0480000 			; <UNDEFINED> instruction: 0xf0480000
     8aa:	f0401fff 			; <UNDEFINED> instruction: 0xf0401fff
     8ae:	f0281fff 			; <UNDEFINED> instruction: 0xf0281fff
     8b2:	cf401fff 	svcgt	0x00401fff
     8b6:	46060000 	strmi	r0, [r6], -r0
     8ba:	460e0000 	strmi	r0, [lr], -r0
	...

000008c0 <Dictionary_73>:
     8c0:	000008d8 	ldrdeq	r0, [r0], -r8
     8c4:	32040042 	andcc	r0, r4, #66	; 0x42
     8c8:	00707564 	rsbseq	r7, r0, r4, ror #10

000008cc <Code_73>:
     8cc:	6838      	ldr	r0, [r7, #0]
     8ce:	3f04      	subs	r7, #4
     8d0:	603e      	str	r6, [r7, #0]
     8d2:	3f04      	subs	r7, #4
     8d4:	6038      	str	r0, [r7, #0]
     8d6:	4770      	bx	lr

000008d8 <Dictionary_75>:
     8d8:	000008ec 	andeq	r0, r0, ip, ror #17
     8dc:	32050062 	andcc	r0, r5, #98	; 0x62
     8e0:	706f7264 	rsbvc	r7, pc, r4, ror #4

000008e4 <Code_75>:
     8e4:	3704      	adds	r7, #4
     8e6:	cf40      	ldmia	r7!, {r6}
     8e8:	4770      	bx	lr
     8ea:	46c0      	nop			; (mov r8, r8)

000008ec <Dictionary_77>:
     8ec:	0000090c 	andeq	r0, r0, ip, lsl #18
     8f0:	32050044 	andcc	r0, r5, #68	; 0x44
     8f4:	70617773 	rsbvc	r7, r1, r3, ror r7

000008f8 <Code_77>:
     8f8:	cf07      	ldmia	r7!, {r0, r1, r2}
     8fa:	3f04      	subs	r7, #4
     8fc:	6038      	str	r0, [r7, #0]
     8fe:	3f04      	subs	r7, #4
     900:	603e      	str	r6, [r7, #0]
     902:	3f04      	subs	r7, #4
     904:	603a      	str	r2, [r7, #0]
     906:	000e      	movs	r6, r1
     908:	4770      	bx	lr
     90a:	46c0      	nop			; (mov r8, r8)

0000090c <Dictionary_79>:
     90c:	00000920 	andeq	r0, r0, r0, lsr #18
     910:	32040062 	andcc	r0, r4, #98	; 0x62
     914:	0070696e 	rsbseq	r6, r0, lr, ror #18

00000918 <Code_79>:
     918:	cf07      	ldmia	r7!, {r0, r1, r2}
     91a:	3f04      	subs	r7, #4
     91c:	6038      	str	r0, [r7, #0]
     91e:	4770      	bx	lr

00000920 <Dictionary_80>:
     920:	0000093c 	andeq	r0, r0, ip, lsr r9
     924:	32050044 	andcc	r0, r5, #68	; 0x44
     928:	7265766f 	rsbvc	r7, r5, #116391936	; 0x6f00000

0000092c <Code_80>:
     92c:	68b8      	ldr	r0, [r7, #8]
     92e:	3f04      	subs	r7, #4
     930:	603e      	str	r6, [r7, #0]
     932:	3f04      	subs	r7, #4
     934:	6038      	str	r0, [r7, #0]
     936:	68fe      	ldr	r6, [r7, #12]
     938:	4770      	bx	lr
     93a:	46c0      	nop			; (mov r8, r8)

0000093c <Dictionary_82>:
     93c:	00000960 	andeq	r0, r0, r0, ror #18
     940:	32050044 	andcc	r0, r5, #68	; 0x44
     944:	6b637574 	blvs	18ddf1c <BIT24+0x8ddf1c>

00000948 <Code_82>:
     948:	cf07      	ldmia	r7!, {r0, r1, r2}
     94a:	3f04      	subs	r7, #4
     94c:	6038      	str	r0, [r7, #0]
     94e:	3f04      	subs	r7, #4
     950:	603e      	str	r6, [r7, #0]
     952:	3f04      	subs	r7, #4
     954:	603a      	str	r2, [r7, #0]
     956:	3f04      	subs	r7, #4
     958:	6039      	str	r1, [r7, #0]
     95a:	3f04      	subs	r7, #4
     95c:	6038      	str	r0, [r7, #0]
     95e:	4770      	bx	lr

00000960 <Dictionary_84>:
     960:	00000984 	andeq	r0, r0, r4, lsl #19
     964:	32040046 	andcc	r0, r4, #70	; 0x46
     968:	00746f72 	rsbseq	r6, r4, r2, ror pc

0000096c <Code_84>:
     96c:	6838      	ldr	r0, [r7, #0]
     96e:	68b9      	ldr	r1, [r7, #8]
     970:	693a      	ldr	r2, [r7, #16]
     972:	60b8      	str	r0, [r7, #8]
     974:	6139      	str	r1, [r7, #16]
     976:	603a      	str	r2, [r7, #0]
     978:	6879      	ldr	r1, [r7, #4]
     97a:	607e      	str	r6, [r7, #4]
     97c:	68fe      	ldr	r6, [r7, #12]
     97e:	60f9      	str	r1, [r7, #12]
     980:	4770      	bx	lr
     982:	46c0      	nop			; (mov r8, r8)

00000984 <Dictionary_85>:
     984:	000009a8 	andeq	r0, r0, r8, lsr #19
     988:	32050046 	andcc	r0, r5, #70	; 0x46
     98c:	746f722d 	strbtvc	r7, [pc], #-557	; 994 <Code_85+0x4>

00000990 <Code_85>:
     990:	6838      	ldr	r0, [r7, #0]
     992:	68b9      	ldr	r1, [r7, #8]
     994:	693a      	ldr	r2, [r7, #16]
     996:	6138      	str	r0, [r7, #16]
     998:	6039      	str	r1, [r7, #0]
     99a:	60ba      	str	r2, [r7, #8]
     99c:	68f9      	ldr	r1, [r7, #12]
     99e:	60fe      	str	r6, [r7, #12]
     9a0:	687e      	ldr	r6, [r7, #4]
     9a2:	6079      	str	r1, [r7, #4]
     9a4:	4770      	bx	lr
     9a6:	46c0      	nop			; (mov r8, r8)

000009a8 <Dictionary_86>:
     9a8:	000009bc 			; <UNDEFINED> instruction: 0x000009bc
     9ac:	32030020 	andcc	r0, r3, #32
     9b0:	cf01723e 	svcgt	0x0001723e

000009b2 <Code_86>:
     9b2:	cf01      	ldmia	r7!, {r0}
     9b4:	b401      	push	{r0}
     9b6:	b440      	push	{r6}
     9b8:	cf40      	ldmia	r7!, {r6}
     9ba:	4770      	bx	lr

000009bc <Dictionary_87>:
     9bc:	000009d4 	ldrdeq	r0, [r0], -r4
     9c0:	32030020 	andcc	r0, r3, #32
     9c4:	3f043e72 	svccc	0x00043e72

000009c6 <Code_87>:
     9c6:	3f04      	subs	r7, #4
     9c8:	603e      	str	r6, [r7, #0]
     9ca:	bc40      	pop	{r6}
     9cc:	bc01      	pop	{r0}
     9ce:	3f04      	subs	r7, #4
     9d0:	6038      	str	r0, [r7, #0]
     9d2:	4770      	bx	lr

000009d4 <Dictionary_89>:
     9d4:	000009ec 	andeq	r0, r0, ip, ror #19
     9d8:	32030020 	andcc	r0, r3, #32
     9dc:	3f044072 	svccc	0x00044072

000009de <Code_89>:
     9de:	3f04      	subs	r7, #4
     9e0:	603e      	str	r6, [r7, #0]
     9e2:	9e01      	ldr	r6, [sp, #4]
     9e4:	3f04      	subs	r7, #4
     9e6:	603e      	str	r6, [r7, #0]
     9e8:	9e00      	ldr	r6, [sp, #0]
     9ea:	4770      	bx	lr

000009ec <Dictionary_92>:
     9ec:	00000a00 	andeq	r0, r0, r0, lsl #20
     9f0:	32060020 	andcc	r0, r6, #32
     9f4:	6f726472 	svcvs	0x00726472
     9f8:	b0020070 	andlt	r0, r2, r0, ror r0

000009fa <Code_92>:
     9fa:	b002      	add	sp, #8
     9fc:	4770      	bx	lr
     9fe:	46c0      	nop			; (mov r8, r8)

00000a00 <Dictionary_93>:
     a00:	00000a18 	andeq	r0, r0, r8, lsl sl
     a04:	64030042 	strvs	r0, [r3], #-66	; 0x42
     a08:	68382f32 	ldmdavs	r8!, {r1, r4, r5, r8, r9, sl, fp, sp}

00000a0a <Code_93>:
     a0a:	6838      	ldr	r0, [r7, #0]
     a0c:	07f1      	lsls	r1, r6, #31
     a0e:	1076      	asrs	r6, r6, #1
     a10:	0840      	lsrs	r0, r0, #1
     a12:	4308      	orrs	r0, r1
     a14:	6038      	str	r0, [r7, #0]
     a16:	4770      	bx	lr

00000a18 <Dictionary_94>:
     a18:	00000a2c 	andeq	r0, r0, ip, lsr #20
     a1c:	64030062 	strvs	r0, [r3], #-98	; 0x62
     a20:	68382a32 	ldmdavs	r8!, {r1, r4, r5, r9, fp, sp}

00000a22 <Code_94>:
     a22:	6838      	ldr	r0, [r7, #0]
     a24:	1800      	adds	r0, r0, r0
     a26:	4176      	adcs	r6, r6
     a28:	6038      	str	r0, [r7, #0]
     a2a:	4770      	bx	lr

00000a2c <Dictionary_95>:
     a2c:	00000a48 	andeq	r0, r0, r8, asr #20
     a30:	64040042 	strvs	r0, [r4], #-66	; 0x42
     a34:	00726873 	rsbseq	r6, r2, r3, ror r8

00000a38 <Code_95>:
     a38:	6838      	ldr	r0, [r7, #0]
     a3a:	07f1      	lsls	r1, r6, #31
     a3c:	0876      	lsrs	r6, r6, #1
     a3e:	0840      	lsrs	r0, r0, #1
     a40:	4308      	orrs	r0, r1
     a42:	6038      	str	r0, [r7, #0]
     a44:	4770      	bx	lr
     a46:	46c0      	nop			; (mov r8, r8)

00000a48 <Dictionary_96>:
     a48:	00000a60 	andeq	r0, r0, r0, ror #20
     a4c:	64040062 	strvs	r0, [r4], #-98	; 0x62
     a50:	006c6873 	rsbeq	r6, ip, r3, ror r8

00000a54 <Code_96>:
     a54:	6838      	ldr	r0, [r7, #0]
     a56:	1800      	adds	r0, r0, r0
     a58:	4176      	adcs	r6, r6
     a5a:	6038      	str	r0, [r7, #0]
     a5c:	4770      	bx	lr
     a5e:	46c0      	nop			; (mov r8, r8)

00000a60 <Dictionary_97>:
     a60:	00000a74 	andeq	r0, r0, r4, ror sl
     a64:	64040042 	strvs	r0, [r4], #-66	; 0x42
     a68:	00736261 	rsbseq	r6, r3, r1, ror #4

00000a6c <Code_97>:
     a6c:	2e00      	cmp	r6, #0
     a6e:	d408      	bmi.n	a82 <Code_98>
     a70:	4770      	bx	lr
     a72:	46c0      	nop			; (mov r8, r8)

00000a74 <Dictionary_98>:
     a74:	00000a94 	muleq	r0, r4, sl
     a78:	64070042 	strvs	r0, [r7], #-66	; 0x42
     a7c:	6167656e 	cmnvs	r7, lr, ror #10
     a80:	68386574 	ldmdavs	r8!, {r2, r4, r5, r6, r8, sl, sp, lr}

00000a82 <Code_98>:
     a82:	6838      	ldr	r0, [r7, #0]
     a84:	2100      	movs	r1, #0
     a86:	43c0      	mvns	r0, r0
     a88:	43f6      	mvns	r6, r6
     a8a:	3001      	adds	r0, #1
     a8c:	414e      	adcs	r6, r1
     a8e:	6038      	str	r0, [r7, #0]
     a90:	4770      	bx	lr
     a92:	46c0      	nop			; (mov r8, r8)

00000a94 <Dictionary_99>:
     a94:	00000aac 	andeq	r0, r0, ip, lsr #21
     a98:	64020064 	strvs	r0, [r2], #-100	; 0x64
     a9c:	cf07002d 	svcgt	0x0007002d

00000a9e <Code_99>:
     a9e:	cf07      	ldmia	r7!, {r0, r1, r2}
     aa0:	1a12      	subs	r2, r2, r0
     aa2:	41b1      	sbcs	r1, r6
     aa4:	000e      	movs	r6, r1
     aa6:	3f04      	subs	r7, #4
     aa8:	603a      	str	r2, [r7, #0]
     aaa:	4770      	bx	lr

00000aac <Dictionary_100>:
     aac:	00000ac4 	andeq	r0, r0, r4, asr #21
     ab0:	64020064 	strvs	r0, [r2], #-100	; 0x64
     ab4:	cf07002b 	svcgt	0x0007002b

00000ab6 <Code_100>:
     ab6:	cf07      	ldmia	r7!, {r0, r1, r2}
     ab8:	1812      	adds	r2, r2, r0
     aba:	414e      	adcs	r6, r1
     abc:	3f04      	subs	r7, #4
     abe:	603a      	str	r2, [r7, #0]
     ac0:	4770      	bx	lr
     ac2:	46c0      	nop			; (mov r8, r8)

00000ac4 <Dictionary_101>:
     ac4:	00000ad8 	ldrdeq	r0, [r0], -r8
     ac8:	73030061 	movwvc	r0, #12385	; 0x3061
     acc:	3f04643e 	svccc	0x0004643e

00000ace <Code_101>:
     ace:	3f04      	subs	r7, #4
     ad0:	603e      	str	r6, [r7, #0]
     ad2:	17f6      	asrs	r6, r6, #31
     ad4:	4770      	bx	lr
     ad6:	46c0      	nop			; (mov r8, r8)

00000ad8 <Dictionary_103>:
     ad8:	00000b04 	andeq	r0, r0, r4, lsl #22
     adc:	75030042 	strvc	r0, [r3, #-66]	; 0x42
     ae0:	68382a6d 	ldmdavs	r8!, {r0, r2, r3, r5, r6, r9, fp, sp}

00000ae2 <Code_103>:
     ae2:	6838      	ldr	r0, [r7, #0]
     ae4:	0003      	movs	r3, r0
     ae6:	4373      	muls	r3, r6
     ae8:	603b      	str	r3, [r7, #0]
     aea:	0c01      	lsrs	r1, r0, #16
     aec:	0c32      	lsrs	r2, r6, #16
     aee:	000b      	movs	r3, r1
     af0:	4353      	muls	r3, r2
     af2:	b2b6      	uxth	r6, r6
     af4:	b280      	uxth	r0, r0
     af6:	434e      	muls	r6, r1
     af8:	4350      	muls	r0, r2
     afa:	1836      	adds	r6, r6, r0
     afc:	0c36      	lsrs	r6, r6, #16
     afe:	18f6      	adds	r6, r6, r3
     b00:	4770      	bx	lr
     b02:	46c0      	nop			; (mov r8, r8)

00000b04 <Dictionary_104>:
     b04:	00000b34 	andeq	r0, r0, r4, lsr fp
     b08:	6d020042 	stcvs	0, cr0, [r2, #-264]	; 0xfffffef8
     b0c:	6838002a 	ldmdavs	r8!, {r1, r3, r5}

00000b0e <Code_104>:
     b0e:	6838      	ldr	r0, [r7, #0]
     b10:	17c1      	asrs	r1, r0, #31
     b12:	d005      	beq.n	b20 <Code_104+0x12>
     b14:	4240      	negs	r0, r0
     b16:	6038      	str	r0, [r7, #0]
     b18:	17f0      	asrs	r0, r6, #31
     b1a:	d004      	beq.n	b26 <Code_104+0x18>
     b1c:	4276      	negs	r6, r6
     b1e:	e7e0      	b.n	ae2 <Code_103>
     b20:	17f0      	asrs	r0, r6, #31
     b22:	d0de      	beq.n	ae2 <Code_103>
     b24:	4276      	negs	r6, r6
     b26:	b500      	push	{lr}
     b28:	f7ff ffdb 	bl	ae2 <Code_103>
     b2c:	f7ff ffa9 	bl	a82 <Code_98>
     b30:	bd00      	pop	{pc}
     b32:	46c0      	nop			; (mov r8, r8)

00000b34 <Dictionary_105>:
     b34:	00000b74 	andeq	r0, r0, r4, ror fp
     b38:	75030044 	strvc	r0, [r3, #-68]	; 0x44
     b3c:	cf072a64 	svcgt	0x00072a64

00000b3e <Code_105>:
     b3e:	cf07      	ldmia	r7!, {r0, r1, r2}
     b40:	4356      	muls	r6, r2
     b42:	4341      	muls	r1, r0
     b44:	1876      	adds	r6, r6, r1
     b46:	0c01      	lsrs	r1, r0, #16
     b48:	0c13      	lsrs	r3, r2, #16
     b4a:	4359      	muls	r1, r3
     b4c:	1876      	adds	r6, r6, r1
     b4e:	0c01      	lsrs	r1, r0, #16
     b50:	b280      	uxth	r0, r0
     b52:	b292      	uxth	r2, r2
     b54:	4351      	muls	r1, r2
     b56:	4343      	muls	r3, r0
     b58:	4350      	muls	r0, r2
     b5a:	2200      	movs	r2, #0
     b5c:	18c9      	adds	r1, r1, r3
     b5e:	4152      	adcs	r2, r2
     b60:	0412      	lsls	r2, r2, #16
     b62:	18b6      	adds	r6, r6, r2
     b64:	040a      	lsls	r2, r1, #16
     b66:	0c09      	lsrs	r1, r1, #16
     b68:	1880      	adds	r0, r0, r2
     b6a:	414e      	adcs	r6, r1
     b6c:	3f04      	subs	r7, #4
     b6e:	6038      	str	r0, [r7, #0]
     b70:	4770      	bx	lr
     b72:	46c0      	nop			; (mov r8, r8)

00000b74 <Dictionary_106>:
     b74:	00000c08 	andeq	r0, r0, r8, lsl #24
     b78:	75040044 	strvc	r0, [r4, #-68]	; 0x44
     b7c:	002a6d64 	eoreq	r6, sl, r4, ror #26

00000b80 <Code_106>:
     b80:	b510      	push	{r4, lr}
     b82:	2400      	movs	r4, #0
     b84:	3f04      	subs	r7, #4
     b86:	603e      	str	r6, [r7, #0]
     b88:	687e      	ldr	r6, [r7, #4]
     b8a:	3f04      	subs	r7, #4
     b8c:	603e      	str	r6, [r7, #0]
     b8e:	693e      	ldr	r6, [r7, #16]
     b90:	f7ff ffa7 	bl	ae2 <Code_103>
     b94:	0031      	movs	r1, r6
     b96:	cf40      	ldmia	r7!, {r6}
     b98:	0030      	movs	r0, r6
     b9a:	cf40      	ldmia	r7!, {r6}
     b9c:	3f04      	subs	r7, #4
     b9e:	603e      	str	r6, [r7, #0]
     ba0:	683e      	ldr	r6, [r7, #0]
     ba2:	3f04      	subs	r7, #4
     ba4:	603e      	str	r6, [r7, #0]
     ba6:	68fe      	ldr	r6, [r7, #12]
     ba8:	b403      	push	{r0, r1}
     baa:	f7ff ff9a 	bl	ae2 <Code_103>
     bae:	bc03      	pop	{r0, r1}
     bb0:	0033      	movs	r3, r6
     bb2:	cf40      	ldmia	r7!, {r6}
     bb4:	0032      	movs	r2, r6
     bb6:	cf40      	ldmia	r7!, {r6}
     bb8:	3f04      	subs	r7, #4
     bba:	603e      	str	r6, [r7, #0]
     bbc:	683e      	ldr	r6, [r7, #0]
     bbe:	3f04      	subs	r7, #4
     bc0:	603e      	str	r6, [r7, #0]
     bc2:	693e      	ldr	r6, [r7, #16]
     bc4:	b40f      	push	{r0, r1, r2, r3}
     bc6:	f7ff ff8c 	bl	ae2 <Code_103>
     bca:	bc0f      	pop	{r0, r1, r2, r3}
     bcc:	1992      	adds	r2, r2, r6
     bce:	4163      	adcs	r3, r4
     bd0:	cf40      	ldmia	r7!, {r6}
     bd2:	1989      	adds	r1, r1, r6
     bd4:	4162      	adcs	r2, r4
     bd6:	4163      	adcs	r3, r4
     bd8:	cf40      	ldmia	r7!, {r6}
     bda:	3f04      	subs	r7, #4
     bdc:	603e      	str	r6, [r7, #0]
     bde:	687e      	ldr	r6, [r7, #4]
     be0:	3f04      	subs	r7, #4
     be2:	603e      	str	r6, [r7, #0]
     be4:	68fe      	ldr	r6, [r7, #12]
     be6:	b40f      	push	{r0, r1, r2, r3}
     be8:	f7ff ff7b 	bl	ae2 <Code_103>
     bec:	bc0f      	pop	{r0, r1, r2, r3}
     bee:	1992      	adds	r2, r2, r6
     bf0:	4163      	adcs	r3, r4
     bf2:	cf40      	ldmia	r7!, {r6}
     bf4:	1989      	adds	r1, r1, r6
     bf6:	4162      	adcs	r2, r4
     bf8:	4163      	adcs	r3, r4
     bfa:	cf40      	ldmia	r7!, {r6}
     bfc:	001e      	movs	r6, r3
     bfe:	603a      	str	r2, [r7, #0]
     c00:	6079      	str	r1, [r7, #4]
     c02:	60b8      	str	r0, [r7, #8]
     c04:	bd10      	pop	{r4, pc}
     c06:	46c0      	nop			; (mov r8, r8)

00000c08 <Dictionary_123>:
     c08:	00000c2c 	andeq	r0, r0, ip, lsr #24
     c0c:	2a020043 	bcs	80d20 <BIT19+0xd20>
     c10:	b500002f 	strlt	r0, [r0, #-47]	; 0x2f

00000c12 <Code_123>:
     c12:	b500      	push	{lr}
     c14:	b440      	push	{r6}
     c16:	cf40      	ldmia	r7!, {r6}
     c18:	f7ff ff79 	bl	b0e <Code_104>
     c1c:	3f04      	subs	r7, #4
     c1e:	603e      	str	r6, [r7, #0]
     c20:	bc40      	pop	{r6}
     c22:	f000 f84f 	bl	cc4 <Code_146>
     c26:	3704      	adds	r7, #4
     c28:	bd00      	pop	{pc}
     c2a:	46c0      	nop			; (mov r8, r8)

00000c2c <Dictionary_128>:
     c2c:	00000c50 	andeq	r0, r0, r0, asr ip
     c30:	2a050043 	bcs	140d44 <BIT20+0x40d44>
     c34:	646f6d2f 	strbtvs	r6, [pc], #-3375	; c3c <Code_128+0x4>

00000c38 <Code_128>:
     c38:	b500      	push	{lr}
     c3a:	b440      	push	{r6}
     c3c:	cf40      	ldmia	r7!, {r6}
     c3e:	f7ff ff66 	bl	b0e <Code_104>
     c42:	3f04      	subs	r7, #4
     c44:	603e      	str	r6, [r7, #0]
     c46:	bc40      	pop	{r6}
     c48:	f000 f83c 	bl	cc4 <Code_146>
     c4c:	bd00      	pop	{pc}
     c4e:	46c0      	nop			; (mov r8, r8)

00000c50 <Dictionary_132>:
     c50:	00000c74 	andeq	r0, r0, r4, ror ip
     c54:	75030043 	strvc	r0, [r3, #-67]	; 0x43
     c58:	b5002f2a 	strlt	r2, [r0, #-3882]	; 0xf2a

00000c5a <Code_132>:
     c5a:	b500      	push	{lr}
     c5c:	b440      	push	{r6}
     c5e:	cf40      	ldmia	r7!, {r6}
     c60:	f7ff ff3f 	bl	ae2 <Code_103>
     c64:	3f04      	subs	r7, #4
     c66:	603e      	str	r6, [r7, #0]
     c68:	bc40      	pop	{r6}
     c6a:	f000 f81c 	bl	ca6 <Code_141>
     c6e:	3704      	adds	r7, #4
     c70:	bd00      	pop	{pc}
     c72:	46c0      	nop			; (mov r8, r8)

00000c74 <Dictionary_137>:
     c74:	00000c98 	muleq	r0, r8, ip
     c78:	75060043 	strvc	r0, [r6, #-67]	; 0x43
     c7c:	6f6d2f2a 	svcvs	0x006d2f2a
     c80:	b5000064 	strlt	r0, [r0, #-100]	; 0x64

00000c82 <Code_137>:
     c82:	b500      	push	{lr}
     c84:	b440      	push	{r6}
     c86:	cf40      	ldmia	r7!, {r6}
     c88:	f7ff ff2b 	bl	ae2 <Code_103>
     c8c:	3f04      	subs	r7, #4
     c8e:	603e      	str	r6, [r7, #0]
     c90:	bc40      	pop	{r6}
     c92:	f000 f808 	bl	ca6 <Code_141>
     c96:	bd00      	pop	{pc}

00000c98 <Dictionary_141>:
     c98:	00000cb8 			; <UNDEFINED> instruction: 0x00000cb8
     c9c:	75060043 	strvc	r0, [r6, #-67]	; 0x43
     ca0:	6f6d2f6d 	svcvs	0x006d2f6d
     ca4:	b5000064 	strlt	r0, [r0, #-100]	; 0x64

00000ca6 <Code_141>:
     ca6:	b500      	push	{lr}
     ca8:	3f04      	subs	r7, #4
     caa:	603e      	str	r6, [r7, #0]
     cac:	2600      	movs	r6, #0
     cae:	f000 f81a 	bl	ce6 <Code_150>
     cb2:	cf40      	ldmia	r7!, {r6}
     cb4:	3704      	adds	r7, #4
     cb6:	bd00      	pop	{pc}

00000cb8 <Dictionary_146>:
     cb8:	00000cd8 	ldrdeq	r0, [r0], -r8
     cbc:	6d050043 	stcvs	0, cr0, [r5, #-268]	; 0xfffffef4
     cc0:	646f6d2f 	strbtvs	r6, [pc], #-3375	; cc8 <Code_146+0x4>

00000cc4 <Code_146>:
     cc4:	b500      	push	{lr}
     cc6:	3f04      	subs	r7, #4
     cc8:	603e      	str	r6, [r7, #0]
     cca:	17f6      	asrs	r6, r6, #31
     ccc:	f000 f834 	bl	d38 <Code_152>
     cd0:	cf40      	ldmia	r7!, {r6}
     cd2:	3704      	adds	r7, #4
     cd4:	bd00      	pop	{pc}
     cd6:	46c0      	nop			; (mov r8, r8)

00000cd8 <Dictionary_150>:
     cd8:	00000d2c 	andeq	r0, r0, ip, lsr #26
     cdc:	75060044 	strvc	r0, [r6, #-68]	; 0x44
     ce0:	6f6d2f64 	svcvs	0x006d2f64
     ce4:	b4300064 	ldrtlt	r0, [r0], #-100	; 0x64

00000ce6 <Code_150>:
     ce6:	b430      	push	{r4, r5}
     ce8:	2300      	movs	r3, #0
     cea:	2200      	movs	r2, #0
     cec:	6879      	ldr	r1, [r7, #4]
     cee:	68b8      	ldr	r0, [r7, #8]

00000cf0 <ud_slash_mod_internal>:
     cf0:	0035      	movs	r5, r6
     cf2:	683c      	ldr	r4, [r7, #0]
     cf4:	2640      	movs	r6, #64	; 0x40
     cf6:	0040      	lsls	r0, r0, #1
     cf8:	4149      	adcs	r1, r1
     cfa:	4152      	adcs	r2, r2
     cfc:	415b      	adcs	r3, r3
     cfe:	42ab      	cmp	r3, r5
     d00:	d802      	bhi.n	d08 <ud_slash_mod_internal+0x18>
     d02:	d304      	bcc.n	d0e <ud_slash_mod_internal+0x1e>
     d04:	42a2      	cmp	r2, r4
     d06:	d302      	bcc.n	d0e <ud_slash_mod_internal+0x1e>
     d08:	1b12      	subs	r2, r2, r4
     d0a:	41ab      	sbcs	r3, r5
     d0c:	3001      	adds	r0, #1
     d0e:	3e01      	subs	r6, #1
     d10:	d1f1      	bne.n	cf6 <ud_slash_mod_internal+0x6>
     d12:	000e      	movs	r6, r1
     d14:	6038      	str	r0, [r7, #0]
     d16:	607b      	str	r3, [r7, #4]
     d18:	60ba      	str	r2, [r7, #8]
     d1a:	bc30      	pop	{r4, r5}
     d1c:	4770      	bx	lr

00000d1e <uf_slash_mod>:
     d1e:	b430      	push	{r4, r5}
     d20:	2300      	movs	r3, #0
     d22:	687a      	ldr	r2, [r7, #4]
     d24:	68b9      	ldr	r1, [r7, #8]
     d26:	2000      	movs	r0, #0
     d28:	e7e2      	b.n	cf0 <ud_slash_mod_internal>
     d2a:	46c0      	nop			; (mov r8, r8)

00000d2c <Dictionary_152>:
     d2c:	00000da4 	andeq	r0, r0, r4, lsr #27
     d30:	64050044 	strvs	r0, [r5], #-68	; 0x44
     d34:	646f6d2f 	strbtvs	r6, [pc], #-3375	; d3c <Code_152+0x4>

00000d38 <Code_152>:
     d38:	b500      	push	{lr}
     d3a:	17f0      	asrs	r0, r6, #31
     d3c:	d019      	beq.n	d72 <Code_152+0x3a>
     d3e:	f7ff fea0 	bl	a82 <Code_98>
     d42:	f7ff fdd9 	bl	8f8 <Code_77>
     d46:	17f0      	asrs	r0, r6, #31
     d48:	d00c      	beq.n	d64 <Code_152+0x2c>
     d4a:	f7ff fe9a 	bl	a82 <Code_98>
     d4e:	f7ff fdd3 	bl	8f8 <Code_77>
     d52:	f7ff ffc8 	bl	ce6 <Code_150>
     d56:	f7ff fdcf 	bl	8f8 <Code_77>
     d5a:	f7ff fe92 	bl	a82 <Code_98>
     d5e:	f7ff fdcb 	bl	8f8 <Code_77>
     d62:	bd00      	pop	{pc}
     d64:	f7ff fdc8 	bl	8f8 <Code_77>
     d68:	f7ff ffbd 	bl	ce6 <Code_150>
     d6c:	f7ff fe89 	bl	a82 <Code_98>
     d70:	bd00      	pop	{pc}
     d72:	f7ff fdc1 	bl	8f8 <Code_77>
     d76:	17f0      	asrs	r0, r6, #31
     d78:	d00e      	beq.n	d98 <Code_152+0x60>
     d7a:	f7ff fe82 	bl	a82 <Code_98>
     d7e:	f7ff fdbb 	bl	8f8 <Code_77>
     d82:	f7ff ffb0 	bl	ce6 <Code_150>
     d86:	f7ff fe7c 	bl	a82 <Code_98>
     d8a:	f7ff fdb5 	bl	8f8 <Code_77>
     d8e:	f7ff fe78 	bl	a82 <Code_98>
     d92:	f7ff fdb1 	bl	8f8 <Code_77>
     d96:	bd00      	pop	{pc}
     d98:	f7ff fdae 	bl	8f8 <Code_77>
     d9c:	f7ff ffa3 	bl	ce6 <Code_150>
     da0:	bd00      	pop	{pc}
     da2:	46c0      	nop			; (mov r8, r8)

00000da4 <Dictionary_153>:
     da4:	00000dbc 			; <UNDEFINED> instruction: 0x00000dbc
     da8:	64020044 	strvs	r0, [r2], #-68	; 0x44
     dac:	b500002f 	strlt	r0, [r0, #-47]	; 0x2f

00000dae <Code_153>:
     dae:	b500      	push	{lr}
     db0:	f7ff ffc2 	bl	d38 <Code_152>
     db4:	f7ff fdb0 	bl	918 <Code_79>
     db8:	bd00      	pop	{pc}
     dba:	46c0      	nop			; (mov r8, r8)

00000dbc <Dictionary_154>:
     dbc:	00000e04 	andeq	r0, r0, r4, lsl #28
     dc0:	66020044 	strvs	r0, [r2], -r4, asr #32
     dc4:	b500002a 	strlt	r0, [r0, #-42]	; 0x2a

00000dc6 <Code_154>:
     dc6:	b500      	push	{lr}
     dc8:	17f0      	asrs	r0, r6, #31
     dca:	d00d      	beq.n	de8 <Code_154+0x22>
     dcc:	f7ff fe59 	bl	a82 <Code_98>
     dd0:	f7ff fd92 	bl	8f8 <Code_77>
     dd4:	17f0      	asrs	r0, r6, #31
     dd6:	d00d      	beq.n	df4 <Code_154+0x2e>
     dd8:	f7ff fe53 	bl	a82 <Code_98>
     ddc:	f7ff fed0 	bl	b80 <Code_106>
     de0:	cf40      	ldmia	r7!, {r6}
     de2:	cf01      	ldmia	r7!, {r0}
     de4:	6038      	str	r0, [r7, #0]
     de6:	bd00      	pop	{pc}
     de8:	f7ff fd86 	bl	8f8 <Code_77>
     dec:	17f0      	asrs	r0, r6, #31
     dee:	d0f5      	beq.n	ddc <Code_154+0x16>
     df0:	f7ff fe47 	bl	a82 <Code_98>
     df4:	f7ff fec4 	bl	b80 <Code_106>
     df8:	cf40      	ldmia	r7!, {r6}
     dfa:	cf01      	ldmia	r7!, {r0}
     dfc:	6038      	str	r0, [r7, #0]
     dfe:	f7ff fe40 	bl	a82 <Code_98>
     e02:	bd00      	pop	{pc}

00000e04 <Dictionary_157>:
     e04:	00000e50 	andeq	r0, r0, r0, asr lr
     e08:	66020044 	strvs	r0, [r2], -r4, asr #32
     e0c:	b500002f 	strlt	r0, [r0, #-47]	; 0x2f

00000e0e <Code_157>:
     e0e:	b500      	push	{lr}
     e10:	17f0      	asrs	r0, r6, #31
     e12:	d00e      	beq.n	e32 <Code_157+0x24>
     e14:	f7ff fe35 	bl	a82 <Code_98>
     e18:	f7ff fd6e 	bl	8f8 <Code_77>
     e1c:	17f0      	asrs	r0, r6, #31
     e1e:	d00e      	beq.n	e3e <Code_157+0x30>
     e20:	f7ff fe2f 	bl	a82 <Code_98>
     e24:	f7ff fd68 	bl	8f8 <Code_77>
     e28:	f7ff ff79 	bl	d1e <uf_slash_mod>
     e2c:	f7ff fd74 	bl	918 <Code_79>
     e30:	bd00      	pop	{pc}
     e32:	f7ff fd61 	bl	8f8 <Code_77>
     e36:	17f0      	asrs	r0, r6, #31
     e38:	d0f4      	beq.n	e24 <Code_157+0x16>
     e3a:	f7ff fe22 	bl	a82 <Code_98>
     e3e:	f7ff fd5b 	bl	8f8 <Code_77>
     e42:	f7ff ff6c 	bl	d1e <uf_slash_mod>
     e46:	f7ff fe1c 	bl	a82 <Code_98>
     e4a:	f7ff fd65 	bl	918 <Code_79>
     e4e:	bd00      	pop	{pc}

00000e50 <Dictionary_158>:
     e50:	00000e64 	andeq	r0, r0, r4, ror #28
     e54:	32020020 	andcc	r0, r2, #32
     e58:	cf060021 	svcgt	0x00060021

00000e5a <Code_158>:
     e5a:	cf06      	ldmia	r7!, {r1, r2}
     e5c:	6031      	str	r1, [r6, #0]
     e5e:	6072      	str	r2, [r6, #4]
     e60:	cf40      	ldmia	r7!, {r6}
     e62:	4770      	bx	lr

00000e64 <Dictionary_160>:
     e64:	00000e78 	andeq	r0, r0, r8, ror lr
     e68:	32020020 	andcc	r0, r2, #32
     e6c:	3f040040 	svccc	0x00040040

00000e6e <Code_160>:
     e6e:	3f04      	subs	r7, #4
     e70:	6870      	ldr	r0, [r6, #4]
     e72:	6038      	str	r0, [r7, #0]
     e74:	6836      	ldr	r6, [r6, #0]
     e76:	4770      	bx	lr

00000e78 <Dictionary_161>:
     e78:	00000e98 	muleq	r0, r8, lr
     e7c:	64030044 	strvs	r0, [r3], #-68	; 0x44
     e80:	cf073c75 	svcgt	0x00073c75

00000e82 <Code_161>:
     e82:	cf07      	ldmia	r7!, {r0, r1, r2}
     e84:	428e      	cmp	r6, r1
     e86:	d804      	bhi.n	e92 <Code_161+0x10>
     e88:	d101      	bne.n	e8e <Code_161+0xc>
     e8a:	4290      	cmp	r0, r2
     e8c:	d801      	bhi.n	e92 <Code_161+0x10>
     e8e:	2600      	movs	r6, #0
     e90:	4770      	bx	lr
     e92:	2600      	movs	r6, #0
     e94:	43f6      	mvns	r6, r6
     e96:	4770      	bx	lr

00000e98 <Dictionary_162>:
     e98:	00000eb8 			; <UNDEFINED> instruction: 0x00000eb8
     e9c:	64030044 	strvs	r0, [r3], #-68	; 0x44
     ea0:	cf073e75 	svcgt	0x00073e75

00000ea2 <Code_162>:
     ea2:	cf07      	ldmia	r7!, {r0, r1, r2}
     ea4:	42b1      	cmp	r1, r6
     ea6:	d804      	bhi.n	eb2 <Code_162+0x10>
     ea8:	d101      	bne.n	eae <Code_162+0xc>
     eaa:	4282      	cmp	r2, r0
     eac:	d801      	bhi.n	eb2 <Code_162+0x10>
     eae:	2600      	movs	r6, #0
     eb0:	4770      	bx	lr
     eb2:	2600      	movs	r6, #0
     eb4:	43f6      	mvns	r6, r6
     eb6:	4770      	bx	lr

00000eb8 <Dictionary_163>:
     eb8:	00000ed8 	ldrdeq	r0, [r0], -r8
     ebc:	64020044 	strvs	r0, [r2], #-68	; 0x44
     ec0:	cf07003c 	svcgt	0x0007003c

00000ec2 <Code_163>:
     ec2:	cf07      	ldmia	r7!, {r0, r1, r2}
     ec4:	428e      	cmp	r6, r1
     ec6:	dc04      	bgt.n	ed2 <Code_163+0x10>
     ec8:	d101      	bne.n	ece <Code_163+0xc>
     eca:	4290      	cmp	r0, r2
     ecc:	dc01      	bgt.n	ed2 <Code_163+0x10>
     ece:	2600      	movs	r6, #0
     ed0:	4770      	bx	lr
     ed2:	2600      	movs	r6, #0
     ed4:	43f6      	mvns	r6, r6
     ed6:	4770      	bx	lr

00000ed8 <Dictionary_164>:
     ed8:	00000ef8 	strdeq	r0, [r0], -r8
     edc:	64020044 	strvs	r0, [r2], #-68	; 0x44
     ee0:	cf07003e 	svcgt	0x0007003e

00000ee2 <Code_164>:
     ee2:	cf07      	ldmia	r7!, {r0, r1, r2}
     ee4:	42b1      	cmp	r1, r6
     ee6:	dc04      	bgt.n	ef2 <Code_164+0x10>
     ee8:	d101      	bne.n	eee <Code_164+0xc>
     eea:	4282      	cmp	r2, r0
     eec:	dc01      	bgt.n	ef2 <Code_164+0x10>
     eee:	2600      	movs	r6, #0
     ef0:	4770      	bx	lr
     ef2:	2600      	movs	r6, #0
     ef4:	43f6      	mvns	r6, r6
     ef6:	4770      	bx	lr

00000ef8 <Dictionary_165>:
     ef8:	00000f08 	andeq	r0, r0, r8, lsl #30
     efc:	64030062 	strvs	r0, [r3], #-98	; 0x62
     f00:	37043c30 	smladxcc	r4, r0, ip, r3

00000f02 <Code_165>:
     f02:	3704      	adds	r7, #4
     f04:	17f6      	asrs	r6, r6, #31
     f06:	4770      	bx	lr

00000f08 <Dictionary_166>:
     f08:	00000f24 	andeq	r0, r0, r4, lsr #30
     f0c:	64030042 	strvs	r0, [r3], #-66	; 0x42
     f10:	cf013d30 	svcgt	0x00013d30

00000f12 <Code_166>:
     f12:	cf01      	ldmia	r7!, {r0}
     f14:	2800      	cmp	r0, #0
     f16:	d001      	beq.n	f1c <Code_166+0xa>
     f18:	2600      	movs	r6, #0
     f1a:	4770      	bx	lr
     f1c:	3e01      	subs	r6, #1
     f1e:	41b6      	sbcs	r6, r6
     f20:	4770      	bx	lr
     f22:	46c0      	nop			; (mov r8, r8)

00000f24 <Dictionary_167>:
     f24:	00000f40 	andeq	r0, r0, r0, asr #30
     f28:	64030044 	strvs	r0, [r3], #-68	; 0x44
     f2c:	cf073e3c 	svcgt	0x00073e3c

00000f2e <Code_167>:
     f2e:	cf07      	ldmia	r7!, {r0, r1, r2}
     f30:	4290      	cmp	r0, r2
     f32:	d101      	bne.n	f38 <Code_167+0xa>
     f34:	1a76      	subs	r6, r6, r1
     f36:	d001      	beq.n	f3c <Code_167+0xe>
     f38:	2600      	movs	r6, #0
     f3a:	43f6      	mvns	r6, r6
     f3c:	4770      	bx	lr
     f3e:	46c0      	nop			; (mov r8, r8)

00000f40 <Dictionary_168>:
     f40:	00000f5c 	andeq	r0, r0, ip, asr pc
     f44:	64020044 	strvs	r0, [r2], #-68	; 0x44
     f48:	cf07003d 	svcgt	0x0007003d

00000f4a <Code_168>:
     f4a:	cf07      	ldmia	r7!, {r0, r1, r2}
     f4c:	4290      	cmp	r0, r2
     f4e:	d001      	beq.n	f54 <Code_168+0xa>
     f50:	2600      	movs	r6, #0
     f52:	4770      	bx	lr
     f54:	1a76      	subs	r6, r6, r1
     f56:	3e01      	subs	r6, #1
     f58:	41b6      	sbcs	r6, r6
     f5a:	4770      	bx	lr

00000f5c <Dictionary_169>:
     f5c:	00000f70 	andeq	r0, r0, r0, ror pc
     f60:	73030020 	movwvc	r0, #12320	; 0x3020
     f64:	3f044070 	svccc	0x00044070

00000f66 <Code_169>:
     f66:	3f04      	subs	r7, #4
     f68:	603e      	str	r6, [r7, #0]
     f6a:	003e      	movs	r6, r7
     f6c:	4770      	bx	lr
     f6e:	46c0      	nop			; (mov r8, r8)

00000f70 <Dictionary_171>:
     f70:	00000f80 	andeq	r0, r0, r0, lsl #31
     f74:	73030020 	movwvc	r0, #12320	; 0x3020
     f78:	00372170 	eorseq	r2, r7, r0, ror r1

00000f7a <Code_171>:
     f7a:	0037      	movs	r7, r6
     f7c:	cf40      	ldmia	r7!, {r6}
     f7e:	4770      	bx	lr

00000f80 <Dictionary_172>:
     f80:	00000f94 	muleq	r0, r4, pc	; <UNPREDICTABLE>
     f84:	72030020 	andvc	r0, r3, #32
     f88:	3f044070 	svccc	0x00044070

00000f8a <Code_172>:
     f8a:	3f04      	subs	r7, #4
     f8c:	603e      	str	r6, [r7, #0]
     f8e:	466e      	mov	r6, sp
     f90:	4770      	bx	lr
     f92:	46c0      	nop			; (mov r8, r8)

00000f94 <Dictionary_174>:
     f94:	00000fa4 	andeq	r0, r0, r4, lsr #31
     f98:	72030020 	andvc	r0, r3, #32
     f9c:	46b52170 			; <UNDEFINED> instruction: 0x46b52170

00000f9e <Code_174>:
     f9e:	46b5      	mov	sp, r6
     fa0:	cf40      	ldmia	r7!, {r6}
     fa2:	4770      	bx	lr

00000fa4 <Dictionary_175>:
     fa4:	00000fc8 	andeq	r0, r0, r8, asr #31
     fa8:	64030261 	strvs	r0, [r3], #-609	; 0x261
     fac:	3f047075 	svccc	0x00047075

00000fae <Code_175>:
     fae:	3f04      	subs	r7, #4
     fb0:	603e      	str	r6, [r7, #0]
     fb2:	4770      	bx	lr

00000fb4 <dup_allocator>:
     fb4:	b506      	push	{r1, r2, lr}
     fb6:	f7ff fb0d 	bl	5d4 <expect_one_element>
     fba:	6901      	ldr	r1, [r0, #16]
     fbc:	6942      	ldr	r2, [r0, #20]
     fbe:	f7ff fa81 	bl	4c4 <befreie_tos>
     fc2:	6101      	str	r1, [r0, #16]
     fc4:	6142      	str	r2, [r0, #20]
     fc6:	bd06      	pop	{r1, r2, pc}

00000fc8 <Dictionary_178>:
     fc8:	00000ff4 	strdeq	r0, [r0], -r4
     fcc:	64040261 	strvs	r0, [r4], #-609	; 0x261
     fd0:	00706f72 	rsbseq	r6, r0, r2, ror pc

00000fd4 <Code_178>:
     fd4:	cf40      	ldmia	r7!, {r6}
     fd6:	4770      	bx	lr
     fd8:	b500      	push	{lr}
     fda:	6901      	ldr	r1, [r0, #16]
     fdc:	291e      	cmp	r1, #30
     fde:	d105      	bne.n	fec <Code_178+0x18>
     fe0:	3f04      	subs	r7, #4
     fe2:	603e      	str	r6, [r7, #0]
     fe4:	4e89      	ldr	r6, [pc, #548]	; (120c <Code_208+0x1c>)
     fe6:	f002 f892 	bl	310e <Code_816>
     fea:	bd00      	pop	{pc}
     fec:	f7ff fb38 	bl	660 <eliminiere_tos>
     ff0:	bd00      	pop	{pc}
     ff2:	46c0      	nop			; (mov r8, r8)

00000ff4 <Dictionary_182>:
     ff4:	0000100c 	andeq	r1, r0, ip
     ff8:	3f040061 	svccc	0x00040061
     ffc:	00707564 	rsbseq	r7, r0, r4, ror #10

00001000 <Code_182>:
    1000:	2e00      	cmp	r6, #0
    1002:	d001      	beq.n	1008 <Code_182+0x8>
    1004:	3f04      	subs	r7, #4
    1006:	603e      	str	r6, [r7, #0]
    1008:	4770      	bx	lr
    100a:	46c0      	nop			; (mov r8, r8)

0000100c <Dictionary_184>:
    100c:	00001038 	andeq	r1, r0, r8, lsr r0
    1010:	73040262 	movwvc	r0, #16994	; 0x4262
    1014:	00706177 	rsbseq	r6, r0, r7, ror r1

00001018 <Code_184>:
    1018:	6839      	ldr	r1, [r7, #0]
    101a:	603e      	str	r6, [r7, #0]
    101c:	000e      	movs	r6, r1
    101e:	4770      	bx	lr

00001020 <swap_allocator>:
    1020:	b50c      	push	{r2, r3, lr}
    1022:	f7ff fae0 	bl	5e6 <expect_two_elements>
    1026:	6902      	ldr	r2, [r0, #16]
    1028:	6983      	ldr	r3, [r0, #24]
    102a:	6103      	str	r3, [r0, #16]
    102c:	6182      	str	r2, [r0, #24]
    102e:	6942      	ldr	r2, [r0, #20]
    1030:	69c3      	ldr	r3, [r0, #28]
    1032:	6143      	str	r3, [r0, #20]
    1034:	61c2      	str	r2, [r0, #28]
    1036:	bd0c      	pop	{r2, r3, pc}

00001038 <Dictionary_185>:
    1038:	00001064 	andeq	r1, r0, r4, rrx
    103c:	6e030262 	cdpvs	2, 0, cr0, cr3, cr2, {3}
    1040:	37047069 	strcc	r7, [r4, -r9, rrx]

00001042 <Code_185>:
    1042:	3704      	adds	r7, #4
    1044:	4770      	bx	lr
    1046:	b500      	push	{lr}
    1048:	f7ff fac4 	bl	5d4 <expect_one_element>
    104c:	6981      	ldr	r1, [r0, #24]
    104e:	291e      	cmp	r1, #30
    1050:	d002      	beq.n	1058 <Code_185+0x16>
    1052:	f7ff fb0c 	bl	66e <eliminiere_nos>
    1056:	bd00      	pop	{pc}
    1058:	3f04      	subs	r7, #4
    105a:	603e      	str	r6, [r7, #0]
    105c:	4e6b      	ldr	r6, [pc, #428]	; (120c <Code_208+0x1c>)
    105e:	f002 f856 	bl	310e <Code_816>
    1062:	bd00      	pop	{pc}

00001064 <Dictionary_189>:
    1064:	0000108c 	andeq	r1, r0, ip, lsl #1
    1068:	6f040262 	svcvs	0x00040262
    106c:	00726576 	rsbseq	r6, r2, r6, ror r5

00001070 <Code_189>:
    1070:	3f04      	subs	r7, #4
    1072:	603e      	str	r6, [r7, #0]
    1074:	687e      	ldr	r6, [r7, #4]
    1076:	4770      	bx	lr
    1078:	b500      	push	{lr}
    107a:	f7ff fab4 	bl	5e6 <expect_two_elements>
    107e:	6981      	ldr	r1, [r0, #24]
    1080:	69c2      	ldr	r2, [r0, #28]
    1082:	f7ff fa1f 	bl	4c4 <befreie_tos>
    1086:	6101      	str	r1, [r0, #16]
    1088:	6142      	str	r2, [r0, #20]
    108a:	bd00      	pop	{pc}

0000108c <Dictionary_191>:
    108c:	000010b8 	strheq	r1, [r0], -r8
    1090:	74040262 	strvc	r0, [r4], #-610	; 0x262
    1094:	006b6375 	rsbeq	r6, fp, r5, ror r3

00001098 <Code_191>:
    1098:	cf01      	ldmia	r7!, {r0}
    109a:	3f08      	subs	r7, #8
    109c:	607e      	str	r6, [r7, #4]
    109e:	6038      	str	r0, [r7, #0]
    10a0:	4770      	bx	lr
    10a2:	b500      	push	{lr}
    10a4:	f7ff fa9f 	bl	5e6 <expect_two_elements>
    10a8:	f7ff f9f9 	bl	49e <free_3os_element>
    10ac:	6901      	ldr	r1, [r0, #16]
    10ae:	6201      	str	r1, [r0, #32]
    10b0:	6941      	ldr	r1, [r0, #20]
    10b2:	6241      	str	r1, [r0, #36]	; 0x24
    10b4:	bd00      	pop	{pc}
    10b6:	46c0      	nop			; (mov r8, r8)

000010b8 <Dictionary_192>:
    10b8:	000010f0 	strdeq	r1, [r0], -r0
    10bc:	72030263 	andvc	r0, r3, #805306374	; 0x30000006
    10c0:	cf03746f 	svcgt	0x0003746f

000010c2 <Code_192>:
    10c2:	cf03      	ldmia	r7!, {r0, r1}
    10c4:	3f08      	subs	r7, #8
    10c6:	6078      	str	r0, [r7, #4]
    10c8:	603e      	str	r6, [r7, #0]
    10ca:	000e      	movs	r6, r1
    10cc:	4770      	bx	lr

000010ce <rot_allocator>:
    10ce:	b50e      	push	{r1, r2, r3, lr}
    10d0:	f7ff fa94 	bl	5fc <expect_three_elements>
    10d4:	6901      	ldr	r1, [r0, #16]
    10d6:	6982      	ldr	r2, [r0, #24]
    10d8:	6a03      	ldr	r3, [r0, #32]
    10da:	6181      	str	r1, [r0, #24]
    10dc:	6202      	str	r2, [r0, #32]
    10de:	6103      	str	r3, [r0, #16]
    10e0:	6941      	ldr	r1, [r0, #20]
    10e2:	69c2      	ldr	r2, [r0, #28]
    10e4:	6a43      	ldr	r3, [r0, #36]	; 0x24
    10e6:	61c1      	str	r1, [r0, #28]
    10e8:	6242      	str	r2, [r0, #36]	; 0x24
    10ea:	6143      	str	r3, [r0, #20]
    10ec:	bd0e      	pop	{r1, r2, r3, pc}
    10ee:	46c0      	nop			; (mov r8, r8)

000010f0 <Dictionary_193>:
    10f0:	00001114 	andeq	r1, r0, r4, lsl r1
    10f4:	2d040263 	sfmcs	f0, 4, [r4, #-396]	; 0xfffffe74
    10f8:	00746f72 	rsbseq	r6, r4, r2, ror pc

000010fc <Code_193>:
    10fc:	cf03      	ldmia	r7!, {r0, r1}
    10fe:	3f08      	subs	r7, #8
    1100:	607e      	str	r6, [r7, #4]
    1102:	6039      	str	r1, [r7, #0]
    1104:	0006      	movs	r6, r0
    1106:	4770      	bx	lr
    1108:	b500      	push	{lr}
    110a:	f7ff ffe0 	bl	10ce <rot_allocator>
    110e:	f7ff ffde 	bl	10ce <rot_allocator>
    1112:	bd00      	pop	{pc}

00001114 <Dictionary_194>:
    1114:	00001128 	andeq	r1, r0, r8, lsr #2
    1118:	70040020 	andvc	r0, r4, r0, lsr #32
    111c:	006b6369 	rsbeq	r6, fp, r9, ror #6

00001120 <Code_194>:
    1120:	00b0      	lsls	r0, r6, #2
    1122:	583e      	ldr	r6, [r7, r0]
    1124:	4770      	bx	lr
    1126:	46c0      	nop			; (mov r8, r8)

00001128 <Dictionary_195>:
    1128:	00001140 	andeq	r1, r0, r0, asr #2
    112c:	64050000 	strvs	r0, [r5], #-0
    1130:	68747065 	ldmdavs	r4!, {r0, r2, r5, r6, ip, sp, lr}^

00001134 <Code_195>:
    1134:	4936      	ldr	r1, [pc, #216]	; (1210 <Code_208+0x20>)
    1136:	1bc9      	subs	r1, r1, r7
    1138:	3f04      	subs	r7, #4
    113a:	603e      	str	r6, [r7, #0]
    113c:	088e      	lsrs	r6, r1, #2
    113e:	4770      	bx	lr

00001140 <Dictionary_197>:
    1140:	0000115c 	andeq	r1, r0, ip, asr r1
    1144:	72060000 	andvc	r0, r6, #0
    1148:	74706564 	ldrbtvc	r6, [r0], #-1380	; 0x564
    114c:	3f040068 	svccc	0x00040068

0000114e <Code_197>:
    114e:	3f04      	subs	r7, #4
    1150:	603e      	str	r6, [r7, #0]
    1152:	466e      	mov	r6, sp
    1154:	492f      	ldr	r1, [pc, #188]	; (1214 <Code_208+0x24>)
    1156:	1b89      	subs	r1, r1, r6
    1158:	088e      	lsrs	r6, r1, #2
    115a:	4770      	bx	lr

0000115c <Dictionary_199>:
    115c:	0000116c 	andeq	r1, r0, ip, ror #2
    1160:	3e020020 	cdpcc	0, 0, cr0, cr2, cr0, {1}
    1164:	b4400072 	strblt	r0, [r0], #-114	; 0x72

00001166 <Code_199>:
    1166:	b440      	push	{r6}
    1168:	cf40      	ldmia	r7!, {r6}
    116a:	4770      	bx	lr

0000116c <Dictionary_200>:
    116c:	00001180 	andeq	r1, r0, r0, lsl #3
    1170:	72020020 	andvc	r0, r2, #32
    1174:	3f04003e 	svccc	0x0004003e

00001176 <Code_200>:
    1176:	3f04      	subs	r7, #4
    1178:	603e      	str	r6, [r7, #0]
    117a:	bc40      	pop	{r6}
    117c:	4770      	bx	lr
    117e:	46c0      	nop			; (mov r8, r8)

00001180 <Dictionary_202>:
    1180:	00001194 	muleq	r0, r4, r1
    1184:	72020020 	andvc	r0, r2, #32
    1188:	3f040040 	svccc	0x00040040

0000118a <Code_202>:
    118a:	3f04      	subs	r7, #4
    118c:	603e      	str	r6, [r7, #0]
    118e:	9e00      	ldr	r6, [sp, #0]
    1190:	4770      	bx	lr
    1192:	46c0      	nop			; (mov r8, r8)

00001194 <Dictionary_204>:
    1194:	000011a4 	andeq	r1, r0, r4, lsr #3
    1198:	72050020 	andvc	r0, r5, #32
    119c:	706f7264 	rsbvc	r7, pc, r4, ror #4

000011a0 <Code_204>:
    11a0:	b001      	add	sp, #4
    11a2:	4770      	bx	lr

000011a4 <Dictionary_205>:
    11a4:	000011b8 			; <UNDEFINED> instruction: 0x000011b8
    11a8:	72050020 	andvc	r0, r5, #32
    11ac:	6b636970 	blvs	18db774 <BIT24+0x8db774>

000011b0 <Code_205>:
    11b0:	00b6      	lsls	r6, r6, #2
    11b2:	446e      	add	r6, sp
    11b4:	6836      	ldr	r6, [r6, #0]
    11b6:	4770      	bx	lr

000011b8 <Dictionary_206>:
    11b8:	000011e4 	andeq	r1, r0, r4, ror #3
    11bc:	72040000 	andvc	r0, r4, #0
    11c0:	006c6c6f 	rsbeq	r6, ip, pc, ror #24

000011c4 <Code_206>:
    11c4:	2e00      	cmp	r6, #0
    11c6:	d101      	bne.n	11cc <Code_206+0x8>
    11c8:	cf40      	ldmia	r7!, {r6}
    11ca:	4770      	bx	lr
    11cc:	00b0      	lsls	r0, r6, #2
    11ce:	5839      	ldr	r1, [r7, r0]
    11d0:	19c0      	adds	r0, r0, r7
    11d2:	1f03      	subs	r3, r0, #4
    11d4:	681a      	ldr	r2, [r3, #0]
    11d6:	6002      	str	r2, [r0, #0]
    11d8:	3804      	subs	r0, #4
    11da:	3e01      	subs	r6, #1
    11dc:	d1f9      	bne.n	11d2 <Code_206+0xe>
    11de:	3704      	adds	r7, #4
    11e0:	000e      	movs	r6, r1
    11e2:	4770      	bx	lr

000011e4 <Dictionary_208>:
    11e4:	00001218 	andeq	r1, r0, r8, lsl r2
    11e8:	2d050000 	stccs	0, cr0, [r5, #-0]
    11ec:	6c6c6f72 	stclvs	15, cr6, [ip], #-456	; 0xfffffe38

000011f0 <Code_208>:
    11f0:	2e00      	cmp	r6, #0
    11f2:	d101      	bne.n	11f8 <Code_208+0x8>
    11f4:	cf40      	ldmia	r7!, {r6}
    11f6:	4770      	bx	lr
    11f8:	6838      	ldr	r0, [r7, #0]
    11fa:	4639      	mov	r1, r7
    11fc:	684a      	ldr	r2, [r1, #4]
    11fe:	600a      	str	r2, [r1, #0]
    1200:	3104      	adds	r1, #4
    1202:	3e01      	subs	r6, #1
    1204:	d1fa      	bne.n	11fc <Code_208+0xc>
    1206:	6008      	str	r0, [r1, #0]
    1208:	cf40      	ldmia	r7!, {r6}
    120a:	4770      	bx	lr
    120c:	00003704 	andeq	r3, r0, r4, lsl #14
    1210:	1ffff258 	svcne	0x00fff258
    1214:	1ffff358 	svcne	0x00fff358

00001218 <Dictionary_211>:
    1218:	00001230 	andeq	r1, r0, r0, lsr r2
    121c:	74040060 	strvc	r0, [r4], #-96	; 0x60
    1220:	00657572 	rsbeq	r7, r5, r2, ror r5

00001224 <Code_211>:
    1224:	3f04      	subs	r7, #4
    1226:	603e      	str	r6, [r7, #0]
    1228:	2600      	movs	r6, #0
    122a:	43f6      	mvns	r6, r6
    122c:	4770      	bx	lr
    122e:	46c0      	nop			; (mov r8, r8)

00001230 <Dictionary_213>:
    1230:	00001244 	andeq	r1, r0, r4, asr #4
    1234:	66050060 	strvs	r0, [r5], -r0, rrx
    1238:	65736c61 	ldrbvs	r6, [r3, #-3169]!	; 0xc61

0000123c <Code_213>:
    123c:	3f04      	subs	r7, #4
    123e:	603e      	str	r6, [r7, #0]
    1240:	2600      	movs	r6, #0
    1242:	4770      	bx	lr

00001244 <Dictionary_215>:
    1244:	00001258 	andeq	r1, r0, r8, asr r2
    1248:	61033220 	tstvs	r3, r0, lsr #4
    124c:	cf01646e 	svcgt	0x0001646e

0000124e <Code_215>:
    124e:	cf01      	ldmia	r7!, {r0}
    1250:	4006      	ands	r6, r0
    1252:	4770      	bx	lr
    1254:	4000      	ands	r0, r0
    1256:	46c0      	nop			; (mov r8, r8)

00001258 <Dictionary_216>:
    1258:	0000126c 	andeq	r1, r0, ip, ror #4
    125c:	62034220 	andvs	r4, r3, #2
    1260:	cf016369 	svcgt	0x00016369

00001262 <Code_216>:
    1262:	cf01      	ldmia	r7!, {r0}
    1264:	43b0      	bics	r0, r6
    1266:	0006      	movs	r6, r0
    1268:	4770      	bx	lr
    126a:	4380      	bics	r0, r0

0000126c <Dictionary_217>:
    126c:	00001280 	andeq	r1, r0, r0, lsl #5
    1270:	6f023220 	svcvs	0x00023220
    1274:	cf010072 	svcgt	0x00010072

00001276 <Code_217>:
    1276:	cf01      	ldmia	r7!, {r0}
    1278:	4306      	orrs	r6, r0
    127a:	4770      	bx	lr
    127c:	4300      	orrs	r0, r0
    127e:	46c0      	nop			; (mov r8, r8)

00001280 <Dictionary_218>:
    1280:	00001294 	muleq	r0, r4, r2
    1284:	78033220 	stmdavc	r3, {r5, r9, ip, sp}
    1288:	cf01726f 	svcgt	0x0001726f

0000128a <Code_218>:
    128a:	cf01      	ldmia	r7!, {r0}
    128c:	4046      	eors	r6, r0
    128e:	4770      	bx	lr
    1290:	4040      	eors	r0, r0
    1292:	46c0      	nop			; (mov r8, r8)

00001294 <Dictionary_219>:
    1294:	000012b4 			; <UNDEFINED> instruction: 0x000012b4
    1298:	63030041 	movwvs	r0, #12353	; 0x3041
    129c:	00307a6c 	eorseq	r7, r0, ip, ror #20

0000129e <Code_219>:
    129e:	0030      	movs	r0, r6
    12a0:	d006      	beq.n	12b0 <Code_219+0x12>
    12a2:	2600      	movs	r6, #0
    12a4:	0040      	lsls	r0, r0, #1
    12a6:	d002      	beq.n	12ae <Code_219+0x10>
    12a8:	d201      	bcs.n	12ae <Code_219+0x10>
    12aa:	3601      	adds	r6, #1
    12ac:	e7fa      	b.n	12a4 <Code_219+0x6>
    12ae:	4770      	bx	lr
    12b0:	2620      	movs	r6, #32
    12b2:	4770      	bx	lr

000012b4 <Dictionary_220>:
    12b4:	000012c4 	andeq	r1, r0, r4, asr #5
    12b8:	72030061 	andvc	r0, r3, #97	; 0x61
    12bc:	2001726f 	andcs	r7, r1, pc, ror #4

000012be <Code_220>:
    12be:	2001      	movs	r0, #1
    12c0:	41c6      	rors	r6, r0
    12c2:	4770      	bx	lr

000012c4 <Dictionary_221>:
    12c4:	000012d8 	ldrdeq	r1, [r0], -r8
    12c8:	72030061 	andvc	r0, r3, #97	; 0x61
    12cc:	20006c6f 	andcs	r6, r0, pc, ror #24

000012ce <Code_221>:
    12ce:	2000      	movs	r0, #0
    12d0:	19b6      	adds	r6, r6, r6
    12d2:	4146      	adcs	r6, r0
    12d4:	4770      	bx	lr
    12d6:	46c0      	nop			; (mov r8, r8)

000012d8 <Dictionary_222>:
    12d8:	0000130c 	andeq	r1, r0, ip, lsl #6
    12dc:	61070262 	tstvs	r7, r2, ror #4
    12e0:	69687372 	stmdbvs	r8!, {r1, r4, r5, r6, r8, r9, ip, sp, lr}^
    12e4:	cf017466 	svcgt	0x00017466

000012e6 <Code_222>:
    12e6:	cf01      	ldmia	r7!, {r0}
    12e8:	4130      	asrs	r0, r6
    12ea:	0006      	movs	r6, r0
    12ec:	4770      	bx	lr
    12ee:	b500      	push	{lr}
    12f0:	3f04      	subs	r7, #4
    12f2:	603e      	str	r6, [r7, #0]
    12f4:	4efd      	ldr	r6, [pc, #1012]	; (16ec <Code_321+0xc>)
    12f6:	3f04      	subs	r7, #4
    12f8:	603e      	str	r6, [r7, #0]
    12fa:	4efd      	ldr	r6, [pc, #1012]	; (16f0 <Code_321+0x10>)
    12fc:	f7ff f973 	bl	5e6 <expect_two_elements>
    1300:	6941      	ldr	r1, [r0, #20]
    1302:	291f      	cmp	r1, #31
    1304:	d928      	bls.n	1358 <Code_232+0x16>
    1306:	211f      	movs	r1, #31
    1308:	6141      	str	r1, [r0, #20]
    130a:	e025      	b.n	1358 <Code_232+0x16>

0000130c <Dictionary_227>:
    130c:	00001334 	andeq	r1, r0, r4, lsr r3
    1310:	72060262 	andvc	r0, r6, #536870918	; 0x20000006
    1314:	66696873 			; <UNDEFINED> instruction: 0x66696873
    1318:	cf010074 	svcgt	0x00010074

0000131a <Code_227>:
    131a:	cf01      	ldmia	r7!, {r0}
    131c:	40f0      	lsrs	r0, r6
    131e:	0006      	movs	r6, r0
    1320:	4770      	bx	lr
    1322:	b500      	push	{lr}
    1324:	3f04      	subs	r7, #4
    1326:	603e      	str	r6, [r7, #0]
    1328:	4ef2      	ldr	r6, [pc, #968]	; (16f4 <Code_321+0x14>)
    132a:	3f04      	subs	r7, #4
    132c:	603e      	str	r6, [r7, #0]
    132e:	4ef2      	ldr	r6, [pc, #968]	; (16f8 <Code_321+0x18>)
    1330:	e012      	b.n	1358 <Code_232+0x16>
    1332:	46c0      	nop			; (mov r8, r8)

00001334 <Dictionary_232>:
    1334:	000013c0 	andeq	r1, r0, r0, asr #7
    1338:	6c060262 	sfmvs	f0, 4, [r6], {98}	; 0x62
    133c:	66696873 			; <UNDEFINED> instruction: 0x66696873
    1340:	cf010074 	svcgt	0x00010074

00001342 <Code_232>:
    1342:	cf01      	ldmia	r7!, {r0}
    1344:	40b0      	lsls	r0, r6
    1346:	0006      	movs	r6, r0
    1348:	4770      	bx	lr
    134a:	b500      	push	{lr}
    134c:	3f04      	subs	r7, #4
    134e:	603e      	str	r6, [r7, #0]
    1350:	4eea      	ldr	r6, [pc, #936]	; (16fc <Code_321+0x1c>)
    1352:	3f04      	subs	r7, #4
    1354:	603e      	str	r6, [r7, #0]
    1356:	2600      	movs	r6, #0
    1358:	f7ff f945 	bl	5e6 <expect_two_elements>
    135c:	6901      	ldr	r1, [r0, #16]
    135e:	2928      	cmp	r1, #40	; 0x28
    1360:	d003      	beq.n	136a <Code_232+0x28>
    1362:	cf40      	ldmia	r7!, {r6}
    1364:	f7ff fa27 	bl	7b6 <alloc_unkommutativ>
    1368:	bd00      	pop	{pc}
    136a:	3704      	adds	r7, #4
    136c:	6941      	ldr	r1, [r0, #20]
    136e:	f7ff f977 	bl	660 <eliminiere_tos>
    1372:	2900      	cmp	r1, #0
    1374:	d101      	bne.n	137a <Code_232+0x38>
    1376:	cf40      	ldmia	r7!, {r6}
    1378:	bd00      	pop	{pc}
    137a:	291f      	cmp	r1, #31
    137c:	d80f      	bhi.n	139e <Code_232+0x5c>
    137e:	0189      	lsls	r1, r1, #6
    1380:	430e      	orrs	r6, r1
    1382:	6902      	ldr	r2, [r0, #16]
    1384:	00d2      	lsls	r2, r2, #3
    1386:	4316      	orrs	r6, r2
    1388:	f7ff f96a 	bl	660 <eliminiere_tos>
    138c:	f7ff f89a 	bl	4c4 <befreie_tos>
    1390:	f7ff f8fc 	bl	58c <get_free_register>
    1394:	6103      	str	r3, [r0, #16]
    1396:	431e      	orrs	r6, r3
    1398:	f001 feb9 	bl	310e <Code_816>
    139c:	bd00      	pop	{pc}
    139e:	cf40      	ldmia	r7!, {r6}
    13a0:	f7ff f95e 	bl	660 <eliminiere_tos>
    13a4:	f7ff f88e 	bl	4c4 <befreie_tos>
    13a8:	f7ff f8f0 	bl	58c <get_free_register>
    13ac:	6103      	str	r3, [r0, #16]
    13ae:	3f04      	subs	r7, #4
    13b0:	603e      	str	r6, [r7, #0]
    13b2:	4ed3      	ldr	r6, [pc, #844]	; (1700 <Code_321+0x20>)
    13b4:	021b      	lsls	r3, r3, #8
    13b6:	431e      	orrs	r6, r3
    13b8:	f001 fea9 	bl	310e <Code_816>
    13bc:	bd00      	pop	{pc}
    13be:	46c0      	nop			; (mov r8, r8)

000013c0 <Dictionary_243>:
    13c0:	000013e4 	andeq	r1, r0, r4, ror #7
    13c4:	30020261 	andcc	r0, r2, r1, ror #4
    13c8:	3e01003d 	mcrcc	0, 0, r0, cr1, cr13, {1}

000013ca <Code_243>:
    13ca:	3e01      	subs	r6, #1
    13cc:	41b6      	sbcs	r6, r6
    13ce:	4770      	bx	lr

000013d0 <allocator_equal_zero>:
    13d0:	b500      	push	{lr}
    13d2:	f000 fdcc 	bl	1f6e <allocator_one_minus>
    13d6:	3f04      	subs	r7, #4
    13d8:	603e      	str	r6, [r7, #0]
    13da:	4eca      	ldr	r6, [pc, #808]	; (1704 <Code_321+0x24>)
    13dc:	f000 fe12 	bl	2004 <smalltworegisters>
    13e0:	bd00      	pop	{pc}
    13e2:	46c0      	nop			; (mov r8, r8)

000013e4 <Dictionary_246>:
    13e4:	00001404 	andeq	r1, r0, r4, lsl #8
    13e8:	30030261 	andcc	r0, r3, r1, ror #4
    13ec:	3e013e3c 	mcrcc	14, 0, r3, cr1, cr12, {1}

000013ee <Code_246>:
    13ee:	3e01      	subs	r6, #1
    13f0:	41b6      	sbcs	r6, r6
    13f2:	43f6      	mvns	r6, r6
    13f4:	4770      	bx	lr

000013f6 <allocator_unequal_zero>:
    13f6:	b500      	push	{lr}
    13f8:	f7ff ffea 	bl	13d0 <allocator_equal_zero>
    13fc:	f000 fe15 	bl	202a <allocator_not>
    1400:	bd00      	pop	{pc}
    1402:	46c0      	nop			; (mov r8, r8)

00001404 <Dictionary_247>:
    1404:	00001420 	andeq	r1, r0, r0, lsr #8
    1408:	30020261 	andcc	r0, r2, r1, ror #4
    140c:	17f6003c 			; <UNDEFINED> instruction: 0x17f6003c

0000140e <Code_247>:
    140e:	17f6      	asrs	r6, r6, #31
    1410:	4770      	bx	lr
    1412:	b500      	push	{lr}
    1414:	3f04      	subs	r7, #4
    1416:	603e      	str	r6, [r7, #0]
    1418:	4ebb      	ldr	r6, [pc, #748]	; (1708 <Code_321+0x28>)
    141a:	f000 fdf3 	bl	2004 <smalltworegisters>
    141e:	bd00      	pop	{pc}

00001420 <Dictionary_250>:
    1420:	00001454 	andeq	r1, r0, r4, asr r4
    1424:	3e020242 	cdpcc	2, 0, cr0, cr2, cr2, {2}
    1428:	cf01003d 	svcgt	0x0001003d

0000142a <Code_250>:
    142a:	cf01      	ldmia	r7!, {r0}
    142c:	42b0      	cmp	r0, r6
    142e:	da01      	bge.n	1434 <Code_250+0xa>
    1430:	2600      	movs	r6, #0
    1432:	e001      	b.n	1438 <Code_250+0xe>
    1434:	2600      	movs	r6, #0
    1436:	43f6      	mvns	r6, r6
    1438:	4770      	bx	lr
    143a:	3f04      	subs	r7, #4
    143c:	603e      	str	r6, [r7, #0]
    143e:	4eb3      	ldr	r6, [pc, #716]	; (170c <Code_321+0x2c>)
    1440:	3f04      	subs	r7, #4
    1442:	603e      	str	r6, [r7, #0]
    1444:	4eb2      	ldr	r6, [pc, #712]	; (1710 <Code_321+0x30>)
    1446:	b500      	push	{lr}
    1448:	f000 f8d0 	bl	15ec <allocator_compare>
    144c:	f000 f90f 	bl	166e <flaggenerator_inverted>
    1450:	bd00      	pop	{pc}
    1452:	46c0      	nop			; (mov r8, r8)

00001454 <Dictionary_255>:
    1454:	00001488 	andeq	r1, r0, r8, lsl #9
    1458:	3c020242 	sfmcc	f0, 4, [r2], {66}	; 0x42
    145c:	cf01003d 	svcgt	0x0001003d

0000145e <Code_255>:
    145e:	cf01      	ldmia	r7!, {r0}
    1460:	42b0      	cmp	r0, r6
    1462:	dd01      	ble.n	1468 <Code_255+0xa>
    1464:	2600      	movs	r6, #0
    1466:	e001      	b.n	146c <Code_255+0xe>
    1468:	2600      	movs	r6, #0
    146a:	43f6      	mvns	r6, r6
    146c:	4770      	bx	lr
    146e:	3f04      	subs	r7, #4
    1470:	603e      	str	r6, [r7, #0]
    1472:	4ea8      	ldr	r6, [pc, #672]	; (1714 <Code_321+0x34>)
    1474:	3f04      	subs	r7, #4
    1476:	603e      	str	r6, [r7, #0]
    1478:	4ea7      	ldr	r6, [pc, #668]	; (1718 <Code_321+0x38>)
    147a:	b500      	push	{lr}
    147c:	f000 f8b6 	bl	15ec <allocator_compare>
    1480:	f000 f8f5 	bl	166e <flaggenerator_inverted>
    1484:	bd00      	pop	{pc}
    1486:	46c0      	nop			; (mov r8, r8)

00001488 <Dictionary_260>:
    1488:	000014b8 			; <UNDEFINED> instruction: 0x000014b8
    148c:	3c010242 	sfmcc	f0, 4, [r1], {66}	; 0x42

00001490 <Code_260>:
    1490:	cf01      	ldmia	r7!, {r0}
    1492:	42b0      	cmp	r0, r6
    1494:	da02      	bge.n	149c <Code_260+0xc>
    1496:	2600      	movs	r6, #0
    1498:	43f6      	mvns	r6, r6
    149a:	e000      	b.n	149e <Code_260+0xe>
    149c:	2600      	movs	r6, #0
    149e:	4770      	bx	lr
    14a0:	3f04      	subs	r7, #4
    14a2:	603e      	str	r6, [r7, #0]
    14a4:	4e9d      	ldr	r6, [pc, #628]	; (171c <Code_321+0x3c>)
    14a6:	3f04      	subs	r7, #4
    14a8:	603e      	str	r6, [r7, #0]
    14aa:	4e9d      	ldr	r6, [pc, #628]	; (1720 <Code_321+0x40>)
    14ac:	b500      	push	{lr}
    14ae:	f000 f89d 	bl	15ec <allocator_compare>
    14b2:	f000 f8c9 	bl	1648 <flaggenerator>
    14b6:	bd00      	pop	{pc}

000014b8 <Dictionary_265>:
    14b8:	000014e8 	andeq	r1, r0, r8, ror #9
    14bc:	3e010242 	cdpcc	2, 0, cr0, cr1, cr2, {2}

000014c0 <Code_265>:
    14c0:	cf01      	ldmia	r7!, {r0}
    14c2:	42b0      	cmp	r0, r6
    14c4:	dd02      	ble.n	14cc <Code_265+0xc>
    14c6:	2600      	movs	r6, #0
    14c8:	43f6      	mvns	r6, r6
    14ca:	e000      	b.n	14ce <Code_265+0xe>
    14cc:	2600      	movs	r6, #0
    14ce:	4770      	bx	lr
    14d0:	3f04      	subs	r7, #4
    14d2:	603e      	str	r6, [r7, #0]
    14d4:	4e93      	ldr	r6, [pc, #588]	; (1724 <Code_321+0x44>)
    14d6:	3f04      	subs	r7, #4
    14d8:	603e      	str	r6, [r7, #0]
    14da:	4e93      	ldr	r6, [pc, #588]	; (1728 <Code_321+0x48>)
    14dc:	b500      	push	{lr}
    14de:	f000 f885 	bl	15ec <allocator_compare>
    14e2:	f000 f8b1 	bl	1648 <flaggenerator>
    14e6:	bd00      	pop	{pc}

000014e8 <Dictionary_270>:
    14e8:	00001514 	andeq	r1, r0, r4, lsl r5
    14ec:	75030262 	strvc	r0, [r3, #-610]	; 0x262
    14f0:	cf013d3e 	svcgt	0x00013d3e

000014f2 <Code_270>:
    14f2:	cf01      	ldmia	r7!, {r0}
    14f4:	1b86      	subs	r6, r0, r6
    14f6:	41b6      	sbcs	r6, r6
    14f8:	43f6      	mvns	r6, r6
    14fa:	4770      	bx	lr
    14fc:	3f04      	subs	r7, #4
    14fe:	603e      	str	r6, [r7, #0]
    1500:	4e8a      	ldr	r6, [pc, #552]	; (172c <Code_321+0x4c>)
    1502:	3f04      	subs	r7, #4
    1504:	603e      	str	r6, [r7, #0]
    1506:	4e8a      	ldr	r6, [pc, #552]	; (1730 <Code_321+0x50>)
    1508:	b500      	push	{lr}
    150a:	f000 f86f 	bl	15ec <allocator_compare>
    150e:	f000 f8ae 	bl	166e <flaggenerator_inverted>
    1512:	bd00      	pop	{pc}

00001514 <Dictionary_275>:
    1514:	00001540 	andeq	r1, r0, r0, asr #10
    1518:	75030262 	strvc	r0, [r3, #-610]	; 0x262
    151c:	cf013d3c 	svcgt	0x00013d3c

0000151e <Code_275>:
    151e:	cf01      	ldmia	r7!, {r0}
    1520:	1a36      	subs	r6, r6, r0
    1522:	41b6      	sbcs	r6, r6
    1524:	43f6      	mvns	r6, r6
    1526:	4770      	bx	lr
    1528:	3f04      	subs	r7, #4
    152a:	603e      	str	r6, [r7, #0]
    152c:	4e81      	ldr	r6, [pc, #516]	; (1734 <Code_321+0x54>)
    152e:	3f04      	subs	r7, #4
    1530:	603e      	str	r6, [r7, #0]
    1532:	4e81      	ldr	r6, [pc, #516]	; (1738 <Code_321+0x58>)
    1534:	b500      	push	{lr}
    1536:	f000 f859 	bl	15ec <allocator_compare>
    153a:	f000 f898 	bl	166e <flaggenerator_inverted>
    153e:	bd00      	pop	{pc}

00001540 <Dictionary_280>:
    1540:	0000156c 	andeq	r1, r0, ip, ror #10
    1544:	75020262 	strvc	r0, [r2, #-610]	; 0x262
    1548:	cf01003c 	svcgt	0x0001003c

0000154a <Code_280>:
    154a:	cf01      	ldmia	r7!, {r0}
    154c:	1b86      	subs	r6, r0, r6
    154e:	41b6      	sbcs	r6, r6
    1550:	4770      	bx	lr
    1552:	3f04      	subs	r7, #4
    1554:	603e      	str	r6, [r7, #0]
    1556:	4e79      	ldr	r6, [pc, #484]	; (173c <Code_321+0x5c>)
    1558:	3f04      	subs	r7, #4
    155a:	603e      	str	r6, [r7, #0]
    155c:	4e78      	ldr	r6, [pc, #480]	; (1740 <Code_321+0x60>)
    155e:	b500      	push	{lr}
    1560:	f000 f844 	bl	15ec <allocator_compare>
    1564:	f000 f870 	bl	1648 <flaggenerator>
    1568:	bd00      	pop	{pc}
    156a:	46c0      	nop			; (mov r8, r8)

0000156c <Dictionary_285>:
    156c:	00001598 	muleq	r0, r8, r5
    1570:	75020262 	strvc	r0, [r2, #-610]	; 0x262
    1574:	cf01003e 	svcgt	0x0001003e

00001576 <Code_285>:
    1576:	cf01      	ldmia	r7!, {r0}
    1578:	1a36      	subs	r6, r6, r0
    157a:	41b6      	sbcs	r6, r6
    157c:	4770      	bx	lr
    157e:	3f04      	subs	r7, #4
    1580:	603e      	str	r6, [r7, #0]
    1582:	4e70      	ldr	r6, [pc, #448]	; (1744 <Code_321+0x64>)
    1584:	3f04      	subs	r7, #4
    1586:	603e      	str	r6, [r7, #0]
    1588:	4e6f      	ldr	r6, [pc, #444]	; (1748 <Code_321+0x68>)
    158a:	b500      	push	{lr}
    158c:	f000 f82e 	bl	15ec <allocator_compare>
    1590:	f000 f85a 	bl	1648 <flaggenerator>
    1594:	bd00      	pop	{pc}
    1596:	46c0      	nop			; (mov r8, r8)

00001598 <Dictionary_290>:
    1598:	000015c4 	andeq	r1, r0, r4, asr #11
    159c:	3c020262 	sfmcc	f0, 4, [r2], {98}	; 0x62
    15a0:	cf01003e 	svcgt	0x0001003e

000015a2 <Code_290>:
    15a2:	cf01      	ldmia	r7!, {r0}
    15a4:	1a36      	subs	r6, r6, r0
    15a6:	d001      	beq.n	15ac <Code_290+0xa>
    15a8:	2600      	movs	r6, #0
    15aa:	43f6      	mvns	r6, r6
    15ac:	4770      	bx	lr
    15ae:	3f04      	subs	r7, #4
    15b0:	603e      	str	r6, [r7, #0]
    15b2:	4e66      	ldr	r6, [pc, #408]	; (174c <Code_321+0x6c>)
    15b4:	3f04      	subs	r7, #4
    15b6:	603e      	str	r6, [r7, #0]
    15b8:	b500      	push	{lr}
    15ba:	f000 f817 	bl	15ec <allocator_compare>
    15be:	f000 f843 	bl	1648 <flaggenerator>
    15c2:	bd00      	pop	{pc}

000015c4 <Dictionary_295>:
    15c4:	00001694 	muleq	r0, r4, r6
    15c8:	3d010262 	sfmcc	f0, 4, [r1, #-392]	; 0xfffffe78

000015cc <Code_295>:
    15cc:	cf01      	ldmia	r7!, {r0}
    15ce:	1a36      	subs	r6, r6, r0
    15d0:	3e01      	subs	r6, #1
    15d2:	41b6      	sbcs	r6, r6
    15d4:	4770      	bx	lr
    15d6:	3f04      	subs	r7, #4
    15d8:	603e      	str	r6, [r7, #0]
    15da:	4e5d      	ldr	r6, [pc, #372]	; (1750 <Code_321+0x70>)
    15dc:	3f04      	subs	r7, #4
    15de:	603e      	str	r6, [r7, #0]
    15e0:	b500      	push	{lr}
    15e2:	f000 f803 	bl	15ec <allocator_compare>
    15e6:	f000 f82f 	bl	1648 <flaggenerator>
    15ea:	bd00      	pop	{pc}

000015ec <allocator_compare>:
    15ec:	b500      	push	{lr}
    15ee:	f7fe fffa 	bl	5e6 <expect_two_elements>
    15f2:	6982      	ldr	r2, [r0, #24]
    15f4:	2a28      	cmp	r2, #40	; 0x28
    15f6:	d103      	bne.n	1600 <allocator_compare+0x14>
    15f8:	f7ff fd12 	bl	1020 <swap_allocator>
    15fc:	3704      	adds	r7, #4
    15fe:	e000      	b.n	1602 <allocator_compare+0x16>
    1600:	cf40      	ldmia	r7!, {r6}
    1602:	6901      	ldr	r1, [r0, #16]
    1604:	2928      	cmp	r1, #40	; 0x28
    1606:	d109      	bne.n	161c <allocator_compare+0x30>
    1608:	6941      	ldr	r1, [r0, #20]
    160a:	29ff      	cmp	r1, #255	; 0xff
    160c:	d806      	bhi.n	161c <allocator_compare+0x30>
    160e:	3f04      	subs	r7, #4
    1610:	603e      	str	r6, [r7, #0]
    1612:	4e50      	ldr	r6, [pc, #320]	; (1754 <Code_321+0x74>)
    1614:	430e      	orrs	r6, r1
    1616:	6981      	ldr	r1, [r0, #24]
    1618:	0209      	lsls	r1, r1, #8
    161a:	e006      	b.n	162a <allocator_compare+0x3e>
    161c:	f7ff f804 	bl	628 <expect_tos_in_register>
    1620:	3f04      	subs	r7, #4
    1622:	603e      	str	r6, [r7, #0]
    1624:	4e4c      	ldr	r6, [pc, #304]	; (1758 <Code_321+0x78>)
    1626:	00d2      	lsls	r2, r2, #3
    1628:	4316      	orrs	r6, r2
    162a:	430e      	orrs	r6, r1
    162c:	f001 fd6f 	bl	310e <Code_816>
    1630:	f7ff f816 	bl	660 <eliminiere_tos>
    1634:	f7ff f814 	bl	660 <eliminiere_tos>
    1638:	f7fe ff44 	bl	4c4 <befreie_tos>
    163c:	f7fe ffa6 	bl	58c <get_free_register>
    1640:	6103      	str	r3, [r0, #16]
    1642:	f001 fd64 	bl	310e <Code_816>
    1646:	bd00      	pop	{pc}

00001648 <flaggenerator>:
    1648:	b500      	push	{lr}
    164a:	3f04      	subs	r7, #4
    164c:	603e      	str	r6, [r7, #0]
    164e:	4e2c      	ldr	r6, [pc, #176]	; (1700 <Code_321+0x20>)
    1650:	f000 fc90 	bl	1f74 <smallplusminus>
    1654:	3f04      	subs	r7, #4
    1656:	603e      	str	r6, [r7, #0]
    1658:	4e40      	ldr	r6, [pc, #256]	; (175c <Code_321+0x7c>)
    165a:	f001 fd58 	bl	310e <Code_816>
    165e:	3f04      	subs	r7, #4
    1660:	603e      	str	r6, [r7, #0]
    1662:	4e27      	ldr	r6, [pc, #156]	; (1700 <Code_321+0x20>)
    1664:	f000 fc86 	bl	1f74 <smallplusminus>
    1668:	f000 fcdf 	bl	202a <allocator_not>
    166c:	bd00      	pop	{pc}

0000166e <flaggenerator_inverted>:
    166e:	b500      	push	{lr}
    1670:	3f04      	subs	r7, #4
    1672:	603e      	str	r6, [r7, #0]
    1674:	4e22      	ldr	r6, [pc, #136]	; (1700 <Code_321+0x20>)
    1676:	f000 fc7d 	bl	1f74 <smallplusminus>
    167a:	f000 fcd6 	bl	202a <allocator_not>
    167e:	3f04      	subs	r7, #4
    1680:	603e      	str	r6, [r7, #0]
    1682:	4e37      	ldr	r6, [pc, #220]	; (1760 <Code_321+0x80>)
    1684:	f001 fd43 	bl	310e <Code_816>
    1688:	3f04      	subs	r7, #4
    168a:	603e      	str	r6, [r7, #0]
    168c:	4e1c      	ldr	r6, [pc, #112]	; (1700 <Code_321+0x20>)
    168e:	f000 fc71 	bl	1f74 <smallplusminus>
    1692:	bd00      	pop	{pc}

00001694 <Dictionary_318>:
    1694:	000016a8 	andeq	r1, r0, r8, lsr #13
    1698:	6d030062 	stcvs	0, cr0, [r3, #-392]	; 0xfffffe78
    169c:	cf016e69 	svcgt	0x00016e69

0000169e <Code_318>:
    169e:	cf01      	ldmia	r7!, {r0}
    16a0:	42b0      	cmp	r0, r6
    16a2:	da00      	bge.n	16a6 <Code_318+0x8>
    16a4:	0006      	movs	r6, r0
    16a6:	4770      	bx	lr

000016a8 <Dictionary_319>:
    16a8:	000016bc 			; <UNDEFINED> instruction: 0x000016bc
    16ac:	6d030062 	stcvs	0, cr0, [r3, #-392]	; 0xfffffe78
    16b0:	cf017861 	svcgt	0x00017861

000016b2 <Code_319>:
    16b2:	cf01      	ldmia	r7!, {r0}
    16b4:	42b0      	cmp	r0, r6
    16b6:	db00      	blt.n	16ba <Code_319+0x8>
    16b8:	0006      	movs	r6, r0
    16ba:	4770      	bx	lr

000016bc <Dictionary_320>:
    16bc:	000016d4 	ldrdeq	r1, [r0], -r4
    16c0:	75040062 	strvc	r0, [r4, #-98]	; 0x62
    16c4:	0078616d 	rsbseq	r6, r8, sp, ror #2

000016c8 <Code_320>:
    16c8:	cf01      	ldmia	r7!, {r0}
    16ca:	42b0      	cmp	r0, r6
    16cc:	d300      	bcc.n	16d0 <Code_320+0x8>
    16ce:	0006      	movs	r6, r0
    16d0:	4770      	bx	lr
    16d2:	46c0      	nop			; (mov r8, r8)

000016d4 <Dictionary_321>:
    16d4:	00001764 	andeq	r1, r0, r4, ror #14
    16d8:	75040062 	strvc	r0, [r4, #-98]	; 0x62
    16dc:	006e696d 	rsbeq	r6, lr, sp, ror #18

000016e0 <Code_321>:
    16e0:	cf01      	ldmia	r7!, {r0}
    16e2:	42b0      	cmp	r0, r6
    16e4:	d800      	bhi.n	16e8 <Code_321+0x8>
    16e6:	0006      	movs	r6, r0
    16e8:	4770      	bx	lr
    16ea:	41000000 	mrsmi	r0, (UNDEF: 0)
    16ee:	10000000 	andne	r0, r0, r0
    16f2:	40c00000 	sbcmi	r0, r0, r0
    16f6:	08000000 	stmdaeq	r0, {}	; <UNPREDICTABLE>
    16fa:	40800000 	addmi	r0, r0, r0
    16fe:	20000000 	andcs	r0, r0, r0
    1702:	41800000 	orrmi	r0, r0, r0
    1706:	17c00000 	strbne	r0, [r0, r0]
    170a:	db020000 	blle	81712 <BIT19+0x1712>
    170e:	da020000 	ble	81716 <BIT19+0x1716>
    1712:	dc020000 	stcle	0, cr0, [r2], {-0}
    1716:	dd020000 	stcle	0, cr0, [r2, #-0]
    171a:	db010000 	blle	41722 <BIT18+0x1722>
    171e:	da010000 	ble	41726 <BIT18+0x1726>
    1722:	dc010000 	stcle	0, cr0, [r1], {-0}
    1726:	dd010000 	stcle	0, cr0, [r1, #-0]
    172a:	d3020000 	movwle	r0, #8192	; 0x2000
    172e:	d2020000 	andle	r0, r2, #0
    1732:	d8020000 	stmdale	r2, {}	; <UNPREDICTABLE>
    1736:	d9020000 	stmdble	r2, {}	; <UNPREDICTABLE>
    173a:	d3010000 	movwle	r0, #4096	; 0x1000
    173e:	d2010000 	andle	r0, r1, #0
    1742:	d8010000 	stmdale	r1, {}	; <UNPREDICTABLE>
    1746:	d9010000 	stmdble	r1, {}	; <UNPREDICTABLE>
    174a:	d1010000 	mrsle	r0, (UNDEF: 1)
    174e:	d0010000 	andle	r0, r1, r0
    1752:	28000000 	stmdacs	r0, {}	; <UNPREDICTABLE>
    1756:	42800000 	addmi	r0, r0, #0
    175a:	e0010000 	and	r0, r1, r0
    175e:	e0000000 	and	r0, r0, r0
	...

00001764 <Dictionary_322>:
    1764:	000017a4 	andeq	r1, r0, r4, lsr #15
    1768:	6d040000 	stcvs	0, cr0, [r4, #-0]
    176c:	0065766f 	rsbeq	r7, r5, pc, ror #12

00001770 <Code_322>:
    1770:	b507      	push	{r0, r1, r2, lr}
    1772:	0031      	movs	r1, r6
    1774:	cf40      	ldmia	r7!, {r6}
    1776:	0032      	movs	r2, r6
    1778:	cf40      	ldmia	r7!, {r6}
    177a:	2900      	cmp	r1, #0
    177c:	d00f      	beq.n	179e <Code_322+0x2e>
    177e:	42b2      	cmp	r2, r6
    1780:	d00d      	beq.n	179e <Code_322+0x2e>
    1782:	d306      	bcc.n	1792 <Code_322+0x22>
    1784:	3e01      	subs	r6, #1
    1786:	3a01      	subs	r2, #1
    1788:	5c70      	ldrb	r0, [r6, r1]
    178a:	5450      	strb	r0, [r2, r1]
    178c:	3901      	subs	r1, #1
    178e:	d1fb      	bne.n	1788 <Code_322+0x18>
    1790:	e005      	b.n	179e <Code_322+0x2e>
    1792:	7830      	ldrb	r0, [r6, #0]
    1794:	7010      	strb	r0, [r2, #0]
    1796:	3601      	adds	r6, #1
    1798:	3201      	adds	r2, #1
    179a:	3901      	subs	r1, #1
    179c:	d1f9      	bne.n	1792 <Code_322+0x22>
    179e:	cf40      	ldmia	r7!, {r6}
    17a0:	bd07      	pop	{r0, r1, r2, pc}
    17a2:	46c0      	nop			; (mov r8, r8)

000017a4 <Dictionary_326>:
    17a4:	000017c8 	andeq	r1, r0, r8, asr #15
    17a8:	66040000 	strvs	r0, [r4], -r0
    17ac:	006c6c69 	rsbeq	r6, ip, r9, ror #24

000017b0 <Code_326>:
    17b0:	0030      	movs	r0, r6
    17b2:	cf40      	ldmia	r7!, {r6}
    17b4:	0031      	movs	r1, r6
    17b6:	cf40      	ldmia	r7!, {r6}
    17b8:	2900      	cmp	r1, #0
    17ba:	d002      	beq.n	17c2 <Code_326+0x12>
    17bc:	3901      	subs	r1, #1
    17be:	5470      	strb	r0, [r6, r1]
    17c0:	d1fc      	bne.n	17bc <Code_326+0xc>
    17c2:	cf40      	ldmia	r7!, {r6}
    17c4:	4770      	bx	lr
    17c6:	46c0      	nop			; (mov r8, r8)

000017c8 <Dictionary_330>:
    17c8:	000017d8 	ldrdeq	r1, [r0], -r8
    17cc:	40016220 	andmi	r6, r1, r0, lsr #4

000017d0 <Code_330>:
    17d0:	6836      	ldr	r6, [r6, #0]
    17d2:	4770      	bx	lr
    17d4:	6800      	ldr	r0, [r0, #0]
    17d6:	46c0      	nop			; (mov r8, r8)

000017d8 <Dictionary_331>:
    17d8:	000017ec 	andeq	r1, r0, ip, ror #15
    17dc:	21017220 	tstcs	r1, r0, lsr #4

000017e0 <Code_331>:
    17e0:	cf03      	ldmia	r7!, {r0, r1}
    17e2:	6030      	str	r0, [r6, #0]
    17e4:	000e      	movs	r6, r1
    17e6:	4770      	bx	lr
    17e8:	6000      	str	r0, [r0, #0]
    17ea:	46c0      	nop			; (mov r8, r8)

000017ec <Dictionary_332>:
    17ec:	00001830 	andeq	r1, r0, r0, lsr r8
    17f0:	2b020220 	blcs	82078 <BIT19+0x2078>
    17f4:	cf030021 	svcgt	0x00030021

000017f6 <Code_332>:
    17f6:	cf03      	ldmia	r7!, {r0, r1}
    17f8:	6832      	ldr	r2, [r6, #0]
    17fa:	1812      	adds	r2, r2, r0
    17fc:	6032      	str	r2, [r6, #0]
    17fe:	000e      	movs	r6, r1
    1800:	4770      	bx	lr
    1802:	3f04      	subs	r7, #4
    1804:	603e      	str	r6, [r7, #0]
    1806:	4ec2      	ldr	r6, [pc, #776]	; (1b10 <Code_422+0x18>)
    1808:	3f04      	subs	r7, #4
    180a:	603e      	str	r6, [r7, #0]
    180c:	4ec1      	ldr	r6, [pc, #772]	; (1b14 <Code_422+0x1c>)

0000180e <plusstoreoptim>:
    180e:	b500      	push	{lr}
    1810:	f7fe fee9 	bl	5e6 <expect_two_elements>
    1814:	f7ff fbce 	bl	fb4 <dup_allocator>
    1818:	f7fe ffcf 	bl	7ba <alloc_speicherholen>
    181c:	f7ff fc57 	bl	10ce <rot_allocator>
    1820:	f000 fb51 	bl	1ec6 <plus_allocator>
    1824:	f7ff fbfc 	bl	1020 <swap_allocator>
    1828:	f7fe ffc9 	bl	7be <alloc_speicherschreiben>
    182c:	bd00      	pop	{pc}
    182e:	46c0      	nop			; (mov r8, r8)

00001830 <Dictionary_337>:
    1830:	00001840 	andeq	r1, r0, r0, asr #16
    1834:	68026220 	stmdavs	r2, {r5, r9, sp, lr}
    1838:	88360040 	ldmdahi	r6!, {r6}

0000183a <Code_337>:
    183a:	8836      	ldrh	r6, [r6, #0]
    183c:	4770      	bx	lr
    183e:	8800      	ldrh	r0, [r0, #0]

00001840 <Dictionary_338>:
    1840:	00001854 	andeq	r1, r0, r4, asr r8
    1844:	68027220 	stmdavs	r2, {r5, r9, ip, sp, lr}
    1848:	cf030021 	svcgt	0x00030021

0000184a <Code_338>:
    184a:	cf03      	ldmia	r7!, {r0, r1}
    184c:	8030      	strh	r0, [r6, #0]
    184e:	000e      	movs	r6, r1
    1850:	4770      	bx	lr
    1852:	8000      	strh	r0, [r0, #0]

00001854 <Dictionary_339>:
    1854:	00001878 	andeq	r1, r0, r8, ror r8
    1858:	68030220 	stmdavs	r3, {r5, r9}
    185c:	cf03212b 	svcgt	0x0003212b

0000185e <Code_339>:
    185e:	cf03      	ldmia	r7!, {r0, r1}
    1860:	8832      	ldrh	r2, [r6, #0]
    1862:	1812      	adds	r2, r2, r0
    1864:	8032      	strh	r2, [r6, #0]
    1866:	000e      	movs	r6, r1
    1868:	4770      	bx	lr
    186a:	3f04      	subs	r7, #4
    186c:	603e      	str	r6, [r7, #0]
    186e:	4eaa      	ldr	r6, [pc, #680]	; (1b18 <Code_422+0x20>)
    1870:	3f04      	subs	r7, #4
    1872:	603e      	str	r6, [r7, #0]
    1874:	4ea9      	ldr	r6, [pc, #676]	; (1b1c <Code_422+0x24>)
    1876:	e7ca      	b.n	180e <plusstoreoptim>

00001878 <Dictionary_344>:
    1878:	00001888 	andeq	r1, r0, r8, lsl #17
    187c:	63026220 	movwvs	r6, #8736	; 0x2220
    1880:	78360040 	ldmdavc	r6!, {r6}

00001882 <Code_344>:
    1882:	7836      	ldrb	r6, [r6, #0]
    1884:	4770      	bx	lr
    1886:	7800      	ldrb	r0, [r0, #0]

00001888 <Dictionary_345>:
    1888:	0000189c 	muleq	r0, ip, r8
    188c:	63027220 	movwvs	r7, #8736	; 0x2220
    1890:	cf030021 	svcgt	0x00030021

00001892 <Code_345>:
    1892:	cf03      	ldmia	r7!, {r0, r1}
    1894:	7030      	strb	r0, [r6, #0]
    1896:	000e      	movs	r6, r1
    1898:	4770      	bx	lr
    189a:	7000      	strb	r0, [r0, #0]

0000189c <Dictionary_346>:
    189c:	000018c0 	andeq	r1, r0, r0, asr #17
    18a0:	63030220 	movwvs	r0, #12832	; 0x3220
    18a4:	cf03212b 	svcgt	0x0003212b

000018a6 <Code_346>:
    18a6:	cf03      	ldmia	r7!, {r0, r1}
    18a8:	7832      	ldrb	r2, [r6, #0]
    18aa:	1812      	adds	r2, r2, r0
    18ac:	7032      	strb	r2, [r6, #0]
    18ae:	000e      	movs	r6, r1
    18b0:	4770      	bx	lr
    18b2:	3f04      	subs	r7, #4
    18b4:	603e      	str	r6, [r7, #0]
    18b6:	4e9a      	ldr	r6, [pc, #616]	; (1b20 <Code_422+0x28>)
    18b8:	3f04      	subs	r7, #4
    18ba:	603e      	str	r6, [r7, #0]
    18bc:	4e99      	ldr	r6, [pc, #612]	; (1b24 <Code_422+0x2c>)
    18be:	e7a6      	b.n	180e <plusstoreoptim>

000018c0 <Dictionary_351>:
    18c0:	0000190c 	andeq	r1, r0, ip, lsl #18
    18c4:	62040220 	andvs	r0, r4, #2
    18c8:	00217369 	eoreq	r7, r1, r9, ror #6

000018cc <Code_351>:
    18cc:	cf03      	ldmia	r7!, {r0, r1}
    18ce:	6832      	ldr	r2, [r6, #0]
    18d0:	4302      	orrs	r2, r0
    18d2:	6032      	str	r2, [r6, #0]
    18d4:	000e      	movs	r6, r1
    18d6:	4770      	bx	lr
    18d8:	3f04      	subs	r7, #4
    18da:	603e      	str	r6, [r7, #0]
    18dc:	4e8c      	ldr	r6, [pc, #560]	; (1b10 <Code_422+0x18>)
    18de:	3f04      	subs	r7, #4
    18e0:	603e      	str	r6, [r7, #0]
    18e2:	4e91      	ldr	r6, [pc, #580]	; (1b28 <Code_422+0x30>)
    18e4:	3f04      	subs	r7, #4
    18e6:	603e      	str	r6, [r7, #0]
    18e8:	4e8a      	ldr	r6, [pc, #552]	; (1b14 <Code_422+0x1c>)

000018ea <kommutativstoreoptim>:
    18ea:	b500      	push	{lr}
    18ec:	f7fe fe7b 	bl	5e6 <expect_two_elements>
    18f0:	f7ff fb60 	bl	fb4 <dup_allocator>
    18f4:	f7fe ff61 	bl	7ba <alloc_speicherholen>
    18f8:	f7ff fbe9 	bl	10ce <rot_allocator>
    18fc:	f7fe ff59 	bl	7b2 <alloc_kommutativ>
    1900:	f7ff fb8e 	bl	1020 <swap_allocator>
    1904:	f7fe ff5b 	bl	7be <alloc_speicherschreiben>
    1908:	bd00      	pop	{pc}
    190a:	46c0      	nop			; (mov r8, r8)

0000190c <Dictionary_358>:
    190c:	00001958 	andeq	r1, r0, r8, asr r9
    1910:	62040220 	andvs	r0, r4, #2
    1914:	00216369 	eoreq	r6, r1, r9, ror #6

00001918 <Code_358>:
    1918:	cf03      	ldmia	r7!, {r0, r1}
    191a:	6832      	ldr	r2, [r6, #0]
    191c:	4382      	bics	r2, r0
    191e:	6032      	str	r2, [r6, #0]
    1920:	000e      	movs	r6, r1
    1922:	4770      	bx	lr
    1924:	3f04      	subs	r7, #4
    1926:	603e      	str	r6, [r7, #0]
    1928:	4e79      	ldr	r6, [pc, #484]	; (1b10 <Code_422+0x18>)
    192a:	3f04      	subs	r7, #4
    192c:	603e      	str	r6, [r7, #0]
    192e:	4e7f      	ldr	r6, [pc, #508]	; (1b2c <Code_422+0x34>)
    1930:	3f04      	subs	r7, #4
    1932:	603e      	str	r6, [r7, #0]
    1934:	4e77      	ldr	r6, [pc, #476]	; (1b14 <Code_422+0x1c>)

00001936 <unkommutativstoreoptim>:
    1936:	b500      	push	{lr}
    1938:	f7fe fe55 	bl	5e6 <expect_two_elements>
    193c:	f7ff fb3a 	bl	fb4 <dup_allocator>
    1940:	f7fe ff3b 	bl	7ba <alloc_speicherholen>
    1944:	f7ff fbc3 	bl	10ce <rot_allocator>
    1948:	f7fe ff35 	bl	7b6 <alloc_unkommutativ>
    194c:	f7ff fb68 	bl	1020 <swap_allocator>
    1950:	f7fe ff35 	bl	7be <alloc_speicherschreiben>
    1954:	bd00      	pop	{pc}
    1956:	46c0      	nop			; (mov r8, r8)

00001958 <Dictionary_365>:
    1958:	00001984 	andeq	r1, r0, r4, lsl #19
    195c:	78040220 	stmdavc	r4, {r5, r9}
    1960:	0021726f 	eoreq	r7, r1, pc, ror #4

00001964 <Code_365>:
    1964:	cf03      	ldmia	r7!, {r0, r1}
    1966:	6832      	ldr	r2, [r6, #0]
    1968:	4042      	eors	r2, r0
    196a:	6032      	str	r2, [r6, #0]
    196c:	000e      	movs	r6, r1
    196e:	4770      	bx	lr
    1970:	3f04      	subs	r7, #4
    1972:	603e      	str	r6, [r7, #0]
    1974:	4e66      	ldr	r6, [pc, #408]	; (1b10 <Code_422+0x18>)
    1976:	3f04      	subs	r7, #4
    1978:	603e      	str	r6, [r7, #0]
    197a:	4e6d      	ldr	r6, [pc, #436]	; (1b30 <Code_422+0x38>)
    197c:	3f04      	subs	r7, #4
    197e:	603e      	str	r6, [r7, #0]
    1980:	4e64      	ldr	r6, [pc, #400]	; (1b14 <Code_422+0x1c>)
    1982:	e7b2      	b.n	18ea <kommutativstoreoptim>

00001984 <Dictionary_372>:
    1984:	000019c0 	andeq	r1, r0, r0, asr #19
    1988:	62040220 	andvs	r0, r4, #2
    198c:	00407469 	subeq	r7, r0, r9, ror #8

00001990 <Code_372>:
    1990:	cf01      	ldmia	r7!, {r0}
    1992:	6836      	ldr	r6, [r6, #0]
    1994:	4006      	ands	r6, r0
    1996:	3e01      	subs	r6, #1
    1998:	41b6      	sbcs	r6, r6
    199a:	43f6      	mvns	r6, r6
    199c:	4770      	bx	lr
    199e:	3f04      	subs	r7, #4
    19a0:	603e      	str	r6, [r7, #0]
    19a2:	4e5c      	ldr	r6, [pc, #368]	; (1b14 <Code_422+0x1c>)

000019a4 <bitfetchoptim>:
    19a4:	b500      	push	{lr}
    19a6:	f7fe fe1e 	bl	5e6 <expect_two_elements>
    19aa:	f7fe ff06 	bl	7ba <alloc_speicherholen>
    19ae:	3f04      	subs	r7, #4
    19b0:	603e      	str	r6, [r7, #0]
    19b2:	4e60      	ldr	r6, [pc, #384]	; (1b34 <Code_422+0x3c>)
    19b4:	f7fe fefd 	bl	7b2 <alloc_kommutativ>
    19b8:	f7ff fd1d 	bl	13f6 <allocator_unequal_zero>
    19bc:	bd00      	pop	{pc}
    19be:	46c0      	nop			; (mov r8, r8)

000019c0 <Dictionary_377>:
    19c0:	000019ec 	andeq	r1, r0, ip, ror #19
    19c4:	68050220 	stmdavs	r5, {r5, r9}
    19c8:	21736962 	cmncs	r3, r2, ror #18

000019cc <Code_377>:
    19cc:	cf03      	ldmia	r7!, {r0, r1}
    19ce:	8832      	ldrh	r2, [r6, #0]
    19d0:	4302      	orrs	r2, r0
    19d2:	8032      	strh	r2, [r6, #0]
    19d4:	000e      	movs	r6, r1
    19d6:	4770      	bx	lr
    19d8:	3f04      	subs	r7, #4
    19da:	603e      	str	r6, [r7, #0]
    19dc:	4e4e      	ldr	r6, [pc, #312]	; (1b18 <Code_422+0x20>)
    19de:	3f04      	subs	r7, #4
    19e0:	603e      	str	r6, [r7, #0]
    19e2:	4e51      	ldr	r6, [pc, #324]	; (1b28 <Code_422+0x30>)
    19e4:	3f04      	subs	r7, #4
    19e6:	603e      	str	r6, [r7, #0]
    19e8:	4e4c      	ldr	r6, [pc, #304]	; (1b1c <Code_422+0x24>)
    19ea:	e77e      	b.n	18ea <kommutativstoreoptim>

000019ec <Dictionary_384>:
    19ec:	00001a18 	andeq	r1, r0, r8, lsl sl
    19f0:	68050220 	stmdavs	r5, {r5, r9}
    19f4:	21636962 	cmncs	r3, r2, ror #18

000019f8 <Code_384>:
    19f8:	cf03      	ldmia	r7!, {r0, r1}
    19fa:	8832      	ldrh	r2, [r6, #0]
    19fc:	4382      	bics	r2, r0
    19fe:	8032      	strh	r2, [r6, #0]
    1a00:	000e      	movs	r6, r1
    1a02:	4770      	bx	lr
    1a04:	3f04      	subs	r7, #4
    1a06:	603e      	str	r6, [r7, #0]
    1a08:	4e43      	ldr	r6, [pc, #268]	; (1b18 <Code_422+0x20>)
    1a0a:	3f04      	subs	r7, #4
    1a0c:	603e      	str	r6, [r7, #0]
    1a0e:	4e47      	ldr	r6, [pc, #284]	; (1b2c <Code_422+0x34>)
    1a10:	3f04      	subs	r7, #4
    1a12:	603e      	str	r6, [r7, #0]
    1a14:	4e41      	ldr	r6, [pc, #260]	; (1b1c <Code_422+0x24>)
    1a16:	e78e      	b.n	1936 <unkommutativstoreoptim>

00001a18 <Dictionary_391>:
    1a18:	00001a44 	andeq	r1, r0, r4, asr #20
    1a1c:	68050220 	stmdavs	r5, {r5, r9}
    1a20:	21726f78 	cmncs	r2, r8, ror pc

00001a24 <Code_391>:
    1a24:	cf03      	ldmia	r7!, {r0, r1}
    1a26:	8832      	ldrh	r2, [r6, #0]
    1a28:	4042      	eors	r2, r0
    1a2a:	8032      	strh	r2, [r6, #0]
    1a2c:	000e      	movs	r6, r1
    1a2e:	4770      	bx	lr
    1a30:	3f04      	subs	r7, #4
    1a32:	603e      	str	r6, [r7, #0]
    1a34:	4e38      	ldr	r6, [pc, #224]	; (1b18 <Code_422+0x20>)
    1a36:	3f04      	subs	r7, #4
    1a38:	603e      	str	r6, [r7, #0]
    1a3a:	4e3d      	ldr	r6, [pc, #244]	; (1b30 <Code_422+0x38>)
    1a3c:	3f04      	subs	r7, #4
    1a3e:	603e      	str	r6, [r7, #0]
    1a40:	4e36      	ldr	r6, [pc, #216]	; (1b1c <Code_422+0x24>)
    1a42:	e752      	b.n	18ea <kommutativstoreoptim>

00001a44 <Dictionary_398>:
    1a44:	00001a68 	andeq	r1, r0, r8, ror #20
    1a48:	68050220 	stmdavs	r5, {r5, r9}
    1a4c:	40746962 	rsbsmi	r6, r4, r2, ror #18

00001a50 <Code_398>:
    1a50:	cf01      	ldmia	r7!, {r0}
    1a52:	8836      	ldrh	r6, [r6, #0]
    1a54:	4006      	ands	r6, r0
    1a56:	3e01      	subs	r6, #1
    1a58:	41b6      	sbcs	r6, r6
    1a5a:	43f6      	mvns	r6, r6
    1a5c:	4770      	bx	lr
    1a5e:	3f04      	subs	r7, #4
    1a60:	603e      	str	r6, [r7, #0]
    1a62:	4e2e      	ldr	r6, [pc, #184]	; (1b1c <Code_422+0x24>)
    1a64:	e79e      	b.n	19a4 <bitfetchoptim>
    1a66:	46c0      	nop			; (mov r8, r8)

00001a68 <Dictionary_401>:
    1a68:	00001a94 	muleq	r0, r4, sl
    1a6c:	63050220 	movwvs	r0, #21024	; 0x5220
    1a70:	21736962 	cmncs	r3, r2, ror #18

00001a74 <Code_401>:
    1a74:	cf03      	ldmia	r7!, {r0, r1}
    1a76:	7832      	ldrb	r2, [r6, #0]
    1a78:	4302      	orrs	r2, r0
    1a7a:	7032      	strb	r2, [r6, #0]
    1a7c:	000e      	movs	r6, r1
    1a7e:	4770      	bx	lr
    1a80:	3f04      	subs	r7, #4
    1a82:	603e      	str	r6, [r7, #0]
    1a84:	4e26      	ldr	r6, [pc, #152]	; (1b20 <Code_422+0x28>)
    1a86:	3f04      	subs	r7, #4
    1a88:	603e      	str	r6, [r7, #0]
    1a8a:	4e27      	ldr	r6, [pc, #156]	; (1b28 <Code_422+0x30>)
    1a8c:	3f04      	subs	r7, #4
    1a8e:	603e      	str	r6, [r7, #0]
    1a90:	4e24      	ldr	r6, [pc, #144]	; (1b24 <Code_422+0x2c>)
    1a92:	e72a      	b.n	18ea <kommutativstoreoptim>

00001a94 <Dictionary_408>:
    1a94:	00001ac0 	andeq	r1, r0, r0, asr #21
    1a98:	63050220 	movwvs	r0, #21024	; 0x5220
    1a9c:	21636962 	cmncs	r3, r2, ror #18

00001aa0 <Code_408>:
    1aa0:	cf03      	ldmia	r7!, {r0, r1}
    1aa2:	7832      	ldrb	r2, [r6, #0]
    1aa4:	4382      	bics	r2, r0
    1aa6:	7032      	strb	r2, [r6, #0]
    1aa8:	000e      	movs	r6, r1
    1aaa:	4770      	bx	lr
    1aac:	3f04      	subs	r7, #4
    1aae:	603e      	str	r6, [r7, #0]
    1ab0:	4e1b      	ldr	r6, [pc, #108]	; (1b20 <Code_422+0x28>)
    1ab2:	3f04      	subs	r7, #4
    1ab4:	603e      	str	r6, [r7, #0]
    1ab6:	4e1d      	ldr	r6, [pc, #116]	; (1b2c <Code_422+0x34>)
    1ab8:	3f04      	subs	r7, #4
    1aba:	603e      	str	r6, [r7, #0]
    1abc:	4e19      	ldr	r6, [pc, #100]	; (1b24 <Code_422+0x2c>)
    1abe:	e73a      	b.n	1936 <unkommutativstoreoptim>

00001ac0 <Dictionary_415>:
    1ac0:	00001aec 	andeq	r1, r0, ip, ror #21
    1ac4:	63050220 	movwvs	r0, #21024	; 0x5220
    1ac8:	21726f78 	cmncs	r2, r8, ror pc

00001acc <Code_415>:
    1acc:	cf03      	ldmia	r7!, {r0, r1}
    1ace:	7832      	ldrb	r2, [r6, #0]
    1ad0:	4042      	eors	r2, r0
    1ad2:	7032      	strb	r2, [r6, #0]
    1ad4:	000e      	movs	r6, r1
    1ad6:	4770      	bx	lr
    1ad8:	3f04      	subs	r7, #4
    1ada:	603e      	str	r6, [r7, #0]
    1adc:	4e10      	ldr	r6, [pc, #64]	; (1b20 <Code_422+0x28>)
    1ade:	3f04      	subs	r7, #4
    1ae0:	603e      	str	r6, [r7, #0]
    1ae2:	4e13      	ldr	r6, [pc, #76]	; (1b30 <Code_422+0x38>)
    1ae4:	3f04      	subs	r7, #4
    1ae6:	603e      	str	r6, [r7, #0]
    1ae8:	4e0e      	ldr	r6, [pc, #56]	; (1b24 <Code_422+0x2c>)
    1aea:	e6fe      	b.n	18ea <kommutativstoreoptim>

00001aec <Dictionary_422>:
    1aec:	00001b38 	andeq	r1, r0, r8, lsr fp
    1af0:	63050220 	movwvs	r0, #21024	; 0x5220
    1af4:	40746962 	rsbsmi	r6, r4, r2, ror #18

00001af8 <Code_422>:
    1af8:	cf01      	ldmia	r7!, {r0}
    1afa:	7836      	ldrb	r6, [r6, #0]
    1afc:	4006      	ands	r6, r0
    1afe:	3e01      	subs	r6, #1
    1b00:	41b6      	sbcs	r6, r6
    1b02:	43f6      	mvns	r6, r6
    1b04:	4770      	bx	lr
    1b06:	3f04      	subs	r7, #4
    1b08:	603e      	str	r6, [r7, #0]
    1b0a:	4e06      	ldr	r6, [pc, #24]	; (1b24 <Code_422+0x2c>)
    1b0c:	e74a      	b.n	19a4 <bitfetchoptim>
    1b0e:	60000000 	andvs	r0, r0, r0
    1b12:	68000000 	stmdavs	r0, {}	; <UNPREDICTABLE>
    1b16:	80000000 	andhi	r0, r0, r0
    1b1a:	88000000 	stmdahi	r0, {}	; <UNPREDICTABLE>
    1b1e:	70000000 	andvc	r0, r0, r0
    1b22:	78000000 	stmdavc	r0, {}	; <UNPREDICTABLE>
    1b26:	43000000 	movwmi	r0, #0
    1b2a:	43800000 	orrmi	r0, r0, #0
    1b2e:	40400000 	submi	r0, r0, r0
    1b32:	40000000 	andmi	r0, r0, r0
	...

00001b38 <Dictionary_425>:
    1b38:	00001c48 	andeq	r1, r0, r8, asr #24
    1b3c:	66060000 	strvs	r0, [r6], -r0
    1b40:	6873616c 	ldmdavs	r3!, {r2, r3, r5, r6, r8, sp, lr}^
    1b44:	00300021 	eorseq	r0, r0, r1, lsr #32

00001b46 <Code_425>:
    1b46:	0030      	movs	r0, r6
    1b48:	cf40      	ldmia	r7!, {r6}
    1b4a:	0031      	movs	r1, r6
    1b4c:	cf40      	ldmia	r7!, {r6}
    1b4e:	4b85      	ldr	r3, [pc, #532]	; (1d64 <Code_442+0x6>)
    1b50:	4298      	cmp	r0, r3
    1b52:	d368      	bcc.n	1c26 <Code_425+0xe0>
    1b54:	4b84      	ldr	r3, [pc, #528]	; (1d68 <Code_442+0xa>)
    1b56:	4299      	cmp	r1, r3
    1b58:	d02e      	beq.n	1bb8 <Code_425+0x72>
    1b5a:	2203      	movs	r2, #3
    1b5c:	4002      	ands	r2, r0
    1b5e:	d12c      	bne.n	1bba <Code_425+0x74>
    1b60:	6802      	ldr	r2, [r0, #0]
    1b62:	429a      	cmp	r2, r3
    1b64:	d146      	bne.n	1bf4 <Code_425+0xae>
    1b66:	4a81      	ldr	r2, [pc, #516]	; (1d6c <Code_442+0xe>)
    1b68:	7813      	ldrb	r3, [r2, #0]
    1b6a:	2280      	movs	r2, #128	; 0x80
    1b6c:	401a      	ands	r2, r3
    1b6e:	d0fa      	beq.n	1b66 <Code_425+0x20>
    1b70:	2230      	movs	r2, #48	; 0x30
    1b72:	401a      	ands	r2, r3
    1b74:	d002      	beq.n	1b7c <Code_425+0x36>
    1b76:	4a7d      	ldr	r2, [pc, #500]	; (1d6c <Code_442+0xe>)
    1b78:	2330      	movs	r3, #48	; 0x30
    1b7a:	7013      	strb	r3, [r2, #0]
    1b7c:	4a7c      	ldr	r2, [pc, #496]	; (1d70 <Code_442+0x12>)
    1b7e:	2306      	movs	r3, #6
    1b80:	7013      	strb	r3, [r2, #0]
    1b82:	4a7c      	ldr	r2, [pc, #496]	; (1d74 <Code_442+0x16>)
    1b84:	7010      	strb	r0, [r2, #0]
    1b86:	0a00      	lsrs	r0, r0, #8
    1b88:	4a7b      	ldr	r2, [pc, #492]	; (1d78 <Code_442+0x1a>)
    1b8a:	7010      	strb	r0, [r2, #0]
    1b8c:	0a00      	lsrs	r0, r0, #8
    1b8e:	4a7b      	ldr	r2, [pc, #492]	; (1d7c <Code_442+0x1e>)
    1b90:	7010      	strb	r0, [r2, #0]
    1b92:	4a7b      	ldr	r2, [pc, #492]	; (1d80 <Code_442+0x22>)
    1b94:	7011      	strb	r1, [r2, #0]
    1b96:	0a09      	lsrs	r1, r1, #8
    1b98:	4a7a      	ldr	r2, [pc, #488]	; (1d84 <Code_442+0x26>)
    1b9a:	7011      	strb	r1, [r2, #0]
    1b9c:	0a09      	lsrs	r1, r1, #8
    1b9e:	4a7a      	ldr	r2, [pc, #488]	; (1d88 <Code_442+0x2a>)
    1ba0:	7011      	strb	r1, [r2, #0]
    1ba2:	0a09      	lsrs	r1, r1, #8
    1ba4:	4a79      	ldr	r2, [pc, #484]	; (1d8c <Code_442+0x2e>)
    1ba6:	7011      	strb	r1, [r2, #0]
    1ba8:	4a70      	ldr	r2, [pc, #448]	; (1d6c <Code_442+0xe>)
    1baa:	2380      	movs	r3, #128	; 0x80
    1bac:	7013      	strb	r3, [r2, #0]
    1bae:	4a6f      	ldr	r2, [pc, #444]	; (1d6c <Code_442+0xe>)
    1bb0:	7813      	ldrb	r3, [r2, #0]
    1bb2:	2280      	movs	r2, #128	; 0x80
    1bb4:	401a      	ands	r2, r3
    1bb6:	d0fa      	beq.n	1bae <Code_425+0x68>
    1bb8:	4770      	bx	lr
    1bba:	f000 fdbf 	bl	273c <dotgaensefuesschen>
    1bbe:	64644130 	strbtvs	r4, [r4], #-304	; 0x130
    1bc2:	73736572 	cmnvc	r3, #478150656	; 0x1c800000
    1bc6:	73616820 	cmnvc	r1, #2097152	; 0x200000
    1bca:	206f7420 	rsbcs	r7, pc, r0, lsr #8
    1bce:	34206562 	strtcc	r6, [r0], #-1378	; 0x562
    1bd2:	696c612d 	stmdbvs	ip!, {r0, r2, r3, r5, r8, sp, lr}^
    1bd6:	64656e67 	strbtvs	r6, [r5], #-3687	; 0xe67
    1bda:	726f6620 	rsbvc	r6, pc, #33554432	; 0x2000000
    1bde:	69727720 	ldmdbvs	r2!, {r5, r8, r9, sl, ip, sp, lr}^
    1be2:	676e6974 			; <UNDEFINED> instruction: 0x676e6974
    1be6:	616c6620 	cmnvs	ip, r0, lsr #12
    1bea:	21206873 	teqcs	r0, r3, ror r8
    1bee:	f002000a 			; <UNDEFINED> instruction: 0xf002000a
    1bf2:	fc2e f000 	stc2	0, cr15, [lr], #-0
    1bf6:	fda2 4629 	stc2	6, cr4, [r2, #164]!	; 0xa4
    1bfa:	6873616c 	ldmdavs	r3!, {r2, r3, r5, r6, r8, sp, lr}^
    1bfe:	636f6c20 	cmnvs	pc, #8192	; 0x2000
    1c02:	6f697461 	svcvs	0x00697461
    1c06:	6163206e 	cmnvs	r3, lr, rrx
    1c0a:	746f6e6e 	strbtvc	r6, [pc], #-3694	; 1c12 <Code_425+0xcc>
    1c0e:	20656220 	rsbcs	r6, r5, r0, lsr #4
    1c12:	74697277 	strbtvc	r7, [r9], #-631	; 0x277
    1c16:	206e6574 	rsbcs	r6, lr, r4, ror r5
    1c1a:	63697774 	cmnvs	r9, #30408704	; 0x1d00000
    1c1e:	0a212065 	beq	849dba <BIT23+0x49dba>
    1c22:	f002 fc15 	bl	4450 <Code_1191>
    1c26:	f000 fd89 	bl	273c <dotgaensefuesschen>
    1c2a:	6e614319 	mcrvs	3, 3, r4, cr1, cr9, {0}
    1c2e:	20746f6e 	rsbscs	r6, r4, lr, ror #30
    1c32:	74697277 	strbtvc	r7, [r9], #-631	; 0x277
    1c36:	6e692065 	cdpvs	0, 6, cr2, cr9, cr5, {3}
    1c3a:	63206f74 	teqvs	r0, #464	; 0x1d0
    1c3e:	2065726f 	rsbcs	r7, r5, pc, ror #4
    1c42:	f0020a21 			; <UNDEFINED> instruction: 0xf0020a21
    1c46:	fc04 1ccc 	stc2	12, cr1, [r4], {204}	; 0xcc

00001c48 <Dictionary_431>:
    1c48:	00001ccc 	andeq	r1, r0, ip, asr #25
    1c4c:	660e0000 	strvs	r0, [lr], -r0
    1c50:	6873616c 	ldmdavs	r3!, {r2, r3, r5, r6, r8, sp, lr}^
    1c54:	65676170 	strbvs	r6, [r7, #-368]!	; 0x170
    1c58:	73617265 	cmnvc	r1, #1342177286	; 0x50000006
    1c5c:	b50f0065 	strlt	r0, [pc, #-101]	; 1bff <Code_425+0xb9>

00001c5e <Code_431>:
    1c5e:	b50f      	push	{r0, r1, r2, r3, lr}
    1c60:	0030      	movs	r0, r6
    1c62:	cf40      	ldmia	r7!, {r6}
    1c64:	4b3f      	ldr	r3, [pc, #252]	; (1d64 <Code_442+0x6>)
    1c66:	4298      	cmp	r0, r3
    1c68:	d320      	bcc.n	1cac <Code_431+0x4e>
    1c6a:	2303      	movs	r3, #3
    1c6c:	4398      	bics	r0, r3
    1c6e:	4a3f      	ldr	r2, [pc, #252]	; (1d6c <Code_442+0xe>)
    1c70:	7813      	ldrb	r3, [r2, #0]
    1c72:	2280      	movs	r2, #128	; 0x80
    1c74:	401a      	ands	r2, r3
    1c76:	d0fa      	beq.n	1c6e <Code_431+0x10>
    1c78:	2230      	movs	r2, #48	; 0x30
    1c7a:	401a      	ands	r2, r3
    1c7c:	d002      	beq.n	1c84 <Code_431+0x26>
    1c7e:	4a3b      	ldr	r2, [pc, #236]	; (1d6c <Code_442+0xe>)
    1c80:	2330      	movs	r3, #48	; 0x30
    1c82:	7013      	strb	r3, [r2, #0]
    1c84:	4a3a      	ldr	r2, [pc, #232]	; (1d70 <Code_442+0x12>)
    1c86:	2309      	movs	r3, #9
    1c88:	7013      	strb	r3, [r2, #0]
    1c8a:	4a3a      	ldr	r2, [pc, #232]	; (1d74 <Code_442+0x16>)
    1c8c:	7010      	strb	r0, [r2, #0]
    1c8e:	0a00      	lsrs	r0, r0, #8
    1c90:	4a39      	ldr	r2, [pc, #228]	; (1d78 <Code_442+0x1a>)
    1c92:	7010      	strb	r0, [r2, #0]
    1c94:	0a00      	lsrs	r0, r0, #8
    1c96:	4a39      	ldr	r2, [pc, #228]	; (1d7c <Code_442+0x1e>)
    1c98:	7010      	strb	r0, [r2, #0]
    1c9a:	4a34      	ldr	r2, [pc, #208]	; (1d6c <Code_442+0xe>)
    1c9c:	2380      	movs	r3, #128	; 0x80
    1c9e:	7013      	strb	r3, [r2, #0]
    1ca0:	4a32      	ldr	r2, [pc, #200]	; (1d6c <Code_442+0xe>)
    1ca2:	7813      	ldrb	r3, [r2, #0]
    1ca4:	2280      	movs	r2, #128	; 0x80
    1ca6:	401a      	ands	r2, r3
    1ca8:	d0fa      	beq.n	1ca0 <Code_431+0x42>
    1caa:	bd0f      	pop	{r0, r1, r2, r3, pc}
    1cac:	f000 fd46 	bl	273c <dotgaensefuesschen>
    1cb0:	6e614314 	mcrvs	3, 3, r4, cr1, cr4, {0}
    1cb4:	20746f6e 	rsbscs	r6, r4, lr, ror #30
    1cb8:	73617265 	cmnvc	r1, #1342177286	; 0x50000006
    1cbc:	6f632065 	svcvs	0x00632065
    1cc0:	21206572 	teqcs	r0, r2, ror r5
    1cc4:	f002000a 			; <UNDEFINED> instruction: 0xf002000a
    1cc8:	fbc3 46c0 	smlald	r4, r6, r3, r0

00001ccc <Dictionary_434>:
    1ccc:	00001d48 	andeq	r1, r0, r8, asr #26
    1cd0:	650a0000 	strvs	r0, [sl, #-0]
    1cd4:	65736172 	ldrbvs	r6, [r3, #-370]!	; 0x172
    1cd8:	73616c66 	cmnvc	r1, #26112	; 0x6600
    1cdc:	48210068 	stmdami	r1!, {r3, r5, r6}

00001cde <Code_434>:
    1cde:	4821      	ldr	r0, [pc, #132]	; (1d64 <Code_442+0x6>)

00001ce0 <eraseflash_intern>:
    1ce0:	b672      	cpsid	i
    1ce2:	492b      	ldr	r1, [pc, #172]	; (1d90 <Code_442+0x32>)
    1ce4:	4a2b      	ldr	r2, [pc, #172]	; (1d94 <Code_442+0x36>)
    1ce6:	6803      	ldr	r3, [r0, #0]
    1ce8:	4293      	cmp	r3, r2
    1cea:	d01c      	beq.n	1d26 <eraseflash_intern+0x46>
    1cec:	3f04      	subs	r7, #4
    1cee:	603e      	str	r6, [r7, #0]
    1cf0:	0006      	movs	r6, r0
    1cf2:	3f04      	subs	r7, #4
    1cf4:	603e      	str	r6, [r7, #0]
    1cf6:	f000 fd21 	bl	273c <dotgaensefuesschen>
    1cfa:	61724510 	cmnvs	r2, r0, lsl r5
    1cfe:	62206573 	eorvs	r6, r0, #482344960	; 0x1cc00000
    1d02:	6b636f6c 	blvs	18ddaba <BIT24+0x8ddaba>
    1d06:	20746120 	rsbscs	r6, r4, r0, lsr #2
    1d0a:	f0000020 			; <UNDEFINED> instruction: 0xf0000020
    1d0e:	fd8e f000 	stc2	0, cr15, [lr]
    1d12:	fd14 200c 	ldc2	0, cr2, [r4, #-48]	; 0xffffffd0
    1d16:	6d6f7266 	sfmvs	f7, 2, [pc, #-408]!	; 1b84 <Code_425+0x3e>
    1d1a:	616c4620 	cmnvs	ip, r0, lsr #12
    1d1e:	000a6873 	andeq	r6, sl, r3, ror r8
    1d22:	f7ff ff9c 	bl	1c5e <Code_431>
    1d26:	3004      	adds	r0, #4
    1d28:	4288      	cmp	r0, r1
    1d2a:	d1dc      	bne.n	1ce6 <eraseflash_intern+0x6>
    1d2c:	f000 fd06 	bl	273c <dotgaensefuesschen>
    1d30:	6e694612 	mcrvs	6, 3, r4, cr9, cr2, {0}
    1d34:	65687369 	strbvs	r7, [r8, #-873]!	; 0x369
    1d38:	52202e64 	eorpl	r2, r0, #1600	; 0x640
    1d3c:	74657365 	strbtvc	r7, [r5], #-869	; 0x365
    1d40:	000a2120 	andeq	r2, sl, r0, lsr #2
    1d44:	f002 fc14 	bl	4570 <Code_1204>

00001d48 <Dictionary_442>:
    1d48:	00001de0 	andeq	r1, r0, r0, ror #27
    1d4c:	650e0000 	strvs	r0, [lr, #-0]
    1d50:	65736172 	ldrbvs	r6, [r3, #-370]!	; 0x172
    1d54:	73616c66 	cmnvc	r1, #26112	; 0x6600
    1d58:	6f726668 	svcvs	0x00726668
    1d5c:	0030006d 	eorseq	r0, r0, sp, rrx

00001d5e <Code_442>:
    1d5e:	0030      	movs	r0, r6
    1d60:	cf40      	ldmia	r7!, {r6}
    1d62:	e7bd      	b.n	1ce0 <eraseflash_intern>
    1d64:	00006000 	andeq	r6, r0, r0
    1d68:	ffffffff 			; <UNDEFINED> instruction: 0xffffffff
    1d6c:	40020000 	andmi	r0, r2, r0
    1d70:	40020007 	andmi	r0, r2, r7
    1d74:	40020004 	andmi	r0, r2, r4
    1d78:	40020005 	andmi	r0, r2, r5
    1d7c:	40020006 	andmi	r0, r2, r6
    1d80:	40020008 	andmi	r0, r2, r8
    1d84:	40020009 	andmi	r0, r2, r9
    1d88:	4002000a 	andmi	r0, r2, sl
    1d8c:	4002000b 	andmi	r0, r2, fp
    1d90:	00020000 	andeq	r0, r2, r0
    1d94:	ffffffff 			; <UNDEFINED> instruction: 0xffffffff

00001d98 <sammeltabelleleeren>:
    1d98:	4846      	ldr	r0, [pc, #280]	; (1eb4 <hflashstoreemulation_gefunden+0x2a>)
    1d9a:	2160      	movs	r1, #96	; 0x60
    1d9c:	2200      	movs	r2, #0
    1d9e:	8002      	strh	r2, [r0, #0]
    1da0:	3002      	adds	r0, #2
    1da2:	3901      	subs	r1, #1
    1da4:	d1fb      	bne.n	1d9e <sammeltabelleleeren+0x6>
    1da6:	4770      	bx	lr

00001da8 <sammeltabelleleerprobe>:
    1da8:	4842      	ldr	r0, [pc, #264]	; (1eb4 <hflashstoreemulation_gefunden+0x2a>)
    1daa:	2160      	movs	r1, #96	; 0x60
    1dac:	8802      	ldrh	r2, [r0, #0]
    1dae:	2a00      	cmp	r2, #0
    1db0:	d012      	beq.n	1dd8 <sammeltabelleleerprobe+0x30>
    1db2:	f000 fcc3 	bl	273c <dotgaensefuesschen>
    1db6:	706e551d 	rsbvc	r5, lr, sp, lsl r5
    1dba:	65726961 	ldrbvs	r6, [r2, #-2401]!	; 0x961
    1dbe:	36312064 	ldrtcc	r2, [r1], -r4, rrx
    1dc2:	7469622d 	strbtvc	r6, [r9], #-557	; 0x22d
    1dc6:	616c4620 	cmnvs	ip, r0, lsr #12
    1dca:	77206873 			; <UNDEFINED> instruction: 0x77206873
    1dce:	65746972 	ldrbvs	r6, [r4, #-2418]!	; 0x972
    1dd2:	f0020a2e 			; <UNDEFINED> instruction: 0xf0020a2e
    1dd6:	fb3c 3002 	smlawb	r0, ip, r2, r3
    1dda:	3901      	subs	r1, #1
    1ddc:	d1e6      	bne.n	1dac <sammeltabelleleerprobe+0x4>
    1dde:	4770      	bx	lr

00001de0 <Dictionary_445>:
    1de0:	00001eb8 			; <UNDEFINED> instruction: 0x00001eb8
    1de4:	68070000 	stmdavs	r7, {}	; <UNPREDICTABLE>
    1de8:	73616c66 	cmnvc	r1, #26112	; 0x6600
    1dec:	b5302168 	ldrlt	r2, [r0, #-360]!	; 0x168

00001dee <Code_445>:
    1dee:	b530      	push	{r4, r5, lr}
    1df0:	0032      	movs	r2, r6
    1df2:	cf40      	ldmia	r7!, {r6}
    1df4:	0850      	lsrs	r0, r2, #1
    1df6:	d313      	bcc.n	1e20 <Code_445+0x32>
    1df8:	f000 fca0 	bl	273c <dotgaensefuesschen>
    1dfc:	6c66681e 	stclvs	8, cr6, [r6], #-120	; 0xffffff88
    1e00:	21687361 	cmncs	r8, r1, ror #6
    1e04:	65656e20 	strbvs	r6, [r5, #-3616]!	; 0xe20
    1e08:	65207364 	strvs	r7, [r0, #-868]!	; 0x364
    1e0c:	206e6576 	rsbcs	r6, lr, r6, ror r5
    1e10:	72646461 	rsbvc	r6, r4, #1627389952	; 0x61000000
    1e14:	65737365 	ldrbvs	r7, [r3, #-869]!	; 0x365
    1e18:	000a2e73 	andeq	r2, sl, r3, ror lr
    1e1c:	f002 fb18 	bl	4450 <Code_1191>
    1e20:	2302      	movs	r3, #2
    1e22:	4053      	eors	r3, r2
    1e24:	4823      	ldr	r0, [pc, #140]	; (1eb4 <hflashstoreemulation_gefunden+0x2a>)
    1e26:	2120      	movs	r1, #32
    1e28:	8804      	ldrh	r4, [r0, #0]
    1e2a:	8845      	ldrh	r5, [r0, #2]
    1e2c:	042d      	lsls	r5, r5, #16
    1e2e:	432c      	orrs	r4, r5
    1e30:	429c      	cmp	r4, r3
    1e32:	d02a      	beq.n	1e8a <hflashstoreemulation_gefunden>
    1e34:	3006      	adds	r0, #6
    1e36:	3901      	subs	r1, #1
    1e38:	d1f6      	bne.n	1e28 <Code_445+0x3a>
    1e3a:	481e      	ldr	r0, [pc, #120]	; (1eb4 <hflashstoreemulation_gefunden+0x2a>)
    1e3c:	2120      	movs	r1, #32
    1e3e:	8804      	ldrh	r4, [r0, #0]
    1e40:	8845      	ldrh	r5, [r0, #2]
    1e42:	042d      	lsls	r5, r5, #16
    1e44:	432c      	orrs	r4, r5
    1e46:	d01a      	beq.n	1e7e <hflashstoreemulation_leerestelle>
    1e48:	3006      	adds	r0, #6
    1e4a:	3901      	subs	r1, #1
    1e4c:	d1f7      	bne.n	1e3e <Code_445+0x50>
    1e4e:	f000 fc75 	bl	273c <dotgaensefuesschen>
    1e52:	6f6f5427 	svcvs	0x006f5427
    1e56:	6e616d20 	cdpvs	13, 6, cr6, cr1, cr0, {1}
    1e5a:	6e752079 	mrcvs	0, 3, r2, cr5, cr9, {3}
    1e5e:	72696170 	rsbvc	r6, r9, #28
    1e62:	31206465 	teqcc	r0, r5, ror #8
    1e66:	69622d36 	stmdbvs	r2!, {r1, r2, r4, r5, r8, sl, fp, sp}^
    1e6a:	6c462074 	mcrrvs	0, 7, r2, r6, cr4
    1e6e:	20687361 	rsbcs	r7, r8, r1, ror #6
    1e72:	74697277 	strbtvc	r7, [r9], #-631	; 0x277
    1e76:	0a2e7365 	beq	b9ec12 <BIT23+0x39ec12>
    1e7a:	f002 fae9 	bl	4450 <Code_1191>

00001e7e <hflashstoreemulation_leerestelle>:
    1e7e:	8002      	strh	r2, [r0, #0]
    1e80:	0c12      	lsrs	r2, r2, #16
    1e82:	8042      	strh	r2, [r0, #2]
    1e84:	8086      	strh	r6, [r0, #4]
    1e86:	cf40      	ldmia	r7!, {r6}
    1e88:	bd30      	pop	{r4, r5, pc}

00001e8a <hflashstoreemulation_gefunden>:
    1e8a:	2102      	movs	r1, #2
    1e8c:	4011      	ands	r1, r2
    1e8e:	d003      	beq.n	1e98 <hflashstoreemulation_gefunden+0xe>
    1e90:	3a02      	subs	r2, #2
    1e92:	8881      	ldrh	r1, [r0, #4]
    1e94:	0436      	lsls	r6, r6, #16
    1e96:	e001      	b.n	1e9c <hflashstoreemulation_gefunden+0x12>
    1e98:	8881      	ldrh	r1, [r0, #4]
    1e9a:	0409      	lsls	r1, r1, #16
    1e9c:	430e      	orrs	r6, r1
    1e9e:	3f04      	subs	r7, #4
    1ea0:	603e      	str	r6, [r7, #0]
    1ea2:	0016      	movs	r6, r2
    1ea4:	2100      	movs	r1, #0
    1ea6:	8001      	strh	r1, [r0, #0]
    1ea8:	8041      	strh	r1, [r0, #2]
    1eaa:	8081      	strh	r1, [r0, #4]
    1eac:	f7ff fe4b 	bl	1b46 <Code_425>
    1eb0:	bd30      	pop	{r4, r5, pc}
    1eb2:	f3580000 	vhadd.u16	d16, d8, d0
    1eb6:	1ee41fff 	mcrne	15, 7, r1, cr4, cr15, {7}

00001eb8 <Dictionary_452>:
    1eb8:	00001ee4 	andeq	r1, r0, r4, ror #29
    1ebc:	2b010262 	blcs	4284c <BIT18+0x284c>

00001ec0 <Code_452>:
    1ec0:	cf01      	ldmia	r7!, {r0}
    1ec2:	1836      	adds	r6, r6, r0
    1ec4:	4770      	bx	lr

00001ec6 <plus_allocator>:
    1ec6:	b500      	push	{lr}
    1ec8:	f7fe fb8d 	bl	5e6 <expect_two_elements>
    1ecc:	3f04      	subs	r7, #4
    1ece:	603e      	str	r6, [r7, #0]
    1ed0:	4ed1      	ldr	r6, [pc, #836]	; (2218 <Code_531+0xa>)
    1ed2:	3f04      	subs	r7, #4
    1ed4:	603e      	str	r6, [r7, #0]
    1ed6:	4ed1      	ldr	r6, [pc, #836]	; (221c <Code_531+0xe>)
    1ed8:	6981      	ldr	r1, [r0, #24]
    1eda:	2928      	cmp	r1, #40	; 0x28
    1edc:	d112      	bne.n	1f04 <Code_457+0x18>
    1ede:	f7ff f89f 	bl	1020 <swap_allocator>
    1ee2:	e00f      	b.n	1f04 <Code_457+0x18>

00001ee4 <Dictionary_457>:
    1ee4:	00001f60 	andeq	r1, r0, r0, ror #30
    1ee8:	2d010262 	sfmcs	f0, 4, [r1, #-392]	; 0xfffffe78

00001eec <Code_457>:
    1eec:	cf01      	ldmia	r7!, {r0}
    1eee:	1b86      	subs	r6, r0, r6
    1ef0:	4770      	bx	lr
    1ef2:	b500      	push	{lr}
    1ef4:	f7fe fb77 	bl	5e6 <expect_two_elements>
    1ef8:	3f04      	subs	r7, #4
    1efa:	603e      	str	r6, [r7, #0]
    1efc:	4ec8      	ldr	r6, [pc, #800]	; (2220 <Code_531+0x12>)
    1efe:	3f04      	subs	r7, #4
    1f00:	603e      	str	r6, [r7, #0]
    1f02:	4ec8      	ldr	r6, [pc, #800]	; (2224 <Code_531+0x16>)
    1f04:	6901      	ldr	r1, [r0, #16]
    1f06:	2928      	cmp	r1, #40	; 0x28
    1f08:	d10e      	bne.n	1f28 <Code_457+0x3c>
    1f0a:	6941      	ldr	r1, [r0, #20]
    1f0c:	29ff      	cmp	r1, #255	; 0xff
    1f0e:	d80b      	bhi.n	1f28 <Code_457+0x3c>
    1f10:	cf40      	ldmia	r7!, {r6}
    1f12:	f7fe fbb5 	bl	680 <nos_change_tos_away_later>
    1f16:	430e      	orrs	r6, r1
    1f18:	6981      	ldr	r1, [r0, #24]
    1f1a:	0209      	lsls	r1, r1, #8
    1f1c:	430e      	orrs	r6, r1
    1f1e:	f001 f8f6 	bl	310e <Code_816>
    1f22:	f7fe fb9d 	bl	660 <eliminiere_tos>
    1f26:	bd00      	pop	{pc}
    1f28:	3704      	adds	r7, #4
    1f2a:	f7fe fb7d 	bl	628 <expect_tos_in_register>
    1f2e:	6982      	ldr	r2, [r0, #24]
    1f30:	2a28      	cmp	r2, #40	; 0x28
    1f32:	d103      	bne.n	1f3c <Code_457+0x50>
    1f34:	69c3      	ldr	r3, [r0, #28]
    1f36:	f7fe faf2 	bl	51e <generiere_konstante>
    1f3a:	001a      	movs	r2, r3
    1f3c:	0189      	lsls	r1, r1, #6
    1f3e:	00d2      	lsls	r2, r2, #3
    1f40:	430e      	orrs	r6, r1
    1f42:	4316      	orrs	r6, r2
    1f44:	f7fe fb8c 	bl	660 <eliminiere_tos>
    1f48:	f7fe fb8a 	bl	660 <eliminiere_tos>
    1f4c:	f7fe faba 	bl	4c4 <befreie_tos>
    1f50:	f7fe fb1c 	bl	58c <get_free_register>
    1f54:	6103      	str	r3, [r0, #16]
    1f56:	431e      	orrs	r6, r3
    1f58:	f001 f8d9 	bl	310e <Code_816>
    1f5c:	bd00      	pop	{pc}
    1f5e:	46c0      	nop			; (mov r8, r8)

00001f60 <Dictionary_464>:
    1f60:	00001f8c 	andeq	r1, r0, ip, lsl #31
    1f64:	31020261 	tstcc	r2, r1, ror #4
    1f68:	3e01002d 	cdpcc	0, 0, cr0, cr1, cr13, {1}

00001f6a <Code_464>:
    1f6a:	3e01      	subs	r6, #1
    1f6c:	4770      	bx	lr

00001f6e <allocator_one_minus>:
    1f6e:	3f04      	subs	r7, #4
    1f70:	603e      	str	r6, [r7, #0]
    1f72:	4ead      	ldr	r6, [pc, #692]	; (2228 <Code_531+0x1a>)

00001f74 <smallplusminus>:
    1f74:	b500      	push	{lr}
    1f76:	f7fe fb2d 	bl	5d4 <expect_one_element>
    1f7a:	f7fe fb92 	bl	6a2 <make_tos_changeable>
    1f7e:	6901      	ldr	r1, [r0, #16]
    1f80:	0209      	lsls	r1, r1, #8
    1f82:	430e      	orrs	r6, r1
    1f84:	f001 f8c3 	bl	310e <Code_816>
    1f88:	bd00      	pop	{pc}
    1f8a:	46c0      	nop			; (mov r8, r8)

00001f8c <Dictionary_467>:
    1f8c:	00001fa4 	andeq	r1, r0, r4, lsr #31
    1f90:	63050261 	movwvs	r0, #21089	; 0x5261
    1f94:	2b6c6c65 	blcs	1b1d130 <BIT24+0xb1d130>

00001f98 <Code_467>:
    1f98:	3604      	adds	r6, #4
    1f9a:	4770      	bx	lr
    1f9c:	3f04      	subs	r7, #4
    1f9e:	603e      	str	r6, [r7, #0]
    1fa0:	4ea2      	ldr	r6, [pc, #648]	; (222c <Code_531+0x1e>)
    1fa2:	e7e7      	b.n	1f74 <smallplusminus>

00001fa4 <Dictionary_470>:
    1fa4:	00001fbc 			; <UNDEFINED> instruction: 0x00001fbc
    1fa8:	31020261 	tstcc	r2, r1, ror #4
    1fac:	3601002b 	strcc	r0, [r1], -fp, lsr #32

00001fae <Code_470>:
    1fae:	3601      	adds	r6, #1
    1fb0:	4770      	bx	lr
    1fb2:	3f04      	subs	r7, #4
    1fb4:	603e      	str	r6, [r7, #0]
    1fb6:	4e9e      	ldr	r6, [pc, #632]	; (2230 <Code_531+0x22>)
    1fb8:	e7dc      	b.n	1f74 <smallplusminus>
    1fba:	46c0      	nop			; (mov r8, r8)

00001fbc <Dictionary_473>:
    1fbc:	00001fd4 	ldrdeq	r1, [r0], -r4
    1fc0:	32020261 	andcc	r0, r2, #268435462	; 0x10000006
    1fc4:	3e02002d 	cdpcc	0, 0, cr0, cr2, cr13, {1}

00001fc6 <Code_473>:
    1fc6:	3e02      	subs	r6, #2
    1fc8:	4770      	bx	lr
    1fca:	3f04      	subs	r7, #4
    1fcc:	603e      	str	r6, [r7, #0]
    1fce:	4e99      	ldr	r6, [pc, #612]	; (2234 <Code_531+0x26>)
    1fd0:	e7d0      	b.n	1f74 <smallplusminus>
    1fd2:	46c0      	nop			; (mov r8, r8)

00001fd4 <Dictionary_476>:
    1fd4:	00001fec 	andeq	r1, r0, ip, ror #31
    1fd8:	32020261 	andcc	r0, r2, #268435462	; 0x10000006
    1fdc:	3602002b 	strcc	r0, [r2], -fp, lsr #32

00001fde <Code_476>:
    1fde:	3602      	adds	r6, #2
    1fe0:	4770      	bx	lr
    1fe2:	3f04      	subs	r7, #4
    1fe4:	603e      	str	r6, [r7, #0]
    1fe6:	4e94      	ldr	r6, [pc, #592]	; (2238 <Code_531+0x2a>)
    1fe8:	e7c4      	b.n	1f74 <smallplusminus>
    1fea:	46c0      	nop			; (mov r8, r8)

00001fec <Dictionary_479>:
    1fec:	0000201c 	andeq	r2, r0, ip, lsl r0
    1ff0:	6e060061 	cdpvs	0, 0, cr0, cr6, cr1, {3}
    1ff4:	74616765 	strbtvc	r6, [r1], #-1893	; 0x765
    1ff8:	42760065 	rsbsmi	r0, r6, #101	; 0x65

00001ffa <Code_479>:
    1ffa:	4276      	negs	r6, r6
    1ffc:	4770      	bx	lr
    1ffe:	3f04      	subs	r7, #4
    2000:	603e      	str	r6, [r7, #0]
    2002:	4e8e      	ldr	r6, [pc, #568]	; (223c <Code_531+0x2e>)

00002004 <smalltworegisters>:
    2004:	b500      	push	{lr}
    2006:	f7fe fae5 	bl	5d4 <expect_one_element>
    200a:	f7fe fb4a 	bl	6a2 <make_tos_changeable>
    200e:	6901      	ldr	r1, [r0, #16]
    2010:	430e      	orrs	r6, r1
    2012:	00c9      	lsls	r1, r1, #3
    2014:	430e      	orrs	r6, r1
    2016:	f001 f87a 	bl	310e <Code_816>
    201a:	bd00      	pop	{pc}

0000201c <Dictionary_482>:
    201c:	00002034 	andeq	r2, r0, r4, lsr r0
    2020:	6e030261 	cdpvs	2, 0, cr0, cr3, cr1, {3}
    2024:	43f6746f 	mvnsmi	r7, #1862270976	; 0x6f000000

00002026 <Code_482>:
    2026:	43f6      	mvns	r6, r6
    2028:	4770      	bx	lr

0000202a <allocator_not>:
    202a:	3f04      	subs	r7, #4
    202c:	603e      	str	r6, [r7, #0]
    202e:	4e84      	ldr	r6, [pc, #528]	; (2240 <Code_531+0x32>)
    2030:	e7e8      	b.n	2004 <smalltworegisters>
    2032:	46c0      	nop			; (mov r8, r8)

00002034 <Dictionary_485>:
    2034:	0000204c 	andeq	r2, r0, ip, asr #32
    2038:	73030261 	movwvc	r0, #12897	; 0x3261
    203c:	08767268 	ldmdaeq	r6!, {r3, r5, r6, r9, ip, sp, lr}^

0000203e <Code_485>:
    203e:	0876      	lsrs	r6, r6, #1
    2040:	4770      	bx	lr
    2042:	3f04      	subs	r7, #4
    2044:	603e      	str	r6, [r7, #0]
    2046:	4e7f      	ldr	r6, [pc, #508]	; (2244 <Code_531+0x36>)
    2048:	e7dc      	b.n	2004 <smalltworegisters>
    204a:	46c0      	nop			; (mov r8, r8)

0000204c <Dictionary_488>:
    204c:	0000205c 	andeq	r2, r0, ip, asr r0
    2050:	73030261 	movwvc	r0, #12897	; 0x3261
    2054:	00766c68 	rsbseq	r6, r6, r8, ror #24

00002056 <Code_488>:
    2056:	0076      	lsls	r6, r6, #1
    2058:	4770      	bx	lr
    205a:	e006      	b.n	206a <Code_489+0x4>

0000205c <Dictionary_489>:
    205c:	00002074 	andeq	r2, r0, r4, ror r0
    2060:	32020261 	andcc	r0, r2, #268435462	; 0x10000006
    2064:	0076002a 	rsbseq	r0, r6, sl, lsr #32

00002066 <Code_489>:
    2066:	0076      	lsls	r6, r6, #1
    2068:	4770      	bx	lr
    206a:	3f04      	subs	r7, #4
    206c:	603e      	str	r6, [r7, #0]
    206e:	2640      	movs	r6, #64	; 0x40
    2070:	e7c8      	b.n	2004 <smalltworegisters>
    2072:	46c0      	nop			; (mov r8, r8)

00002074 <Dictionary_492>:
    2074:	0000208c 	andeq	r2, r0, ip, lsl #1
    2078:	63050261 	movwvs	r0, #21089	; 0x5261
    207c:	736c6c65 	cmnvc	ip, #25856	; 0x6500

00002080 <Code_492>:
    2080:	00b6      	lsls	r6, r6, #2
    2082:	4770      	bx	lr
    2084:	3f04      	subs	r7, #4
    2086:	603e      	str	r6, [r7, #0]
    2088:	2680      	movs	r6, #128	; 0x80
    208a:	e7bb      	b.n	2004 <smalltworegisters>

0000208c <Dictionary_495>:
    208c:	000020a4 	andeq	r2, r0, r4, lsr #1
    2090:	32020261 	andcc	r0, r2, #268435462	; 0x10000006
    2094:	1076002f 	rsbsne	r0, r6, pc, lsr #32

00002096 <Code_495>:
    2096:	1076      	asrs	r6, r6, #1
    2098:	4770      	bx	lr
    209a:	3f04      	subs	r7, #4
    209c:	603e      	str	r6, [r7, #0]
    209e:	4e6a      	ldr	r6, [pc, #424]	; (2248 <Code_531+0x3a>)
    20a0:	e7b0      	b.n	2004 <smalltworegisters>
    20a2:	46c0      	nop			; (mov r8, r8)

000020a4 <Dictionary_498>:
    20a4:	000020b8 	strheq	r2, [r0], -r8
    20a8:	61030061 	tstvs	r3, r1, rrx
    20ac:	17f07362 	ldrbne	r7, [r0, r2, ror #6]!

000020ae <Code_498>:
    20ae:	17f0      	asrs	r0, r6, #31
    20b0:	1836      	adds	r6, r6, r0
    20b2:	4046      	eors	r6, r0
    20b4:	4770      	bx	lr
    20b6:	46c0      	nop			; (mov r8, r8)

000020b8 <Dictionary_499>:
    20b8:	00002100 	andeq	r2, r0, r0, lsl #2
    20bc:	75050042 	strvc	r0, [r5, #-66]	; 0x42
    20c0:	646f6d2f 	strbtvs	r6, [pc], #-3375	; 20c8 <Code_499+0x4>

000020c4 <Code_499>:
    20c4:	0031      	movs	r1, r6
    20c6:	cf40      	ldmia	r7!, {r6}
    20c8:	2900      	cmp	r1, #0
    20ca:	d103      	bne.n	20d4 <Code_499+0x10>
    20cc:	3f04      	subs	r7, #4
    20ce:	603e      	str	r6, [r7, #0]
    20d0:	2600      	movs	r6, #0
    20d2:	4770      	bx	lr
    20d4:	2201      	movs	r2, #1
    20d6:	2300      	movs	r3, #0
    20d8:	428e      	cmp	r6, r1
    20da:	d906      	bls.n	20ea <Code_499+0x26>
    20dc:	3100      	adds	r1, #0
    20de:	d404      	bmi.n	20ea <Code_499+0x26>
    20e0:	0052      	lsls	r2, r2, #1
    20e2:	0049      	lsls	r1, r1, #1
    20e4:	d401      	bmi.n	20ea <Code_499+0x26>
    20e6:	428e      	cmp	r6, r1
    20e8:	d8fa      	bhi.n	20e0 <Code_499+0x1c>
    20ea:	428e      	cmp	r6, r1
    20ec:	d301      	bcc.n	20f2 <Code_499+0x2e>
    20ee:	1a76      	subs	r6, r6, r1
    20f0:	4313      	orrs	r3, r2
    20f2:	0849      	lsrs	r1, r1, #1
    20f4:	0852      	lsrs	r2, r2, #1
    20f6:	d1f8      	bne.n	20ea <Code_499+0x26>
    20f8:	3f04      	subs	r7, #4
    20fa:	603e      	str	r6, [r7, #0]
    20fc:	001e      	movs	r6, r3
    20fe:	4770      	bx	lr

00002100 <Dictionary_505>:
    2100:	00002170 	andeq	r2, r0, r0, ror r1
    2104:	2f040042 	svccs	0x00040042
    2108:	00646f6d 	rsbeq	r6, r4, sp, ror #30

0000210c <Code_505>:
    210c:	b500      	push	{lr}
    210e:	0030      	movs	r0, r6
    2110:	cf40      	ldmia	r7!, {r6}
    2112:	2e00      	cmp	r6, #0
    2114:	da1c      	bge.n	2150 <divmod_plus>
    2116:	4276      	negs	r6, r6

00002118 <divmod_minus>:
    2118:	2800      	cmp	r0, #0
    211a:	da0c      	bge.n	2136 <divmod_minus_plus>

0000211c <divmod_minus_minus>:
    211c:	4240      	negs	r0, r0
    211e:	3f04      	subs	r7, #4
    2120:	603e      	str	r6, [r7, #0]
    2122:	0006      	movs	r6, r0
    2124:	f7ff ffce 	bl	20c4 <Code_499>
    2128:	0030      	movs	r0, r6
    212a:	cf40      	ldmia	r7!, {r6}
    212c:	4276      	negs	r6, r6
    212e:	3f04      	subs	r7, #4
    2130:	603e      	str	r6, [r7, #0]
    2132:	0006      	movs	r6, r0
    2134:	bd00      	pop	{pc}

00002136 <divmod_minus_plus>:
    2136:	3f04      	subs	r7, #4
    2138:	603e      	str	r6, [r7, #0]
    213a:	0006      	movs	r6, r0
    213c:	f7ff ffc2 	bl	20c4 <Code_499>
    2140:	0030      	movs	r0, r6
    2142:	cf40      	ldmia	r7!, {r6}
    2144:	4240      	negs	r0, r0
    2146:	4276      	negs	r6, r6
    2148:	3f04      	subs	r7, #4
    214a:	603e      	str	r6, [r7, #0]
    214c:	0006      	movs	r6, r0
    214e:	bd00      	pop	{pc}

00002150 <divmod_plus>:
    2150:	2800      	cmp	r0, #0
    2152:	da07      	bge.n	2164 <divmod_plus_plus>

00002154 <divmod_plus_minus>:
    2154:	4240      	negs	r0, r0
    2156:	3f04      	subs	r7, #4
    2158:	603e      	str	r6, [r7, #0]
    215a:	0006      	movs	r6, r0
    215c:	f7ff ffb2 	bl	20c4 <Code_499>
    2160:	4276      	negs	r6, r6
    2162:	bd00      	pop	{pc}

00002164 <divmod_plus_plus>:
    2164:	3f04      	subs	r7, #4
    2166:	603e      	str	r6, [r7, #0]
    2168:	0006      	movs	r6, r0
    216a:	f7ff ffab 	bl	20c4 <Code_499>
    216e:	bd00      	pop	{pc}

00002170 <Dictionary_521>:
    2170:	00002184 	andeq	r2, r0, r4, lsl #3
    2174:	6d030042 	stcvs	0, cr0, [r3, #-264]	; 0xfffffef8
    2178:	b500646f 	strlt	r6, [r0, #-1135]	; 0x46f

0000217a <Code_521>:
    217a:	b500      	push	{lr}
    217c:	f7ff ffc6 	bl	210c <Code_505>
    2180:	cf40      	ldmia	r7!, {r6}
    2182:	bd00      	pop	{pc}

00002184 <Dictionary_523>:
    2184:	00002198 	muleq	r0, r8, r1
    2188:	2f010042 	svccs	0x00010042

0000218c <Code_523>:
    218c:	b500      	push	{lr}
    218e:	f7ff ffbd 	bl	210c <Code_505>
    2192:	3704      	adds	r7, #4
    2194:	bd00      	pop	{pc}
    2196:	46c0      	nop			; (mov r8, r8)

00002198 <Dictionary_524>:
    2198:	000021a8 	andeq	r2, r0, r8, lsr #3
    219c:	2a013220 	bcs	4ea24 <BIT18+0xea24>

000021a0 <Code_524>:
    21a0:	cf01      	ldmia	r7!, {r0}
    21a2:	4346      	muls	r6, r0
    21a4:	4770      	bx	lr
    21a6:	4340      	muls	r0, r0

000021a8 <Dictionary_525>:
    21a8:	000021bc 			; <UNDEFINED> instruction: 0x000021bc
    21ac:	65040061 	strvs	r0, [r4, #-97]	; 0x61
    21b0:	006e6576 	rsbeq	r6, lr, r6, ror r5

000021b4 <Code_525>:
    21b4:	2001      	movs	r0, #1
    21b6:	4030      	ands	r0, r6
    21b8:	1836      	adds	r6, r6, r0
    21ba:	4770      	bx	lr

000021bc <Dictionary_526>:
    21bc:	000021d4 	ldrdeq	r2, [r0], -r4
    21c0:	62040081 	andvs	r0, r4, #129	; 0x81
    21c4:	00657361 	rsbeq	r7, r5, r1, ror #6

000021c8 <Code_526>:
    21c8:	3f04      	subs	r7, #4
    21ca:	603e      	str	r6, [r7, #0]
    21cc:	4e1f      	ldr	r6, [pc, #124]	; (224c <Code_531+0x3e>)
    21ce:	4770      	bx	lr
    21d0:	0000000a 	andeq	r0, r0, sl

000021d4 <Dictionary_529>:
    21d4:	000021ec 	andeq	r2, r0, ip, ror #3
    21d8:	62060000 	andvs	r0, r6, #0
    21dc:	72616e69 	rsbvc	r6, r1, #1680	; 0x690
    21e0:	481a0079 	ldmdami	sl, {r0, r3, r4, r5, r6}

000021e2 <Code_529>:
    21e2:	481a      	ldr	r0, [pc, #104]	; (224c <Code_531+0x3e>)
    21e4:	2102      	movs	r1, #2
    21e6:	6001      	str	r1, [r0, #0]
    21e8:	4770      	bx	lr
    21ea:	46c0      	nop			; (mov r8, r8)

000021ec <Dictionary_530>:
    21ec:	00002204 	andeq	r2, r0, r4, lsl #4
    21f0:	64070000 	strvs	r0, [r7], #-0
    21f4:	6d696365 	stclvs	3, cr6, [r9, #-404]!	; 0xfffffe6c
    21f8:	48146c61 	ldmdami	r4, {r0, r5, r6, sl, fp, sp, lr}

000021fa <Code_530>:
    21fa:	4814      	ldr	r0, [pc, #80]	; (224c <Code_531+0x3e>)
    21fc:	210a      	movs	r1, #10
    21fe:	6001      	str	r1, [r0, #0]
    2200:	4770      	bx	lr
    2202:	46c0      	nop			; (mov r8, r8)

00002204 <Dictionary_531>:
    2204:	00002298 	muleq	r0, r8, r2
    2208:	68030000 	stmdavs	r3, {}	; <UNPREDICTABLE>
    220c:	480f7865 	stmdami	pc, {r0, r2, r5, r6, fp, ip, sp, lr}	; <UNPREDICTABLE>

0000220e <Code_531>:
    220e:	480f      	ldr	r0, [pc, #60]	; (224c <Code_531+0x3e>)
    2210:	2110      	movs	r1, #16
    2212:	6001      	str	r1, [r0, #0]
    2214:	4770      	bx	lr
    2216:	30000000 	andcc	r0, r0, r0
    221a:	18000000 	stmdane	r0, {}	; <UNPREDICTABLE>
    221e:	38000000 	stmdacc	r0, {}	; <UNPREDICTABLE>
    2222:	1a000000 	bne	222a <Code_531+0x1c>
    2226:	38010000 	stmdacc	r1, {}	; <UNPREDICTABLE>
    222a:	30040000 	andcc	r0, r4, r0
    222e:	30010000 	andcc	r0, r1, r0
    2232:	38020000 	stmdacc	r2, {}	; <UNPREDICTABLE>
    2236:	30020000 	andcc	r0, r2, r0
    223a:	42400000 	submi	r0, r0, #0
    223e:	43c00000 	bicmi	r0, r0, #0
    2242:	08400000 	stmdaeq	r0, {}^	; <UNPREDICTABLE>
    2246:	10400000 	subne	r0, r0, r0
    224a:	2ffc0000 	svccs	0x00fc0000
    224e:	49802000 	stmibmi	r0, {sp}

00002250 <uart_init>:
    2250:	4980      	ldr	r1, [pc, #512]	; (2454 <Code_561+0x22>)
    2252:	4881      	ldr	r0, [pc, #516]	; (2458 <Code_561+0x26>)
    2254:	6001      	str	r1, [r0, #0]
    2256:	4981      	ldr	r1, [pc, #516]	; (245c <Code_561+0x2a>)
    2258:	4881      	ldr	r0, [pc, #516]	; (2460 <Code_561+0x2e>)
    225a:	6001      	str	r1, [r0, #0]
    225c:	4981      	ldr	r1, [pc, #516]	; (2464 <Code_561+0x32>)
    225e:	4882      	ldr	r0, [pc, #520]	; (2468 <Code_561+0x36>)
    2260:	6001      	str	r1, [r0, #0]
    2262:	4982      	ldr	r1, [pc, #520]	; (246c <Code_561+0x3a>)
    2264:	4882      	ldr	r0, [pc, #520]	; (2470 <Code_561+0x3e>)
    2266:	6001      	str	r1, [r0, #0]
    2268:	4882      	ldr	r0, [pc, #520]	; (2474 <Code_561+0x42>)
    226a:	6001      	str	r1, [r0, #0]
    226c:	2100      	movs	r1, #0
    226e:	4882      	ldr	r0, [pc, #520]	; (2478 <Code_561+0x46>)
    2270:	7001      	strb	r1, [r0, #0]
    2272:	4882      	ldr	r0, [pc, #520]	; (247c <Code_561+0x4a>)
    2274:	7001      	strb	r1, [r0, #0]
    2276:	4882      	ldr	r0, [pc, #520]	; (2480 <Code_561+0x4e>)
    2278:	7001      	strb	r1, [r0, #0]
    227a:	4882      	ldr	r0, [pc, #520]	; (2484 <Code_561+0x52>)
    227c:	7001      	strb	r1, [r0, #0]
    227e:	2106      	movs	r1, #6
    2280:	4881      	ldr	r0, [pc, #516]	; (2488 <Code_561+0x56>)
    2282:	7001      	strb	r1, [r0, #0]
    2284:	2100      	movs	r1, #0
    2286:	4881      	ldr	r0, [pc, #516]	; (248c <Code_561+0x5a>)
    2288:	7001      	strb	r1, [r0, #0]
    228a:	211a      	movs	r1, #26
    228c:	4880      	ldr	r0, [pc, #512]	; (2490 <Code_561+0x5e>)
    228e:	7001      	strb	r1, [r0, #0]
    2290:	210c      	movs	r1, #12
    2292:	4879      	ldr	r0, [pc, #484]	; (2478 <Code_561+0x46>)
    2294:	7001      	strb	r1, [r0, #0]
    2296:	4770      	bx	lr

00002298 <Dictionary_532>:
    2298:	000022b4 			; <UNDEFINED> instruction: 0x000022b4
    229c:	68090081 	stmdavs	r9, {r0, r7}
    22a0:	2d6b6f6f 	stclcs	15, cr6, [fp, #-444]!	; 0xfffffe44
    22a4:	74696d65 	strbtvc	r6, [r9], #-3429	; 0xd65

000022a8 <Code_532>:
    22a8:	3f04      	subs	r7, #4
    22aa:	603e      	str	r6, [r7, #0]
    22ac:	4e79      	ldr	r6, [pc, #484]	; (2494 <Code_561+0x62>)
    22ae:	4770      	bx	lr
    22b0:	000023aa 	andeq	r2, r0, sl, lsr #7

000022b4 <Dictionary_535>:
    22b4:	000022d0 	ldrdeq	r2, [r0], -r0
    22b8:	68080081 	stmdavs	r8, {r0, r7}
    22bc:	2d6b6f6f 	stclcs	15, cr6, [fp, #-444]!	; 0xfffffe44
    22c0:	0079656b 	rsbseq	r6, r9, fp, ror #10

000022c4 <Code_535>:
    22c4:	3f04      	subs	r7, #4
    22c6:	603e      	str	r6, [r7, #0]
    22c8:	4e73      	ldr	r6, [pc, #460]	; (2498 <Code_561+0x66>)
    22ca:	4770      	bx	lr
    22cc:	000023d2 	ldrdeq	r2, [r0], -r2	; <UNPREDICTABLE>

000022d0 <Dictionary_538>:
    22d0:	000022f0 	strdeq	r2, [r0], -r0
    22d4:	680a0081 	stmdavs	sl, {r0, r7}
    22d8:	2d6b6f6f 	stclcs	15, cr6, [fp, #-444]!	; 0xfffffe44
    22dc:	74696d65 	strbtvc	r6, [r9], #-3429	; 0xd65
    22e0:	3f04003f 	svccc	0x0004003f

000022e2 <Code_538>:
    22e2:	3f04      	subs	r7, #4
    22e4:	603e      	str	r6, [r7, #0]
    22e6:	4e6d      	ldr	r6, [pc, #436]	; (249c <Code_561+0x6a>)
    22e8:	4770      	bx	lr
    22ea:	00002400 	andeq	r2, r0, r0, lsl #8
    22ee:	230c46c0 	movwcs	r4, #50880	; 0xc6c0

000022f0 <Dictionary_541>:
    22f0:	0000230c 	andeq	r2, r0, ip, lsl #6
    22f4:	68090081 	stmdavs	r9, {r0, r7}
    22f8:	2d6b6f6f 	stclcs	15, cr6, [fp, #-444]!	; 0xfffffe44
    22fc:	3f79656b 	svccc	0x0079656b

00002300 <Code_541>:
    2300:	3f04      	subs	r7, #4
    2302:	603e      	str	r6, [r7, #0]
    2304:	4e66      	ldr	r6, [pc, #408]	; (24a0 <Code_561+0x6e>)
    2306:	4770      	bx	lr
    2308:	00002432 	andeq	r2, r0, r2, lsr r4

0000230c <Dictionary_544>:
    230c:	0000232c 	andeq	r2, r0, ip, lsr #6
    2310:	680a0081 	stmdavs	sl, {r0, r7}
    2314:	2d6b6f6f 	stclcs	15, cr6, [fp, #-444]!	; 0xfffffe44
    2318:	73756170 	cmnvc	r5, #28
    231c:	3f040065 	svccc	0x00040065

0000231e <Code_544>:
    231e:	3f04      	subs	r7, #4
    2320:	603e      	str	r6, [r7, #0]
    2322:	4e60      	ldr	r6, [pc, #384]	; (24a4 <Code_561+0x72>)
    2324:	4770      	bx	lr
    2326:	0000451e 	andeq	r4, r0, lr, lsl r5
    232a:	234446c0 	movtcs	r4, #18112	; 0x46c0

0000232c <Dictionary_547>:
    232c:	00002344 	andeq	r2, r0, r4, asr #6
    2330:	65040000 	strvs	r0, [r4, #-0]
    2334:	0074696d 	rsbseq	r6, r4, sp, ror #18

00002338 <Code_547>:
    2338:	b50f      	push	{r0, r1, r2, r3, lr}
    233a:	4856      	ldr	r0, [pc, #344]	; (2494 <Code_561+0x62>)
    233c:	f000 f829 	bl	2392 <hook_intern>
    2340:	bd0f      	pop	{r0, r1, r2, r3, pc}
    2342:	46c0      	nop			; (mov r8, r8)

00002344 <Dictionary_548>:
    2344:	00002358 	andeq	r2, r0, r8, asr r3
    2348:	6b030000 	blvs	c2350 <BIT19+0x42350>
    234c:	b50f7965 	strlt	r7, [pc, #-2405]	; 19ef <Dictionary_384+0x3>

0000234e <Code_548>:
    234e:	b50f      	push	{r0, r1, r2, r3, lr}
    2350:	4851      	ldr	r0, [pc, #324]	; (2498 <Code_561+0x66>)
    2352:	f000 f81e 	bl	2392 <hook_intern>
    2356:	bd0f      	pop	{r0, r1, r2, r3, pc}

00002358 <Dictionary_549>:
    2358:	0000236c 	andeq	r2, r0, ip, ror #6
    235c:	65050000 	strvs	r0, [r5, #-0]
    2360:	3f74696d 	svccc	0x0074696d

00002364 <Code_549>:
    2364:	484d      	ldr	r0, [pc, #308]	; (249c <Code_561+0x6a>)
    2366:	6800      	ldr	r0, [r0, #0]
    2368:	4687      	mov	pc, r0
    236a:	46c0      	nop			; (mov r8, r8)

0000236c <Dictionary_550>:
    236c:	00002380 	andeq	r2, r0, r0, lsl #7
    2370:	6b040000 	blvs	102378 <BIT20+0x2378>
    2374:	003f7965 	eorseq	r7, pc, r5, ror #18

00002378 <Code_550>:
    2378:	4849      	ldr	r0, [pc, #292]	; (24a0 <Code_561+0x6e>)
    237a:	6800      	ldr	r0, [r0, #0]
    237c:	4687      	mov	pc, r0
    237e:	46c0      	nop			; (mov r8, r8)

00002380 <Dictionary_551>:
    2380:	00002398 	muleq	r0, r8, r3
    2384:	70050000 	andvc	r0, r5, r0
    2388:	65737561 	ldrbvs	r7, [r3, #-1377]!	; 0x561

0000238c <Code_551>:
    238c:	4845      	ldr	r0, [pc, #276]	; (24a4 <Code_561+0x72>)
    238e:	6800      	ldr	r0, [r0, #0]
    2390:	4687      	mov	pc, r0

00002392 <hook_intern>:
    2392:	6800      	ldr	r0, [r0, #0]
    2394:	4687      	mov	pc, r0
    2396:	46c0      	nop			; (mov r8, r8)

00002398 <Dictionary_552>:
    2398:	000023c0 	andeq	r2, r0, r0, asr #7
    239c:	730b0000 	movwvc	r0, #45056	; 0xb000
    23a0:	61697265 	cmnvs	r9, r5, ror #4
    23a4:	6d652d6c 	stclvs	13, cr2, [r5, #-432]!	; 0xfffffe50
    23a8:	b5007469 	strlt	r7, [r0, #-1129]	; 0x469

000023aa <Code_552>:
    23aa:	b500      	push	{lr}
    23ac:	f000 f828 	bl	2400 <Code_558>
    23b0:	2e00      	cmp	r6, #0
    23b2:	cf40      	ldmia	r7!, {r6}
    23b4:	d0fa      	beq.n	23ac <Code_552+0x2>
    23b6:	483c      	ldr	r0, [pc, #240]	; (24a8 <Code_561+0x76>)
    23b8:	7006      	strb	r6, [r0, #0]
    23ba:	cf40      	ldmia	r7!, {r6}
    23bc:	bd00      	pop	{pc}
    23be:	46c0      	nop			; (mov r8, r8)

000023c0 <Dictionary_555>:
    23c0:	000023ec 	andeq	r2, r0, ip, ror #7
    23c4:	730a0000 	movwvc	r0, #40960	; 0xa000
    23c8:	61697265 	cmnvs	r9, r5, ror #4
    23cc:	656b2d6c 	strbvs	r2, [fp, #-3436]!	; 0xd6c
    23d0:	b5000079 	strlt	r0, [r0, #-121]	; 0x79

000023d2 <Code_555>:
    23d2:	b500      	push	{lr}
    23d4:	f000 f82d 	bl	2432 <Code_561>
    23d8:	2e00      	cmp	r6, #0
    23da:	cf40      	ldmia	r7!, {r6}
    23dc:	d0fa      	beq.n	23d4 <Code_555+0x2>
    23de:	4832      	ldr	r0, [pc, #200]	; (24a8 <Code_561+0x76>)
    23e0:	3f04      	subs	r7, #4
    23e2:	603e      	str	r6, [r7, #0]
    23e4:	7806      	ldrb	r6, [r0, #0]
    23e6:	b2f6      	uxtb	r6, r6
    23e8:	bd00      	pop	{pc}
    23ea:	46c0      	nop			; (mov r8, r8)

000023ec <Dictionary_558>:
    23ec:	00002420 	andeq	r2, r0, r0, lsr #8
    23f0:	730c0000 	movwvc	r0, #49152	; 0xc000
    23f4:	61697265 	cmnvs	r9, r5, ror #4
    23f8:	6d652d6c 	stclvs	13, cr2, [r5, #-432]!	; 0xfffffe50
    23fc:	003f7469 	eorseq	r7, pc, r9, ror #8

00002400 <Code_558>:
    2400:	b500      	push	{lr}
    2402:	f7ff ffc3 	bl	238c <Code_551>
    2406:	4829      	ldr	r0, [pc, #164]	; (24ac <Code_561+0x7a>)
    2408:	2108      	movs	r1, #8
    240a:	7001      	strb	r1, [r0, #0]
    240c:	3f04      	subs	r7, #4
    240e:	603e      	str	r6, [r7, #0]
    2410:	2600      	movs	r6, #0
    2412:	4826      	ldr	r0, [pc, #152]	; (24ac <Code_561+0x7a>)
    2414:	2280      	movs	r2, #128	; 0x80
    2416:	7801      	ldrb	r1, [r0, #0]
    2418:	4011      	ands	r1, r2
    241a:	d000      	beq.n	241e <Code_558+0x1e>
    241c:	43f6      	mvns	r6, r6
    241e:	bd00      	pop	{pc}

00002420 <Dictionary_561>:
    2420:	000024b0 			; <UNDEFINED> instruction: 0x000024b0
    2424:	730b0000 	movwvc	r0, #45056	; 0xb000
    2428:	61697265 	cmnvs	r9, r5, ror #4
    242c:	656b2d6c 	strbvs	r2, [fp, #-3436]!	; 0xd6c
    2430:	b5003f79 	strlt	r3, [r0, #-3961]	; 0xf79

00002432 <Code_561>:
    2432:	b500      	push	{lr}
    2434:	f7ff ffaa 	bl	238c <Code_551>
    2438:	481c      	ldr	r0, [pc, #112]	; (24ac <Code_561+0x7a>)
    243a:	2108      	movs	r1, #8
    243c:	7001      	strb	r1, [r0, #0]
    243e:	3f04      	subs	r7, #4
    2440:	603e      	str	r6, [r7, #0]
    2442:	2600      	movs	r6, #0
    2444:	4819      	ldr	r0, [pc, #100]	; (24ac <Code_561+0x7a>)
    2446:	2220      	movs	r2, #32
    2448:	7801      	ldrb	r1, [r0, #0]
    244a:	4011      	ands	r1, r2
    244c:	d000      	beq.n	2450 <Code_561+0x1e>
    244e:	43f6      	mvns	r6, r6
    2450:	bd00      	pop	{pc}
    2452:	3f800000 	svccc	0x00800000
    2456:	80380000 	eorshi	r0, r8, r0
    245a:	04304004 	ldrteq	r4, [r0], #-4
    245e:	8034f000 	eorshi	pc, r4, r0
    2462:	00004004 	andeq	r4, r0, r4
    2466:	80040400 	andhi	r0, r4, r0, lsl #8
    246a:	02004004 	andeq	r4, r0, #4
    246e:	90040000 	andls	r0, r4, r0
    2472:	90084004 	andls	r4, r8, r4
    2476:	a0034004 	andge	r4, r3, r4
    247a:	a0024006 	andge	r4, r2, r6
    247e:	a0064006 	andge	r4, r6, r6
    2482:	a0054006 	andge	r4, r5, r6
    2486:	a00a4006 	andge	r4, sl, r6
    248a:	a0004006 	andge	r4, r0, r6
    248e:	a0014006 	andge	r4, r1, r6
    2492:	2ff84006 	svccs	0x00f84006
    2496:	2ff42000 	svccs	0x00f42000
    249a:	2ff02000 	svccs	0x00f02000
    249e:	2fec2000 	svccs	0x00ec2000
    24a2:	2fe82000 	svccs	0x00e82000
    24a6:	a0072000 	andge	r2, r7, r0
    24aa:	a0044006 	andge	r4, r4, r6
    24ae:	24d44006 	ldrbcs	r4, [r4], #6

000024b0 <Dictionary_564>:
    24b0:	000024d4 	ldrdeq	r2, [r0], -r4
    24b4:	63070000 	movwvs	r0, #28672	; 0x7000
    24b8:	65707865 	ldrbvs	r7, [r0, #-2149]!	; 0x865
    24bc:	b5007463 	strlt	r7, [r0, #-1123]	; 0x463

000024be <Code_564>:
    24be:	b500      	push	{lr}
    24c0:	6838      	ldr	r0, [r7, #0]
    24c2:	b401      	push	{r0}
    24c4:	3001      	adds	r0, #1
    24c6:	6038      	str	r0, [r7, #0]
    24c8:	f000 f80b 	bl	24e2 <Code_566>
    24cc:	bc01      	pop	{r0}
    24ce:	7006      	strb	r6, [r0, #0]
    24d0:	cf40      	ldmia	r7!, {r6}
    24d2:	bd00      	pop	{pc}

000024d4 <Dictionary_566>:
    24d4:	0000254c 	andeq	r2, r0, ip, asr #10
    24d8:	61060000 	mrsvs	r0, (UNDEF: 6)
    24dc:	70656363 	rsbvc	r6, r5, r3, ror #6
    24e0:	b5000074 	strlt	r0, [r0, #-116]	; 0x74

000024e2 <Code_566>:
    24e2:	b500      	push	{lr}
    24e4:	cf02      	ldmia	r7!, {r1}
    24e6:	3901      	subs	r1, #1
    24e8:	2200      	movs	r2, #0
    24ea:	f7ff ff30 	bl	234e <Code_548>
    24ee:	0030      	movs	r0, r6
    24f0:	cf40      	ldmia	r7!, {r6}
    24f2:	287f      	cmp	r0, #127	; 0x7f
    24f4:	d009      	beq.n	250a <Code_566+0x28>
    24f6:	2820      	cmp	r0, #32
    24f8:	d219      	bcs.n	252e <Code_566+0x4c>
    24fa:	2809      	cmp	r0, #9
    24fc:	d016      	beq.n	252c <Code_566+0x4a>
    24fe:	280a      	cmp	r0, #10
    2500:	d01f      	beq.n	2542 <Code_566+0x60>
    2502:	280d      	cmp	r0, #13
    2504:	d01d      	beq.n	2542 <Code_566+0x60>
    2506:	2808      	cmp	r0, #8
    2508:	d1ef      	bne.n	24ea <Code_566+0x8>
    250a:	2a00      	cmp	r2, #0
    250c:	d0ed      	beq.n	24ea <Code_566+0x8>
    250e:	f000 f915 	bl	273c <dotgaensefuesschen>
    2512:	08200803 	stmdaeq	r0!, {r0, r1, fp}
    2516:	2a00      	cmp	r2, #0
    2518:	d0e7      	beq.n	24ea <Code_566+0x8>
    251a:	5c88      	ldrb	r0, [r1, r2]
    251c:	3a01      	subs	r2, #1
    251e:	2380      	movs	r3, #128	; 0x80
    2520:	4003      	ands	r3, r0
    2522:	d0e2      	beq.n	24ea <Code_566+0x8>
    2524:	2340      	movs	r3, #64	; 0x40
    2526:	4003      	ands	r3, r0
    2528:	d0f5      	beq.n	2516 <Code_566+0x34>
    252a:	e7de      	b.n	24ea <Code_566+0x8>
    252c:	2020      	movs	r0, #32
    252e:	42b2      	cmp	r2, r6
    2530:	d2db      	bcs.n	24ea <Code_566+0x8>
    2532:	3f04      	subs	r7, #4
    2534:	603e      	str	r6, [r7, #0]
    2536:	0006      	movs	r6, r0
    2538:	f7ff fefe 	bl	2338 <Code_547>
    253c:	3201      	adds	r2, #1
    253e:	5488      	strb	r0, [r1, r2]
    2540:	e7d3      	b.n	24ea <Code_566+0x8>
    2542:	0016      	movs	r6, r2
    2544:	f000 f8a8 	bl	2698 <Code_597>
    2548:	bd00      	pop	{pc}
    254a:	46c0      	nop			; (mov r8, r8)

0000254c <Dictionary_570>:
    254c:	00002560 	andeq	r2, r0, r0, ror #10
    2550:	74030040 	strvc	r0, [r3], #-64	; 0x40
    2554:	3f046269 	svccc	0x00046269

00002556 <Code_570>:
    2556:	3f04      	subs	r7, #4
    2558:	603e      	str	r6, [r7, #0]
    255a:	4e2b      	ldr	r6, [pc, #172]	; (2608 <Code_582+0x20>)
    255c:	4770      	bx	lr
    255e:	46c0      	nop			; (mov r8, r8)

00002560 <Dictionary_572>:
    2560:	00002578 	andeq	r2, r0, r8, ror r5
    2564:	3e030081 	cdpcc	0, 0, cr0, cr3, cr1, {4}
    2568:	3f046e69 	svccc	0x00046e69

0000256a <Code_572>:
    256a:	3f04      	subs	r7, #4
    256c:	603e      	str	r6, [r7, #0]
    256e:	4e27      	ldr	r6, [pc, #156]	; (260c <Code_582+0x24>)
    2570:	4770      	bx	lr
    2572:	00000000 	andeq	r0, r0, r0
    2576:	25a046c0 	strcs	r4, [r0, #1728]!	; 0x6c0

00002578 <Dictionary_575>:
    2578:	000025a0 	andeq	r2, r0, r0, lsr #11
    257c:	630e0082 	movwvs	r0, #57474	; 0xe082
    2580:	65727275 	ldrbvs	r7, [r2, #-629]!	; 0x275
    2584:	732d746e 	teqvc	sp, #1845493760	; 0x6e000000
    2588:	6372756f 	cmnvs	r2, #465567744	; 0x1bc00000
    258c:	3f040065 	svccc	0x00040065

0000258e <Code_575>:
    258e:	3f04      	subs	r7, #4
    2590:	603e      	str	r6, [r7, #0]
    2592:	4e1f      	ldr	r6, [pc, #124]	; (2610 <Code_582+0x28>)
    2594:	4770      	bx	lr
    2596:	00000000 	andeq	r0, r0, r0
    259a:	1ffff090 	svcne	0x00fff090
    259e:	25bc46c0 	ldrcs	r4, [ip, #1728]!	; 0x6c0

000025a0 <Dictionary_578>:
    25a0:	000025bc 			; <UNDEFINED> instruction: 0x000025bc
    25a4:	73090000 	movwvc	r0, #36864	; 0x9000
    25a8:	6f737465 	svcvs	0x00737465
    25ac:	65637275 	strbvs	r7, [r3, #-629]!	; 0x275

000025b0 <Code_578>:
    25b0:	4817      	ldr	r0, [pc, #92]	; (2610 <Code_582+0x28>)
    25b2:	cf02      	ldmia	r7!, {r1}
    25b4:	6006      	str	r6, [r0, #0]
    25b6:	6041      	str	r1, [r0, #4]
    25b8:	cf40      	ldmia	r7!, {r6}
    25ba:	4770      	bx	lr

000025bc <Dictionary_580>:
    25bc:	000025dc 	ldrdeq	r2, [r0], -ip
    25c0:	73060000 	movwvc	r0, #24576	; 0x6000
    25c4:	6372756f 	cmnvs	r2, #465567744	; 0x1bc00000
    25c8:	3f040065 	svccc	0x00040065

000025ca <Code_580>:
    25ca:	3f04      	subs	r7, #4
    25cc:	603e      	str	r6, [r7, #0]
    25ce:	4e10      	ldr	r6, [pc, #64]	; (2610 <Code_582+0x28>)
    25d0:	3f04      	subs	r7, #4
    25d2:	6870      	ldr	r0, [r6, #4]
    25d4:	6038      	str	r0, [r7, #0]
    25d6:	6836      	ldr	r6, [r6, #0]
    25d8:	4770      	bx	lr
    25da:	46c0      	nop			; (mov r8, r8)

000025dc <Dictionary_582>:
    25dc:	00002614 	andeq	r2, r0, r4, lsl r6
    25e0:	71050000 	mrsvc	r0, (UNDEF: 5)
    25e4:	79726575 	ldmdbvc	r2!, {r0, r2, r4, r5, r6, r8, sl, sp, lr}^

000025e8 <Code_582>:
    25e8:	b50f      	push	{r0, r1, r2, r3, lr}
    25ea:	4808      	ldr	r0, [pc, #32]	; (260c <Code_582+0x24>)
    25ec:	2100      	movs	r1, #0
    25ee:	6001      	str	r1, [r0, #0]
    25f0:	f7ff ffb1 	bl	2556 <Code_570>
    25f4:	3f04      	subs	r7, #4
    25f6:	603e      	str	r6, [r7, #0]
    25f8:	3f04      	subs	r7, #4
    25fa:	603e      	str	r6, [r7, #0]
    25fc:	26c8      	movs	r6, #200	; 0xc8
    25fe:	f7ff ff70 	bl	24e2 <Code_566>
    2602:	f7ff ffd5 	bl	25b0 <Code_578>
    2606:	bd0f      	pop	{r0, r1, r2, r3, pc}
    2608:	1ffff090 	svcne	0x00fff090
    260c:	20002fe4 	andcs	r2, r0, r4, ror #31
    2610:	20002fdc 	ldrdcs	r2, [r0], -ip

00002614 <Dictionary_587>:
    2614:	00002664 	andeq	r2, r0, r4, ror #12
    2618:	63070000 	movwvs	r0, #28672	; 0x7000
    261c:	61706d6f 	cmnvs	r0, pc, ror #26
    2620:	b50f6572 	strlt	r6, [pc, #-1394]	; 20b6 <Code_498+0x8>

00002622 <Code_587>:
    2622:	b50f      	push	{r0, r1, r2, r3, lr}
    2624:	0031      	movs	r1, r6
    2626:	cf40      	ldmia	r7!, {r6}
    2628:	cf01      	ldmia	r7!, {r0}
    262a:	4288      	cmp	r0, r1
    262c:	d002      	beq.n	2634 <Code_587+0x12>
    262e:	cf40      	ldmia	r7!, {r6}
    2630:	2600      	movs	r6, #0
    2632:	bd0f      	pop	{r0, r1, r2, r3, pc}
    2634:	cf02      	ldmia	r7!, {r1}
    2636:	2800      	cmp	r0, #0
    2638:	d010      	beq.n	265c <Code_587+0x3a>
    263a:	3801      	subs	r0, #1
    263c:	5c0a      	ldrb	r2, [r1, r0]
    263e:	5c33      	ldrb	r3, [r6, r0]
    2640:	2a41      	cmp	r2, #65	; 0x41
    2642:	d302      	bcc.n	264a <Code_587+0x28>
    2644:	2a5b      	cmp	r2, #91	; 0x5b
    2646:	d200      	bcs.n	264a <Code_587+0x28>
    2648:	3220      	adds	r2, #32
    264a:	2b41      	cmp	r3, #65	; 0x41
    264c:	d302      	bcc.n	2654 <Code_587+0x32>
    264e:	2b5b      	cmp	r3, #91	; 0x5b
    2650:	d200      	bcs.n	2654 <Code_587+0x32>
    2652:	3320      	adds	r3, #32
    2654:	429a      	cmp	r2, r3
    2656:	d0ee      	beq.n	2636 <Code_587+0x14>
    2658:	2600      	movs	r6, #0
    265a:	bd0f      	pop	{r0, r1, r2, r3, pc}
    265c:	2600      	movs	r6, #0
    265e:	43f6      	mvns	r6, r6
    2660:	bd0f      	pop	{r0, r1, r2, r3, pc}
    2662:	46c0      	nop			; (mov r8, r8)

00002664 <Dictionary_592>:
    2664:	00002678 	andeq	r2, r0, r8, ror r6
    2668:	63020000 	movwvs	r0, #8192	; 0x2000
    266c:	b5000072 	strlt	r0, [r0, #-114]	; 0x72

0000266e <Code_592>:
    266e:	b500      	push	{lr}
    2670:	f000 f864 	bl	273c <dotgaensefuesschen>
    2674:	bd000a01 	vstrlt	s0, [r0, #-4]

00002678 <Dictionary_594>:
    2678:	0000268c 	andeq	r2, r0, ip, lsl #13
    267c:	62020000 	andvs	r0, r2, #0
    2680:	3f04006c 	svccc	0x0004006c

00002682 <Code_594>:
    2682:	3f04      	subs	r7, #4
    2684:	603e      	str	r6, [r7, #0]
    2686:	2620      	movs	r6, #32
    2688:	4770      	bx	lr
    268a:	46c0      	nop			; (mov r8, r8)

0000268c <Dictionary_597>:
    268c:	000026a0 	andeq	r2, r0, r0, lsr #13
    2690:	73050000 	movwvc	r0, #20480	; 0x5000
    2694:	65636170 	strbvs	r6, [r3, #-368]!	; 0x170

00002698 <Code_597>:
    2698:	3f04      	subs	r7, #4
    269a:	603e      	str	r6, [r7, #0]
    269c:	2620      	movs	r6, #32
    269e:	e64b      	b.n	2338 <Code_547>

000026a0 <Dictionary_600>:
    26a0:	000026c0 	andeq	r2, r0, r0, asr #13
    26a4:	73060000 	movwvc	r0, #24576	; 0x6000
    26a8:	65636170 	strbvs	r6, [r3, #-368]!	; 0x170
    26ac:	b5000073 	strlt	r0, [r0, #-115]	; 0x73

000026ae <Code_600>:
    26ae:	b500      	push	{lr}
    26b0:	2e00      	cmp	r6, #0
    26b2:	dd03      	ble.n	26bc <Code_600+0xe>
    26b4:	f7ff fff0 	bl	2698 <Code_597>
    26b8:	3e01      	subs	r6, #1
    26ba:	d1fb      	bne.n	26b4 <Code_600+0x6>
    26bc:	cf40      	ldmia	r7!, {r6}
    26be:	bd00      	pop	{pc}

000026c0 <Dictionary_602>:
    26c0:	000026d0 	ldrdeq	r2, [r0], -r0
    26c4:	5b060050 	blpl	18280c <BIT20+0x8280c>
    26c8:	72616863 	rsbvc	r6, r1, #6488064	; 0x630000
    26cc:	e005005d 	and	r0, r5, sp, asr r0

000026ce <Code_602>:
    26ce:	e005      	b.n	26dc <Code_603>

000026d0 <Dictionary_603>:
    26d0:	000026e8 	andeq	r2, r0, r8, ror #13
    26d4:	63040000 	movwvs	r0, #16384	; 0x4000
    26d8:	00726168 	rsbseq	r6, r2, r8, ror #2

000026dc <Code_603>:
    26dc:	b500      	push	{lr}
    26de:	f001 fbcf 	bl	3e80 <Code_1092>
    26e2:	cf40      	ldmia	r7!, {r6}
    26e4:	7836      	ldrb	r6, [r6, #0]
    26e6:	bd00      	pop	{pc}

000026e8 <Dictionary_605>:
    26e8:	000026f8 	strdeq	r2, [r0], -r8
    26ec:	28010050 	stmdacs	r1, {r4, r6}

000026f0 <Code_605>:
    26f0:	3f04      	subs	r7, #4
    26f2:	603e      	str	r6, [r7, #0]
    26f4:	2629      	movs	r6, #41	; 0x29
    26f6:	e006      	b.n	2706 <Code_608+0x6>

000026f8 <Dictionary_608>:
    26f8:	00002714 	andeq	r2, r0, r4, lsl r7
    26fc:	5c010050 	stcpl	0, cr0, [r1], {80}	; 0x50

00002700 <Code_608>:
    2700:	3f04      	subs	r7, #4
    2702:	603e      	str	r6, [r7, #0]
    2704:	2600      	movs	r6, #0
    2706:	b500      	push	{lr}
    2708:	f001 fbc4 	bl	3e94 <Code_1094>
    270c:	3704      	adds	r7, #4
    270e:	cf40      	ldmia	r7!, {r6}
    2710:	bd00      	pop	{pc}
    2712:	46c0      	nop			; (mov r8, r8)

00002714 <Dictionary_613>:
    2714:	0000275c 	andeq	r2, r0, ip, asr r7
    2718:	2e020010 	mcrcs	0, 0, r0, cr2, cr0, {0}
    271c:	48a10022 	stmiami	r1!, {r1, r5}

0000271e <Code_613>:
    271e:	48a1      	ldr	r0, [pc, #644]	; (29a4 <Code_652+0x9c>)
    2720:	b500      	push	{lr}
    2722:	3f04      	subs	r7, #4
    2724:	603e      	str	r6, [r7, #0]
    2726:	0006      	movs	r6, r0
    2728:	f000 f9e2 	bl	2af0 <Code_697>
    272c:	3f04      	subs	r7, #4
    272e:	603e      	str	r6, [r7, #0]
    2730:	2622      	movs	r6, #34	; 0x22
    2732:	f001 fbaf 	bl	3e94 <Code_1094>
    2736:	f000 fd24 	bl	3182 <Code_828>
    273a:	bd00      	pop	{pc}

0000273c <dotgaensefuesschen>:
    273c:	b40a      	push	{r1, r3}
    273e:	3f04      	subs	r7, #4
    2740:	603e      	str	r6, [r7, #0]
    2742:	4676      	mov	r6, lr
    2744:	3e01      	subs	r6, #1
    2746:	7833      	ldrb	r3, [r6, #0]
    2748:	2101      	movs	r1, #1
    274a:	3301      	adds	r3, #1
    274c:	4019      	ands	r1, r3
    274e:	185b      	adds	r3, r3, r1
    2750:	4671      	mov	r1, lr
    2752:	18c9      	adds	r1, r1, r3
    2754:	468e      	mov	lr, r1
    2756:	bc0a      	pop	{r1, r3}
    2758:	e03c      	b.n	27d4 <Code_628>
    275a:	46c0      	nop			; (mov r8, r8)

0000275c <Dictionary_619>:
    275c:	00002784 	andeq	r2, r0, r4, lsl #15
    2760:	63020010 	movwvs	r0, #8208	; 0x2010
    2764:	48900022 	ldmmi	r0, {r1, r5}

00002766 <Code_619>:
    2766:	4890      	ldr	r0, [pc, #576]	; (29a8 <Code_652+0xa0>)
    2768:	e7da      	b.n	2720 <Code_613+0x2>

0000276a <dotcfuesschen>:
    276a:	3f04      	subs	r7, #4
    276c:	603e      	str	r6, [r7, #0]
    276e:	4676      	mov	r6, lr
    2770:	3e01      	subs	r6, #1
    2772:	7833      	ldrb	r3, [r6, #0]
    2774:	2101      	movs	r1, #1
    2776:	3301      	adds	r3, #1
    2778:	4019      	ands	r1, r3
    277a:	185b      	adds	r3, r3, r1
    277c:	4671      	mov	r1, lr
    277e:	18c9      	adds	r1, r1, r3
    2780:	468e      	mov	lr, r1
    2782:	4770      	bx	lr

00002784 <Dictionary_621>:
    2784:	000027b0 			; <UNDEFINED> instruction: 0x000027b0
    2788:	73020010 	movwvc	r0, #8208	; 0x2010
    278c:	48870022 	stmmi	r7, {r1, r5}

0000278e <Code_621>:
    278e:	4887      	ldr	r0, [pc, #540]	; (29ac <Code_652+0xa4>)
    2790:	e7c6      	b.n	2720 <Code_613+0x2>

00002792 <dotsfuesschen>:
    2792:	3f04      	subs	r7, #4
    2794:	603e      	str	r6, [r7, #0]
    2796:	4676      	mov	r6, lr
    2798:	3f04      	subs	r7, #4
    279a:	603e      	str	r6, [r7, #0]
    279c:	3e01      	subs	r6, #1
    279e:	7836      	ldrb	r6, [r6, #0]
    27a0:	2101      	movs	r1, #1
    27a2:	1c73      	adds	r3, r6, #1
    27a4:	4019      	ands	r1, r3
    27a6:	185b      	adds	r3, r3, r1
    27a8:	4671      	mov	r1, lr
    27aa:	18c9      	adds	r1, r1, r3
    27ac:	468e      	mov	lr, r1
    27ae:	4770      	bx	lr

000027b0 <Dictionary_625>:
    27b0:	000027c8 	andeq	r2, r0, r8, asr #15
    27b4:	63050000 	movwvs	r0, #20480	; 0x5000
    27b8:	746e756f 	strbtvc	r7, [lr], #-1391	; 0x56f

000027bc <Code_625>:
    27bc:	3601      	adds	r6, #1
    27be:	3f04      	subs	r7, #4
    27c0:	603e      	str	r6, [r7, #0]
    27c2:	3e01      	subs	r6, #1
    27c4:	7836      	ldrb	r6, [r6, #0]
    27c6:	4770      	bx	lr

000027c8 <Dictionary_628>:
    27c8:	000027f0 	strdeq	r2, [r0], -r0
    27cc:	63050000 	movwvs	r0, #20480	; 0x5000
    27d0:	65707974 	ldrbvs	r7, [r0, #-2420]!	; 0x974

000027d4 <Code_628>:
    27d4:	b501      	push	{r0, lr}
    27d6:	7830      	ldrb	r0, [r6, #0]
    27d8:	2800      	cmp	r0, #0
    27da:	d007      	beq.n	27ec <Code_628+0x18>
    27dc:	3601      	adds	r6, #1
    27de:	3f04      	subs	r7, #4
    27e0:	603e      	str	r6, [r7, #0]
    27e2:	7836      	ldrb	r6, [r6, #0]
    27e4:	f7ff fda8 	bl	2338 <Code_547>
    27e8:	3801      	subs	r0, #1
    27ea:	d1f7      	bne.n	27dc <Code_628+0x8>
    27ec:	cf40      	ldmia	r7!, {r6}
    27ee:	bd01      	pop	{r0, pc}

000027f0 <Dictionary_632>:
    27f0:	00002820 	andeq	r2, r0, r0, lsr #16
    27f4:	74040000 	strvc	r0, [r4], #-0
    27f8:	00657079 	rsbeq	r7, r5, r9, ror r0

000027fc <Code_632>:
    27fc:	0031      	movs	r1, r6
    27fe:	cf40      	ldmia	r7!, {r6}
    2800:	0030      	movs	r0, r6
    2802:	cf40      	ldmia	r7!, {r6}

00002804 <stype_addr_r0_len_r1>:
    2804:	b500      	push	{lr}
    2806:	2900      	cmp	r1, #0
    2808:	d008      	beq.n	281c <stype_addr_r0_len_r1+0x18>
    280a:	2200      	movs	r2, #0
    280c:	3f04      	subs	r7, #4
    280e:	603e      	str	r6, [r7, #0]
    2810:	5c86      	ldrb	r6, [r0, r2]
    2812:	f7ff fd91 	bl	2338 <Code_547>
    2816:	3201      	adds	r2, #1
    2818:	4291      	cmp	r1, r2
    281a:	d1f7      	bne.n	280c <stype_addr_r0_len_r1+0x8>
    281c:	bd00      	pop	{pc}
    281e:	46c0      	nop			; (mov r8, r8)

00002820 <Dictionary_636>:
    2820:	0000285c 	andeq	r2, r0, ip, asr r8
    2824:	68040000 	stmdavs	r4, {}	; <UNPREDICTABLE>
    2828:	002e7865 	eoreq	r7, lr, r5, ror #16

0000282c <Code_636>:
    282c:	b507      	push	{r0, r1, r2, lr}
    282e:	0031      	movs	r1, r6
    2830:	cf40      	ldmia	r7!, {r6}
    2832:	2020      	movs	r0, #32
    2834:	220f      	movs	r2, #15
    2836:	3804      	subs	r0, #4
    2838:	3f04      	subs	r7, #4
    283a:	603e      	str	r6, [r7, #0]
    283c:	000e      	movs	r6, r1
    283e:	40c6      	lsrs	r6, r0
    2840:	4016      	ands	r6, r2
    2842:	2e09      	cmp	r6, #9
    2844:	d901      	bls.n	284a <Code_636+0x1e>
    2846:	3637      	adds	r6, #55	; 0x37
    2848:	e000      	b.n	284c <Code_636+0x20>
    284a:	3630      	adds	r6, #48	; 0x30
    284c:	f7ff fd74 	bl	2338 <Code_547>
    2850:	2800      	cmp	r0, #0
    2852:	d1f0      	bne.n	2836 <Code_636+0xa>
    2854:	f7ff ff20 	bl	2698 <Code_597>
    2858:	bd07      	pop	{r0, r1, r2, pc}
    285a:	46c0      	nop			; (mov r8, r8)

0000285c <Dictionary_639>:
    285c:	0000286c 	andeq	r2, r0, ip, ror #16
    2860:	68030000 	stmdavs	r3, {}	; <UNPREDICTABLE>
    2864:	b51f732e 	ldrlt	r7, [pc, #-814]	; 253e <Code_566+0x5c>

00002866 <Code_639>:
    2866:	b51f      	push	{r0, r1, r2, r3, r4, lr}
    2868:	4c51      	ldr	r4, [pc, #324]	; (29b0 <Code_652+0xa8>)
    286a:	e00e      	b.n	288a <Code_641+0x4>

0000286c <Dictionary_640>:
    286c:	0000287c 	andeq	r2, r0, ip, ror r8
    2870:	75030000 	strvc	r0, [r3, #-0]
    2874:	b51f732e 	ldrlt	r7, [pc, #-814]	; 254e <Dictionary_570+0x2>

00002876 <Code_640>:
    2876:	b51f      	push	{r0, r1, r2, r3, r4, lr}
    2878:	4c4e      	ldr	r4, [pc, #312]	; (29b4 <Code_652+0xac>)
    287a:	e006      	b.n	288a <Code_641+0x4>

0000287c <Dictionary_641>:
    287c:	000028fc 	strdeq	r2, [r0], -ip
    2880:	2e020000 	cdpcs	0, 0, cr0, cr2, cr0, {0}
    2884:	b51f0073 	ldrlt	r0, [pc, #-115]	; 2819 <stype_addr_r0_len_r1+0x15>

00002886 <Code_641>:
    2886:	b51f      	push	{r0, r1, r2, r3, r4, lr}
    2888:	4c4b      	ldr	r4, [pc, #300]	; (29b8 <Code_652+0xb0>)
    288a:	494c      	ldr	r1, [pc, #304]	; (29bc <Code_652+0xb4>)
    288c:	1bc9      	subs	r1, r1, r7
    288e:	0889      	lsrs	r1, r1, #2
    2890:	4a4b      	ldr	r2, [pc, #300]	; (29c0 <Code_652+0xb8>)
    2892:	6810      	ldr	r0, [r2, #0]
    2894:	b403      	push	{r0, r1}
    2896:	200a      	movs	r0, #10
    2898:	6010      	str	r0, [r2, #0]
    289a:	f7ff ff4f 	bl	273c <dotgaensefuesschen>
    289e:	61745308 	cmnvs	r4, r8, lsl #6
    28a2:	203a6b63 	eorscs	r6, sl, r3, ror #22
    28a6:	3f04005b 	svccc	0x0004005b
    28aa:	603e      	str	r6, [r7, #0]
    28ac:	000e      	movs	r6, r1
    28ae:	f001 fccf 	bl	4250 <Code_1160>
    28b2:	f7ff ff43 	bl	273c <dotgaensefuesschen>
    28b6:	00205d02 	eoreq	r5, r0, r2, lsl #26
    28ba:	bc03      	pop	{r0, r1}
    28bc:	4a40      	ldr	r2, [pc, #256]	; (29c0 <Code_652+0xb8>)
    28be:	6010      	str	r0, [r2, #0]
    28c0:	2900      	cmp	r1, #0
    28c2:	d00a      	beq.n	28da <Code_641+0x54>
    28c4:	4a3f      	ldr	r2, [pc, #252]	; (29c4 <Code_652+0xbc>)
    28c6:	6810      	ldr	r0, [r2, #0]
    28c8:	b406      	push	{r1, r2}
    28ca:	3f04      	subs	r7, #4
    28cc:	603e      	str	r6, [r7, #0]
    28ce:	0006      	movs	r6, r0
    28d0:	47a0      	blx	r4
    28d2:	bc06      	pop	{r1, r2}
    28d4:	3a04      	subs	r2, #4
    28d6:	3901      	subs	r1, #1
    28d8:	d1f5      	bne.n	28c6 <Code_641+0x40>
    28da:	f7ff ff2f 	bl	273c <dotgaensefuesschen>
    28de:	4f542006 	svcmi	0x00542006
    28e2:	00203a53 	eoreq	r3, r0, r3, asr sl
    28e6:	3f04      	subs	r7, #4
    28e8:	603e      	str	r6, [r7, #0]
    28ea:	0036      	movs	r6, r6
    28ec:	47a0      	blx	r4
    28ee:	f7ff ff25 	bl	273c <dotgaensefuesschen>
    28f2:	3e2a2004 	cdpcc	0, 2, cr2, cr10, cr4, {0}
    28f6:	bd1f000a 	ldclt	0, cr0, [pc, #-40]	; 28d4 <Code_641+0x4e>
    28fa:	46c0      	nop			; (mov r8, r8)

000028fc <Dictionary_652>:
    28fc:	000029c8 	andeq	r2, r0, r8, asr #19
    2900:	77050000 	strvc	r0, [r5, -r0]
    2904:	7364726f 	cmnvc	r4, #-268435450	; 0xf0000006

00002908 <Code_652>:
    2908:	b500      	push	{lr}
    290a:	f7ff ff17 	bl	273c <dotgaensefuesschen>
    290e:	726f7706 	rsbvc	r7, pc, #1572864	; 0x180000
    2912:	000a7364 	andeq	r7, sl, r4, ror #6
    2916:	f000 fe72 	bl	35fe <Code_903>
    291a:	f7ff ff0f 	bl	273c <dotgaensefuesschen>
    291e:	64644109 	strbtvs	r4, [r4], #-265	; 0x109
    2922:	73736572 	cmnvc	r3, #478150656	; 0x1c800000
    2926:	3f04203a 	svccc	0x0004203a
    292a:	603e      	str	r6, [r7, #0]
    292c:	f7ff ff7e 	bl	282c <Code_636>
    2930:	f7ff ff04 	bl	273c <dotgaensefuesschen>
    2934:	6e694c06 	cdpvs	12, 6, cr4, cr9, cr6, {0}
    2938:	00203a6b 	eoreq	r3, r0, fp, ror #20
    293c:	3f04      	subs	r7, #4
    293e:	603e      	str	r6, [r7, #0]
    2940:	6836      	ldr	r6, [r6, #0]
    2942:	f7ff ff73 	bl	282c <Code_636>
    2946:	f7ff fef9 	bl	273c <dotgaensefuesschen>
    294a:	616c4607 	cmnvs	ip, r7, lsl #12
    294e:	203a7367 	eorscs	r7, sl, r7, ror #6
    2952:	3f04      	subs	r7, #4
    2954:	603e      	str	r6, [r7, #0]
    2956:	88b6      	ldrh	r6, [r6, #4]
    2958:	f7ff ff68 	bl	282c <Code_636>
    295c:	f7ff feee 	bl	273c <dotgaensefuesschen>
    2960:	646f4306 	strbtvs	r4, [pc], #-774	; 2968 <Code_652+0x60>
    2964:	00203a65 	eoreq	r3, r0, r5, ror #20
    2968:	1db0      	adds	r0, r6, #6
    296a:	f000 fe83 	bl	3674 <skipstring>
    296e:	3f04      	subs	r7, #4
    2970:	603e      	str	r6, [r7, #0]
    2972:	0006      	movs	r6, r0
    2974:	f7ff ff5a 	bl	282c <Code_636>
    2978:	f7ff fee0 	bl	273c <dotgaensefuesschen>
    297c:	6d614e06 	stclvs	14, cr4, [r1, #-24]!	; 0xffffffe8
    2980:	00203a65 	eoreq	r3, r0, r5, ror #20
    2984:	3f04      	subs	r7, #4
    2986:	603e      	str	r6, [r7, #0]
    2988:	3606      	adds	r6, #6
    298a:	f7ff ff23 	bl	27d4 <Code_628>
    298e:	f7ff fed5 	bl	273c <dotgaensefuesschen>
    2992:	f0000a01 			; <UNDEFINED> instruction: 0xf0000a01
    2996:	fe4b 0030 	mcr2	0, 2, r0, cr11, cr0, {1}
    299a:	cf40      	ldmia	r7!, {r6}
    299c:	d0bd      	beq.n	291a <Code_652+0x12>
    299e:	cf40      	ldmia	r7!, {r6}
    29a0:	bd00      	pop	{pc}
    29a2:	273c0000 	ldrcs	r0, [ip, -r0]!
    29a6:	276a0000 	strbcs	r0, [sl, -r0]!
    29aa:	27920000 	ldrcs	r0, [r2, r0]
    29ae:	282d0000 	stmdacs	sp!, {}	; <UNPREDICTABLE>
    29b2:	423f0000 	eorsmi	r0, pc, #0
    29b6:	42510000 	subsmi	r0, r1, #0
    29ba:	f2580000 	vhadd.s16	d16, d8, d0
    29be:	2ffc1fff 	svccs	0x00fc1fff
    29c2:	f2542000 	vhadd.s16	d18, d4, d0
    29c6:	2ae41fff 	bcs	ff90a9ca <BIT31+0x7f90a9ca>

000029c8 <Dictionary_672>:
    29c8:	00002ae4 	andeq	r2, r0, r4, ror #21
    29cc:	72100000 	andsvc	r0, r0, #0
    29d0:	73696765 	cmnvc	r9, #26476544	; 0x1940000
    29d4:	6c726574 	cfldr64vs	mvdx6, [r2], #-464	; 0xfffffe30
    29d8:	72657469 	rsbvc	r7, r5, #1761607680	; 0x69000000
    29dc:	002c6c61 	eoreq	r6, ip, r1, ror #24

000029e0 <Code_672>:
    29e0:	b53f      	push	{r0, r1, r2, r3, r4, r5, lr}
    29e2:	0035      	movs	r5, r6
    29e4:	cf40      	ldmia	r7!, {r6}
    29e6:	0029      	movs	r1, r5
    29e8:	00c9      	lsls	r1, r1, #3
    29ea:	4329      	orrs	r1, r5
    29ec:	022d      	lsls	r5, r5, #8
    29ee:	489e      	ldr	r0, [pc, #632]	; (2c68 <Code_726+0x32>)
    29f0:	4305      	orrs	r5, r0
    29f2:	23ff      	movs	r3, #255	; 0xff
    29f4:	2200      	movs	r2, #0
    29f6:	0030      	movs	r0, r6
    29f8:	40d0      	lsrs	r0, r2
    29fa:	4398      	bics	r0, r3
    29fc:	d001      	beq.n	2a02 <Code_672+0x22>
    29fe:	3201      	adds	r2, #1
    2a00:	e7f9      	b.n	29f6 <Code_672+0x16>
    2a02:	0030      	movs	r0, r6
    2a04:	40d0      	lsrs	r0, r2
    2a06:	4018      	ands	r0, r3
    2a08:	4328      	orrs	r0, r5
    2a0a:	3f04      	subs	r7, #4
    2a0c:	603e      	str	r6, [r7, #0]
    2a0e:	0006      	movs	r6, r0
    2a10:	f000 fb7d 	bl	310e <Code_816>
    2a14:	4895      	ldr	r0, [pc, #596]	; (2c6c <Code_726+0x36>)
    2a16:	4305      	orrs	r5, r0
    2a18:	0018      	movs	r0, r3
    2a1a:	4090      	lsls	r0, r2
    2a1c:	4386      	bics	r6, r0
    2a1e:	d010      	beq.n	2a42 <Code_672+0x62>
    2a20:	2400      	movs	r4, #0
    2a22:	0030      	movs	r0, r6
    2a24:	40e0      	lsrs	r0, r4
    2a26:	4398      	bics	r0, r3
    2a28:	d001      	beq.n	2a2e <Code_672+0x4e>
    2a2a:	3401      	adds	r4, #1
    2a2c:	e7f9      	b.n	2a22 <Code_672+0x42>
    2a2e:	1b10      	subs	r0, r2, r4
    2a30:	3f04      	subs	r7, #4
    2a32:	603e      	str	r6, [r7, #0]
    2a34:	000e      	movs	r6, r1
    2a36:	0180      	lsls	r0, r0, #6
    2a38:	4306      	orrs	r6, r0
    2a3a:	f000 fb68 	bl	310e <Code_816>
    2a3e:	0022      	movs	r2, r4
    2a40:	e7df      	b.n	2a02 <Code_672+0x22>
    2a42:	2a00      	cmp	r2, #0
    2a44:	d006      	beq.n	2a54 <Code_672+0x74>
    2a46:	3f04      	subs	r7, #4
    2a48:	603e      	str	r6, [r7, #0]
    2a4a:	000e      	movs	r6, r1
    2a4c:	0192      	lsls	r2, r2, #6
    2a4e:	4316      	orrs	r6, r2
    2a50:	f000 fb5d 	bl	310e <Code_816>
    2a54:	cf40      	ldmia	r7!, {r6}
    2a56:	bd3f      	pop	{r0, r1, r2, r3, r4, r5, pc}

00002a58 <registerliteralkommalang>:
    2a58:	b51f      	push	{r0, r1, r2, r3, r4, lr}
    2a5a:	0031      	movs	r1, r6
    2a5c:	cf40      	ldmia	r7!, {r6}
    2a5e:	4c84      	ldr	r4, [pc, #528]	; (2c70 <Code_726+0x3a>)
    2a60:	430c      	orrs	r4, r1
    2a62:	00c9      	lsls	r1, r1, #3
    2a64:	430c      	orrs	r4, r1
    2a66:	0149      	lsls	r1, r1, #5
    2a68:	0030      	movs	r0, r6
    2a6a:	cf40      	ldmia	r7!, {r6}
    2a6c:	0e02      	lsrs	r2, r0, #24
    2a6e:	23ff      	movs	r3, #255	; 0xff
    2a70:	401a      	ands	r2, r3
    2a72:	4b7d      	ldr	r3, [pc, #500]	; (2c68 <Code_726+0x32>)
    2a74:	430b      	orrs	r3, r1
    2a76:	4313      	orrs	r3, r2
    2a78:	3f04      	subs	r7, #4
    2a7a:	603e      	str	r6, [r7, #0]
    2a7c:	001e      	movs	r6, r3
    2a7e:	f000 fb46 	bl	310e <Code_816>
    2a82:	3f04      	subs	r7, #4
    2a84:	603e      	str	r6, [r7, #0]
    2a86:	0026      	movs	r6, r4
    2a88:	f000 fb41 	bl	310e <Code_816>
    2a8c:	0c02      	lsrs	r2, r0, #16
    2a8e:	23ff      	movs	r3, #255	; 0xff
    2a90:	401a      	ands	r2, r3
    2a92:	4b78      	ldr	r3, [pc, #480]	; (2c74 <Code_726+0x3e>)
    2a94:	430b      	orrs	r3, r1
    2a96:	4313      	orrs	r3, r2
    2a98:	3f04      	subs	r7, #4
    2a9a:	603e      	str	r6, [r7, #0]
    2a9c:	001e      	movs	r6, r3
    2a9e:	f000 fb36 	bl	310e <Code_816>
    2aa2:	3f04      	subs	r7, #4
    2aa4:	603e      	str	r6, [r7, #0]
    2aa6:	0026      	movs	r6, r4
    2aa8:	f000 fb31 	bl	310e <Code_816>
    2aac:	0a02      	lsrs	r2, r0, #8
    2aae:	23ff      	movs	r3, #255	; 0xff
    2ab0:	401a      	ands	r2, r3
    2ab2:	4b70      	ldr	r3, [pc, #448]	; (2c74 <Code_726+0x3e>)
    2ab4:	430b      	orrs	r3, r1
    2ab6:	4313      	orrs	r3, r2
    2ab8:	3f04      	subs	r7, #4
    2aba:	603e      	str	r6, [r7, #0]
    2abc:	001e      	movs	r6, r3
    2abe:	f000 fb26 	bl	310e <Code_816>
    2ac2:	3f04      	subs	r7, #4
    2ac4:	603e      	str	r6, [r7, #0]
    2ac6:	0026      	movs	r6, r4
    2ac8:	f000 fb21 	bl	310e <Code_816>
    2acc:	0002      	movs	r2, r0
    2ace:	23ff      	movs	r3, #255	; 0xff
    2ad0:	401a      	ands	r2, r3
    2ad2:	4b68      	ldr	r3, [pc, #416]	; (2c74 <Code_726+0x3e>)
    2ad4:	430b      	orrs	r3, r1
    2ad6:	4313      	orrs	r3, r2
    2ad8:	3f04      	subs	r7, #4
    2ada:	603e      	str	r6, [r7, #0]
    2adc:	001e      	movs	r6, r3
    2ade:	f000 fb16 	bl	310e <Code_816>
    2ae2:	bd1f      	pop	{r0, r1, r2, r3, r4, pc}

00002ae4 <Dictionary_697>:
    2ae4:	00002b54 	andeq	r2, r0, r4, asr fp
    2ae8:	63050000 	movwvs	r0, #20480	; 0x5000
    2aec:	2c6c6c61 	stclcs	12, cr6, [ip], #-388	; 0xfffffe7c

00002af0 <Code_697>:
    2af0:	b50f      	push	{r0, r1, r2, r3, lr}
    2af2:	0033      	movs	r3, r6
    2af4:	f000 fe62 	bl	37bc <Code_932>
    2af8:	0030      	movs	r0, r6
    2afa:	cf40      	ldmia	r7!, {r6}
    2afc:	1a1b      	subs	r3, r3, r0
    2afe:	3b04      	subs	r3, #4
    2b00:	495d      	ldr	r1, [pc, #372]	; (2c78 <Code_726+0x42>)
    2b02:	4019      	ands	r1, r3
    2b04:	2900      	cmp	r1, #0
    2b06:	d00e      	beq.n	2b26 <Code_697+0x36>
    2b08:	4a5c      	ldr	r2, [pc, #368]	; (2c7c <Code_726+0x46>)
    2b0a:	4291      	cmp	r1, r2
    2b0c:	d00b      	beq.n	2b26 <Code_697+0x36>
    2b0e:	3601      	adds	r6, #1
    2b10:	3f04      	subs	r7, #4
    2b12:	603e      	str	r6, [r7, #0]
    2b14:	2600      	movs	r6, #0
    2b16:	f7ff ff63 	bl	29e0 <Code_672>
    2b1a:	3f04      	subs	r7, #4
    2b1c:	603e      	str	r6, [r7, #0]
    2b1e:	4e58      	ldr	r6, [pc, #352]	; (2c80 <Code_726+0x4a>)
    2b20:	f000 faf5 	bl	310e <Code_816>
    2b24:	bd0f      	pop	{r0, r1, r2, r3, pc}
    2b26:	cf40      	ldmia	r7!, {r6}
    2b28:	085b      	lsrs	r3, r3, #1
    2b2a:	4856      	ldr	r0, [pc, #344]	; (2c84 <Code_726+0x4e>)
    2b2c:	4956      	ldr	r1, [pc, #344]	; (2c88 <Code_726+0x52>)
    2b2e:	4019      	ands	r1, r3
    2b30:	4308      	orrs	r0, r1
    2b32:	0adb      	lsrs	r3, r3, #11
    2b34:	4955      	ldr	r1, [pc, #340]	; (2c8c <Code_726+0x56>)
    2b36:	4019      	ands	r1, r3
    2b38:	0409      	lsls	r1, r1, #16
    2b3a:	4308      	orrs	r0, r1
    2b3c:	0a9b      	lsrs	r3, r3, #10
    2b3e:	2101      	movs	r1, #1
    2b40:	4019      	ands	r1, r3
    2b42:	0689      	lsls	r1, r1, #26
    2b44:	4308      	orrs	r0, r1
    2b46:	3f04      	subs	r7, #4
    2b48:	603e      	str	r6, [r7, #0]
    2b4a:	0006      	movs	r6, r0
    2b4c:	f000 fb09 	bl	3162 <Code_825>
    2b50:	bd0f      	pop	{r0, r1, r2, r3, pc}
    2b52:	46c0      	nop			; (mov r8, r8)

00002b54 <Dictionary_706>:
    2b54:	00002ba8 	andeq	r2, r0, r8, lsr #23
    2b58:	6c080000 	stcvs	0, cr0, [r8], {-0}
    2b5c:	72657469 	rsbvc	r7, r5, #1761607680	; 0x69000000
    2b60:	002c6c61 	eoreq	r6, ip, r1, ror #24

00002b64 <Code_706>:
    2b64:	b508      	push	{r3, lr}
    2b66:	3f04      	subs	r7, #4
    2b68:	603e      	str	r6, [r7, #0]
    2b6a:	4e49      	ldr	r6, [pc, #292]	; (2c90 <Code_726+0x5a>)
    2b6c:	f000 facf 	bl	310e <Code_816>
    2b70:	3f04      	subs	r7, #4
    2b72:	603e      	str	r6, [r7, #0]
    2b74:	4e47      	ldr	r6, [pc, #284]	; (2c94 <Code_726+0x5e>)
    2b76:	f000 faca 	bl	310e <Code_816>
    2b7a:	4b47      	ldr	r3, [pc, #284]	; (2c98 <Code_726+0x62>)
    2b7c:	0030      	movs	r0, r6
    2b7e:	4018      	ands	r0, r3
    2b80:	4298      	cmp	r0, r3
    2b82:	d10b      	bne.n	2b9c <Code_706+0x38>
    2b84:	43f6      	mvns	r6, r6
    2b86:	3f04      	subs	r7, #4
    2b88:	603e      	str	r6, [r7, #0]
    2b8a:	2606      	movs	r6, #6
    2b8c:	f7ff ff28 	bl	29e0 <Code_672>
    2b90:	3f04      	subs	r7, #4
    2b92:	603e      	str	r6, [r7, #0]
    2b94:	4e41      	ldr	r6, [pc, #260]	; (2c9c <Code_726+0x66>)
    2b96:	f000 faba 	bl	310e <Code_816>
    2b9a:	bd08      	pop	{r3, pc}
    2b9c:	3f04      	subs	r7, #4
    2b9e:	603e      	str	r6, [r7, #0]
    2ba0:	2606      	movs	r6, #6
    2ba2:	f7ff ff1d 	bl	29e0 <Code_672>
    2ba6:	bd08      	pop	{r3, pc}

00002ba8 <Dictionary_717>:
    2ba8:	00002bd0 	ldrdeq	r2, [r0], -r0
    2bac:	63060000 	movwvs	r0, #24576	; 0x6000
    2bb0:	74616572 	strbtvc	r6, [r1], #-1394	; 0x572
    2bb4:	b5000065 	strlt	r0, [r0, #-101]	; 0x65

00002bb6 <Code_717>:
    2bb6:	b500      	push	{lr}
    2bb8:	f000 f83d 	bl	2c36 <Code_726>
    2bbc:	202b      	movs	r0, #43	; 0x2b
    2bbe:	0200      	lsls	r0, r0, #8
    2bc0:	30ef      	adds	r0, #239	; 0xef
    2bc2:	4780      	blx	r0
    2bc4:	3f04      	subs	r7, #4
    2bc6:	603e      	str	r6, [r7, #0]
    2bc8:	4676      	mov	r6, lr
    2bca:	3e01      	subs	r6, #1
    2bcc:	bd00      	pop	{pc}
    2bce:	46c0      	nop			; (mov r8, r8)

00002bd0 <Dictionary_719>:
    2bd0:	00002c28 	andeq	r2, r0, r8, lsr #24
    2bd4:	64050020 	strvs	r0, [r5], #-32
    2bd8:	3e73656f 	cdpcc	5, 7, cr6, cr3, cr15, {3}

00002bdc <Code_719>:
    2bdc:	202b      	movs	r0, #43	; 0x2b
    2bde:	0200      	lsls	r0, r0, #8
    2be0:	30ef      	adds	r0, #239	; 0xef
    2be2:	4780      	blx	r0
    2be4:	3f04      	subs	r7, #4
    2be6:	603e      	str	r6, [r7, #0]
    2be8:	4676      	mov	r6, lr
    2bea:	3e01      	subs	r6, #1
    2bec:	4770      	bx	lr

00002bee <dodoes>:
    2bee:	3f04      	subs	r7, #4
    2bf0:	603e      	str	r6, [r7, #0]
    2bf2:	4676      	mov	r6, lr
    2bf4:	3e01      	subs	r6, #1
    2bf6:	4a2a      	ldr	r2, [pc, #168]	; (2ca0 <Code_726+0x6a>)
    2bf8:	6813      	ldr	r3, [r2, #0]
    2bfa:	492a      	ldr	r1, [pc, #168]	; (2ca4 <Code_726+0x6e>)
    2bfc:	6809      	ldr	r1, [r1, #0]
    2bfe:	2002      	movs	r0, #2
    2c00:	4008      	ands	r0, r1
    2c02:	d100      	bne.n	2c06 <dodoes+0x18>
    2c04:	3102      	adds	r1, #2
    2c06:	3102      	adds	r1, #2
    2c08:	6011      	str	r1, [r2, #0]
    2c0a:	3601      	adds	r6, #1
    2c0c:	3f04      	subs	r7, #4
    2c0e:	603e      	str	r6, [r7, #0]
    2c10:	2600      	movs	r6, #0
    2c12:	f7ff ff21 	bl	2a58 <registerliteralkommalang>
    2c16:	3f04      	subs	r7, #4
    2c18:	603e      	str	r6, [r7, #0]
    2c1a:	4e19      	ldr	r6, [pc, #100]	; (2c80 <Code_726+0x4a>)
    2c1c:	f000 fa77 	bl	310e <Code_816>
    2c20:	6013      	str	r3, [r2, #0]
    2c22:	f000 f9e0 	bl	2fe6 <Code_802>
    2c26:	bd00      	pop	{pc}

00002c28 <Dictionary_726>:
    2c28:	00002cac 	andeq	r2, r0, ip, lsr #25
    2c2c:	3c070000 	stccc	0, cr0, [r7], {-0}
    2c30:	6c697562 	cfstr64vs	mvdx7, [r9], #-392	; 0xfffffe78
    2c34:	b5007364 	strlt	r7, [r0, #-868]	; 0x364

00002c36 <Code_726>:
    2c36:	b500      	push	{lr}
    2c38:	f000 fb6e 	bl	3318 <Code_847>
    2c3c:	f000 fdbe 	bl	37bc <Code_932>
    2c40:	2002      	movs	r0, #2
    2c42:	4006      	ands	r6, r0
    2c44:	cf40      	ldmia	r7!, {r6}
    2c46:	d104      	bne.n	2c52 <Code_726+0x1c>
    2c48:	3f04      	subs	r7, #4
    2c4a:	603e      	str	r6, [r7, #0]
    2c4c:	2636      	movs	r6, #54	; 0x36
    2c4e:	f000 fa5e 	bl	310e <Code_816>
    2c52:	3f04      	subs	r7, #4
    2c54:	603e      	str	r6, [r7, #0]
    2c56:	4e14      	ldr	r6, [pc, #80]	; (2ca8 <Code_726+0x72>)
    2c58:	f000 fa59 	bl	310e <Code_816>
    2c5c:	3f04      	subs	r7, #4
    2c5e:	603e      	str	r6, [r7, #0]
    2c60:	2610      	movs	r6, #16
    2c62:	f000 fac1 	bl	31e8 <Code_836>
    2c66:	bd00      	pop	{pc}
    2c68:	00002000 	andeq	r2, r0, r0
    2c6c:	00001000 	andeq	r1, r0, r0
    2c70:	00000200 	andeq	r0, r0, r0, lsl #4
    2c74:	00003000 	andeq	r3, r0, r0
    2c78:	ffc00001 			; <UNDEFINED> instruction: 0xffc00001
    2c7c:	ffc00000 			; <UNDEFINED> instruction: 0xffc00000
    2c80:	00004780 	andeq	r4, r0, r0, lsl #15
    2c84:	f000f800 			; <UNDEFINED> instruction: 0xf000f800
    2c88:	000007ff 	strdeq	r0, [r0], -pc	; <UNPREDICTABLE>
    2c8c:	000003ff 	strdeq	r0, [r0], -pc	; <UNPREDICTABLE>
    2c90:	00003f04 	andeq	r3, r0, r4, lsl #30
    2c94:	0000603e 	andeq	r6, r0, lr, lsr r0
    2c98:	ffff0000 			; <UNDEFINED> instruction: 0xffff0000
    2c9c:	000043f6 	strdeq	r4, [r0], -r6
    2ca0:	1ffff000 	svcne	0x00fff000
    2ca4:	1ffff014 	svcne	0x00fff014
    2ca8:	0000b500 	andeq	fp, r0, r0, lsl #10

00002cac <Dictionary_734>:
    2cac:	00002cb8 			; <UNDEFINED> instruction: 0x00002cb8
    2cb0:	5b030050 	blpl	c2df8 <BIT19+0x42df8>
    2cb4:	e0035d27 	and	r5, r3, r7, lsr #26

00002cb6 <Code_734>:
    2cb6:	e003      	b.n	2cc0 <Code_735>

00002cb8 <Dictionary_735>:
    2cb8:	00002cd0 	ldrdeq	r2, [r0], -r0
    2cbc:	27010000 	strcs	r0, [r1, -r0]

00002cc0 <Code_735>:
    2cc0:	b500      	push	{lr}
    2cc2:	f001 f8dd 	bl	3e80 <Code_1092>
    2cc6:	f000 fd14 	bl	36f2 <find_not_found>
    2cca:	0030      	movs	r0, r6
    2ccc:	cf40      	ldmia	r7!, {r6}
    2cce:	bd00      	pop	{pc}

00002cd0 <Dictionary_737>:
    2cd0:	00002d10 	andeq	r2, r0, r0, lsl sp
    2cd4:	70080010 	andvc	r0, r8, r0, lsl r0
    2cd8:	7074736f 	rsbsvc	r7, r4, pc, ror #6
    2cdc:	00656e6f 	rsbeq	r6, r5, pc, ror #28

00002ce0 <Code_737>:
    2ce0:	b500      	push	{lr}
    2ce2:	f7ff ffed 	bl	2cc0 <Code_735>
    2ce6:	2110      	movs	r1, #16
    2ce8:	4001      	ands	r1, r0
    2cea:	d10d      	bne.n	2d08 <Code_737+0x28>
    2cec:	2120      	movs	r1, #32
    2cee:	4001      	ands	r1, r0
    2cf0:	d005      	beq.n	2cfe <Code_737+0x1e>
    2cf2:	f7ff ff37 	bl	2b64 <Code_706>
    2cf6:	3f04      	subs	r7, #4
    2cf8:	603e      	str	r6, [r7, #0]
    2cfa:	4ee0      	ldr	r6, [pc, #896]	; (307c <setflags_ram+0x1c>)
    2cfc:	e004      	b.n	2d08 <Code_737+0x28>
    2cfe:	f7ff ff31 	bl	2b64 <Code_706>
    2d02:	3f04      	subs	r7, #4
    2d04:	603e      	str	r6, [r7, #0]
    2d06:	4ede      	ldr	r6, [pc, #888]	; (3080 <setflags_ram+0x20>)
    2d08:	f7ff fef2 	bl	2af0 <Code_697>
    2d0c:	bd00      	pop	{pc}
    2d0e:	46c0      	nop			; (mov r8, r8)

00002d10 <Dictionary_740>:
    2d10:	00002d5c 	andeq	r2, r0, ip, asr sp
    2d14:	69070000 	stmdbvs	r7, {}	; <UNPREDICTABLE>
    2d18:	6e696c6e 	cdpvs	12, 6, cr6, cr9, cr14, {3}
    2d1c:	b5002c65 	strlt	r2, [r0, #-3173]	; 0xc65

00002d1e <Code_740>:
    2d1e:	b500      	push	{lr}
    2d20:	49d8      	ldr	r1, [pc, #864]	; (3084 <setflags_ram+0x24>)
    2d22:	4ad9      	ldr	r2, [pc, #868]	; (3088 <setflags_ram+0x28>)
    2d24:	4bd9      	ldr	r3, [pc, #868]	; (308c <setflags_ram+0x2c>)
    2d26:	8830      	ldrh	r0, [r6, #0]
    2d28:	4288      	cmp	r0, r1
    2d2a:	d008      	beq.n	2d3e <Code_740+0x20>
    2d2c:	4290      	cmp	r0, r2
    2d2e:	d008      	beq.n	2d42 <Code_740+0x24>
    2d30:	4298      	cmp	r0, r3
    2d32:	d006      	beq.n	2d42 <Code_740+0x24>
    2d34:	3f04      	subs	r7, #4
    2d36:	603e      	str	r6, [r7, #0]
    2d38:	0006      	movs	r6, r0
    2d3a:	f000 f9e8 	bl	310e <Code_816>
    2d3e:	3602      	adds	r6, #2
    2d40:	e7f1      	b.n	2d26 <Code_740+0x8>
    2d42:	cf40      	ldmia	r7!, {r6}
    2d44:	bd00      	pop	{pc}

00002d46 <suchedefinitionsende>:
    2d46:	b40e      	push	{r1, r2, r3}
    2d48:	4acf      	ldr	r2, [pc, #828]	; (3088 <setflags_ram+0x28>)
    2d4a:	4bd0      	ldr	r3, [pc, #832]	; (308c <setflags_ram+0x2c>)
    2d4c:	8801      	ldrh	r1, [r0, #0]
    2d4e:	3002      	adds	r0, #2
    2d50:	4291      	cmp	r1, r2
    2d52:	d001      	beq.n	2d58 <suchedefinitionsende+0x12>
    2d54:	4299      	cmp	r1, r3
    2d56:	d1f9      	bne.n	2d4c <suchedefinitionsende+0x6>
    2d58:	bc0e      	pop	{r1, r2, r3}
    2d5a:	4770      	bx	lr

00002d5c <Dictionary_744>:
    2d5c:	00002d70 	andeq	r2, r0, r0, ror sp
    2d60:	72040000 	andvc	r0, r4, #0
    2d64:	002c7465 	eoreq	r7, ip, r5, ror #8

00002d68 <Code_744>:
    2d68:	3f04      	subs	r7, #4
    2d6a:	603e      	str	r6, [r7, #0]
    2d6c:	4ec6      	ldr	r6, [pc, #792]	; (3088 <setflags_ram+0x28>)
    2d6e:	e1ce      	b.n	310e <Code_816>

00002d70 <Dictionary_747>:
    2d70:	00002d80 	andeq	r2, r0, r0, lsl #27
    2d74:	65040030 	strvs	r0, [r4, #-48]	; 0x30
    2d78:	00746978 	rsbseq	r6, r4, r8, ror r9

00002d7c <Code_747>:
    2d7c:	e7f4      	b.n	2d68 <Code_744>
    2d7e:	46c0      	nop			; (mov r8, r8)

00002d80 <Dictionary_748>:
    2d80:	00002d98 	muleq	r0, r8, sp
    2d84:	72070030 	andvc	r0, r7, #48	; 0x30
    2d88:	72756365 	rsbsvc	r6, r5, #-1811939327	; 0x94000001
    2d8c:	3f046573 	svccc	0x00046573

00002d8e <Code_748>:
    2d8e:	3f04      	subs	r7, #4
    2d90:	603e      	str	r6, [r7, #0]
    2d92:	4ebf      	ldr	r6, [pc, #764]	; (3090 <setflags_ram+0x30>)
    2d94:	6836      	ldr	r6, [r6, #0]
    2d96:	e6ab      	b.n	2af0 <Code_697>

00002d98 <Dictionary_750>:
    2d98:	00002db0 			; <UNDEFINED> instruction: 0x00002db0
    2d9c:	73050081 	movwvc	r0, #20609	; 0x5081
    2da0:	65746174 	ldrbvs	r6, [r4, #-372]!	; 0x174

00002da4 <Code_750>:
    2da4:	3f04      	subs	r7, #4
    2da6:	603e      	str	r6, [r7, #0]
    2da8:	4eba      	ldr	r6, [pc, #744]	; (3094 <setflags_ram+0x34>)
    2daa:	4770      	bx	lr
    2dac:	00000000 	andeq	r0, r0, r0

00002db0 <Dictionary_753>:
    2db0:	00002dc4 	andeq	r2, r0, r4, asr #27
    2db4:	5d010000 	stcpl	0, cr0, [r1, #-0]

00002db8 <Code_753>:
    2db8:	48b6      	ldr	r0, [pc, #728]	; (3094 <setflags_ram+0x34>)
    2dba:	2100      	movs	r1, #0
    2dbc:	43c9      	mvns	r1, r1
    2dbe:	6001      	str	r1, [r0, #0]
    2dc0:	4770      	bx	lr
    2dc2:	46c0      	nop			; (mov r8, r8)

00002dc4 <Dictionary_754>:
    2dc4:	00002dd4 	ldrdeq	r2, [r0], -r4
    2dc8:	5b010010 	blpl	42e10 <BIT18+0x2e10>

00002dcc <Code_754>:
    2dcc:	48b1      	ldr	r0, [pc, #708]	; (3094 <setflags_ram+0x34>)
    2dce:	2100      	movs	r1, #0
    2dd0:	6001      	str	r1, [r0, #0]
    2dd2:	4770      	bx	lr

00002dd4 <Dictionary_755>:
    2dd4:	00002dfc 	strdeq	r2, [r0], -ip
    2dd8:	3a010000 	bcc	42de0 <BIT18+0x2de0>

00002ddc <Code_755>:
    2ddc:	b500      	push	{lr}
    2dde:	48ae      	ldr	r0, [pc, #696]	; (3098 <setflags_ram+0x38>)
    2de0:	6007      	str	r7, [r0, #0]
    2de2:	f000 fa99 	bl	3318 <Code_847>
    2de6:	3f04      	subs	r7, #4
    2de8:	603e      	str	r6, [r7, #0]
    2dea:	4ea6      	ldr	r6, [pc, #664]	; (3084 <setflags_ram+0x24>)
    2dec:	f000 f98f 	bl	310e <Code_816>
    2df0:	48a8      	ldr	r0, [pc, #672]	; (3094 <setflags_ram+0x34>)
    2df2:	2100      	movs	r1, #0
    2df4:	43c9      	mvns	r1, r1
    2df6:	6001      	str	r1, [r0, #0]
    2df8:	bd00      	pop	{pc}
    2dfa:	46c0      	nop			; (mov r8, r8)

00002dfc <Dictionary_758>:
    2dfc:	00002e44 	andeq	r2, r0, r4, asr #28
    2e00:	3b010030 	blcc	42ec8 <BIT18+0x2ec8>

00002e04 <Code_758>:
    2e04:	b500      	push	{lr}
    2e06:	48a4      	ldr	r0, [pc, #656]	; (3098 <setflags_ram+0x38>)
    2e08:	6801      	ldr	r1, [r0, #0]
    2e0a:	42b9      	cmp	r1, r7
    2e0c:	d00e      	beq.n	2e2c <Code_758+0x28>
    2e0e:	f7ff fc95 	bl	273c <dotgaensefuesschen>
    2e12:	74532015 	ldrbvc	r2, [r3], #-21
    2e16:	206b6361 	rsbcs	r6, fp, r1, ror #6
    2e1a:	20746f6e 	rsbscs	r6, r4, lr, ror #30
    2e1e:	616c6162 	cmnvs	ip, r2, ror #2
    2e22:	6465636e 	strbtvs	r6, [r5], #-878	; 0x36e
    2e26:	f0010a2e 			; <UNDEFINED> instruction: 0xf0010a2e
    2e2a:	fb12 3f04 	smlabb	pc, r2, r4, r3
    2e2e:	603e      	str	r6, [r7, #0]
    2e30:	4e95      	ldr	r6, [pc, #596]	; (3088 <setflags_ram+0x28>)
    2e32:	f000 f96c 	bl	310e <Code_816>
    2e36:	f000 f8d6 	bl	2fe6 <Code_802>
    2e3a:	4896      	ldr	r0, [pc, #600]	; (3094 <setflags_ram+0x34>)
    2e3c:	2100      	movs	r1, #0
    2e3e:	6001      	str	r1, [r0, #0]
    2e40:	bd00      	pop	{pc}
    2e42:	46c0      	nop			; (mov r8, r8)

00002e44 <Dictionary_762>:
    2e44:	00002e58 	andeq	r2, r0, r8, asr lr
    2e48:	65070000 	strvs	r0, [r7, #-0]
    2e4c:	75636578 	strbvc	r6, [r3, #-1400]!	; 0x578
    2e50:	00306574 	eorseq	r6, r0, r4, ror r5

00002e52 <Code_762>:
    2e52:	0030      	movs	r0, r6
    2e54:	cf40      	ldmia	r7!, {r6}
    2e56:	4687      	mov	pc, r0

00002e58 <Dictionary_764>:
    2e58:	00002e70 	andeq	r2, r0, r0, ror lr
    2e5c:	69090010 	stmdbvs	r9, {r4}
    2e60:	64656d6d 	strbtvs	r6, [r5], #-3437	; 0xd6d
    2e64:	65746169 	ldrbvs	r6, [r4, #-361]!	; 0x169

00002e68 <Code_764>:
    2e68:	3f04      	subs	r7, #4
    2e6a:	603e      	str	r6, [r7, #0]
    2e6c:	2610      	movs	r6, #16
    2e6e:	e0eb      	b.n	3048 <Code_808>

00002e70 <Dictionary_767>:
    2e70:	00002e88 	andeq	r2, r0, r8, lsl #29
    2e74:	69060010 	stmdbvs	r6, {r4}
    2e78:	6e696c6e 	cdpvs	12, 6, cr6, cr9, cr14, {3}
    2e7c:	3f040065 	svccc	0x00040065

00002e7e <Code_767>:
    2e7e:	3f04      	subs	r7, #4
    2e80:	603e      	str	r6, [r7, #0]
    2e82:	2620      	movs	r6, #32
    2e84:	e0e0      	b.n	3048 <Code_808>
    2e86:	46c0      	nop			; (mov r8, r8)

00002e88 <Dictionary_770>:
    2e88:	00002ea4 	andeq	r2, r0, r4, lsr #29
    2e8c:	630b0010 	movwvs	r0, #45072	; 0xb010
    2e90:	69706d6f 	ldmdbvs	r0!, {r0, r1, r2, r3, r5, r6, r8, sl, fp, sp, lr}^
    2e94:	6e6f656c 	cdpvs	5, 6, cr6, cr15, cr12, {3}
    2e98:	3f04796c 	svccc	0x0004796c

00002e9a <Code_770>:
    2e9a:	3f04      	subs	r7, #4
    2e9c:	603e      	str	r6, [r7, #0]
    2e9e:	2630      	movs	r6, #48	; 0x30
    2ea0:	e0d2      	b.n	3048 <Code_808>
    2ea2:	46c0      	nop			; (mov r8, r8)

00002ea4 <Dictionary_773>:
    2ea4:	00002ec0 	andeq	r2, r0, r0, asr #29
    2ea8:	300a0010 	andcc	r0, sl, r0, lsl r0
    2eac:	6c6f662d 	stclvs	6, cr6, [pc], #-180	; 2e00 <Dictionary_758+0x4>
    2eb0:	6c626164 	stfvse	f6, [r2], #-400	; 0xfffffe70
    2eb4:	3f040065 	svccc	0x00040065

00002eb6 <Code_773>:
    2eb6:	3f04      	subs	r7, #4
    2eb8:	603e      	str	r6, [r7, #0]
    2eba:	2640      	movs	r6, #64	; 0x40
    2ebc:	e0c4      	b.n	3048 <Code_808>
    2ebe:	46c0      	nop			; (mov r8, r8)

00002ec0 <Dictionary_776>:
    2ec0:	00002edc 	ldrdeq	r2, [r0], -ip
    2ec4:	310a0010 	tstcc	sl, r0, lsl r0
    2ec8:	6c6f662d 	stclvs	6, cr6, [pc], #-180	; 2e1c <Code_758+0x18>
    2ecc:	6c626164 	stfvse	f6, [r2], #-400	; 0xfffffe70
    2ed0:	3f040065 	svccc	0x00040065

00002ed2 <Code_776>:
    2ed2:	3f04      	subs	r7, #4
    2ed4:	603e      	str	r6, [r7, #0]
    2ed6:	2641      	movs	r6, #65	; 0x41
    2ed8:	e0b6      	b.n	3048 <Code_808>
    2eda:	46c0      	nop			; (mov r8, r8)

00002edc <Dictionary_779>:
    2edc:	00002ef8 	strdeq	r2, [r0], -r8
    2ee0:	320a0010 	andcc	r0, sl, #16
    2ee4:	6c6f662d 	stclvs	6, cr6, [pc], #-180	; 2e38 <Code_758+0x34>
    2ee8:	6c626164 	stfvse	f6, [r2], #-400	; 0xfffffe70
    2eec:	3f040065 	svccc	0x00040065

00002eee <Code_779>:
    2eee:	3f04      	subs	r7, #4
    2ef0:	603e      	str	r6, [r7, #0]
    2ef2:	2642      	movs	r6, #66	; 0x42
    2ef4:	e0a8      	b.n	3048 <Code_808>
    2ef6:	46c0      	nop			; (mov r8, r8)

00002ef8 <Dictionary_782>:
    2ef8:	00002f14 	andeq	r2, r0, r4, lsl pc
    2efc:	330a0010 	movwcc	r0, #40976	; 0xa010
    2f00:	6c6f662d 	stclvs	6, cr6, [pc], #-180	; 2e54 <Code_762+0x2>
    2f04:	6c626164 	stfvse	f6, [r2], #-400	; 0xfffffe70
    2f08:	3f040065 	svccc	0x00040065

00002f0a <Code_782>:
    2f0a:	3f04      	subs	r7, #4
    2f0c:	603e      	str	r6, [r7, #0]
    2f0e:	2643      	movs	r6, #67	; 0x43
    2f10:	e09a      	b.n	3048 <Code_808>
    2f12:	46c0      	nop			; (mov r8, r8)

00002f14 <Dictionary_785>:
    2f14:	00002f30 	andeq	r2, r0, r0, lsr pc
    2f18:	340a0010 	strcc	r0, [sl], #-16
    2f1c:	6c6f662d 	stclvs	6, cr6, [pc], #-180	; 2e70 <Dictionary_767>
    2f20:	6c626164 	stfvse	f6, [r2], #-400	; 0xfffffe70
    2f24:	3f040065 	svccc	0x00040065

00002f26 <Code_785>:
    2f26:	3f04      	subs	r7, #4
    2f28:	603e      	str	r6, [r7, #0]
    2f2a:	2644      	movs	r6, #68	; 0x44
    2f2c:	e08c      	b.n	3048 <Code_808>
    2f2e:	46c0      	nop			; (mov r8, r8)

00002f30 <Dictionary_788>:
    2f30:	00002f4c 	andeq	r2, r0, ip, asr #30
    2f34:	350a0010 	strcc	r0, [sl, #-16]
    2f38:	6c6f662d 	stclvs	6, cr6, [pc], #-180	; 2e8c <Dictionary_770+0x4>
    2f3c:	6c626164 	stfvse	f6, [r2], #-400	; 0xfffffe70
    2f40:	3f040065 	svccc	0x00040065

00002f42 <Code_788>:
    2f42:	3f04      	subs	r7, #4
    2f44:	603e      	str	r6, [r7, #0]
    2f46:	2645      	movs	r6, #69	; 0x45
    2f48:	e07e      	b.n	3048 <Code_808>
    2f4a:	46c0      	nop			; (mov r8, r8)

00002f4c <Dictionary_791>:
    2f4c:	00002f68 	andeq	r2, r0, r8, ror #30
    2f50:	360a0010 			; <UNDEFINED> instruction: 0x360a0010
    2f54:	6c6f662d 	stclvs	6, cr6, [pc], #-180	; 2ea8 <Dictionary_773+0x4>
    2f58:	6c626164 	stfvse	f6, [r2], #-400	; 0xfffffe70
    2f5c:	3f040065 	svccc	0x00040065

00002f5e <Code_791>:
    2f5e:	3f04      	subs	r7, #4
    2f60:	603e      	str	r6, [r7, #0]
    2f62:	2646      	movs	r6, #70	; 0x46
    2f64:	e070      	b.n	3048 <Code_808>
    2f66:	46c0      	nop			; (mov r8, r8)

00002f68 <Dictionary_794>:
    2f68:	00002f84 	andeq	r2, r0, r4, lsl #31
    2f6c:	370a0010 	smladcc	sl, r0, r0, r0
    2f70:	6c6f662d 	stclvs	6, cr6, [pc], #-180	; 2ec4 <Dictionary_776+0x4>
    2f74:	6c626164 	stfvse	f6, [r2], #-400	; 0xfffffe70
    2f78:	3f040065 	svccc	0x00040065

00002f7a <Code_794>:
    2f7a:	3f04      	subs	r7, #4
    2f7c:	603e      	str	r6, [r7, #0]
    2f7e:	2647      	movs	r6, #71	; 0x47
    2f80:	e062      	b.n	3048 <Code_808>
    2f82:	46c0      	nop			; (mov r8, r8)

00002f84 <Dictionary_797>:
    2f84:	00002fb4 			; <UNDEFINED> instruction: 0x00002fb4
    2f88:	63080000 	movwvs	r0, #32768	; 0x8000
    2f8c:	74736e6f 	ldrbtvc	r6, [r3], #-3695	; 0xe6f
    2f90:	00746e61 	rsbseq	r6, r4, r1, ror #28

00002f94 <Code_797>:
    2f94:	b500      	push	{lr}
    2f96:	f000 f9bf 	bl	3318 <Code_847>
    2f9a:	f7ff fde3 	bl	2b64 <Code_706>
    2f9e:	3f04      	subs	r7, #4
    2fa0:	603e      	str	r6, [r7, #0]
    2fa2:	4e3a      	ldr	r6, [pc, #232]	; (308c <setflags_ram+0x2c>)
    2fa4:	f000 f8b3 	bl	310e <Code_816>
    2fa8:	f7ff ff85 	bl	2eb6 <Code_773>
    2fac:	f000 f81b 	bl	2fe6 <Code_802>
    2fb0:	bd00      	pop	{pc}
    2fb2:	46c0      	nop			; (mov r8, r8)

00002fb4 <Dictionary_800>:
    2fb4:	00002fd8 	ldrdeq	r2, [r0], -r8
    2fb8:	32090000 	andcc	r0, r9, #0
    2fbc:	736e6f63 	cmnvc	lr, #396	; 0x18c
    2fc0:	746e6174 	strbtvc	r6, [lr], #-372	; 0x174

00002fc4 <Code_800>:
    2fc4:	b500      	push	{lr}
    2fc6:	f000 f9a7 	bl	3318 <Code_847>
    2fca:	6839      	ldr	r1, [r7, #0]
    2fcc:	603e      	str	r6, [r7, #0]
    2fce:	460e      	mov	r6, r1
    2fd0:	f7ff fdc8 	bl	2b64 <Code_706>
    2fd4:	e7e1      	b.n	2f9a <Code_797+0x6>
    2fd6:	46c0      	nop			; (mov r8, r8)

00002fd8 <Dictionary_802>:
    2fd8:	00003038 	andeq	r3, r0, r8, lsr r0
    2fdc:	73060000 	movwvc	r0, #24576	; 0x6000
    2fe0:	6764756d 	strbvs	r7, [r4, -sp, ror #10]!
    2fe4:	b5000065 	strlt	r0, [r0, #-101]	; 0x65

00002fe6 <Code_802>:
    2fe6:	b500      	push	{lr}
    2fe8:	482c      	ldr	r0, [pc, #176]	; (309c <setflags_ram+0x3c>)
    2fea:	6801      	ldr	r1, [r0, #0]
    2fec:	4a2b      	ldr	r2, [pc, #172]	; (309c <setflags_ram+0x3c>)
    2fee:	4291      	cmp	r1, r2
    2ff0:	d21c      	bcs.n	302c <smudge_ram>
    2ff2:	3902      	subs	r1, #2
    2ff4:	880a      	ldrh	r2, [r1, #0]
    2ff6:	4b2a      	ldr	r3, [pc, #168]	; (30a0 <setflags_ram+0x40>)
    2ff8:	429a      	cmp	r2, r3
    2ffa:	d104      	bne.n	3006 <Code_802+0x20>
    2ffc:	3f04      	subs	r7, #4
    2ffe:	603e      	str	r6, [r7, #0]
    3000:	4e28      	ldr	r6, [pc, #160]	; (30a4 <setflags_ram+0x44>)
    3002:	f000 f884 	bl	310e <Code_816>
    3006:	f000 f870 	bl	30ea <Code_813>
    300a:	4827      	ldr	r0, [pc, #156]	; (30a8 <setflags_ram+0x48>)
    300c:	6800      	ldr	r0, [r0, #0]
    300e:	3f04      	subs	r7, #4
    3010:	603e      	str	r6, [r7, #0]
    3012:	0006      	movs	r6, r0
    3014:	4925      	ldr	r1, [pc, #148]	; (30ac <setflags_ram+0x4c>)
    3016:	6809      	ldr	r1, [r1, #0]
    3018:	3104      	adds	r1, #4
    301a:	4a20      	ldr	r2, [pc, #128]	; (309c <setflags_ram+0x3c>)
    301c:	6813      	ldr	r3, [r2, #0]
    301e:	6011      	str	r1, [r2, #0]
    3020:	f000 f875 	bl	310e <Code_816>
    3024:	6013      	str	r3, [r2, #0]
    3026:	f7fe febf 	bl	1da8 <sammeltabelleleerprobe>
    302a:	bd00      	pop	{pc}

0000302c <smudge_ram>:
    302c:	f000 f85d 	bl	30ea <Code_813>
    3030:	3f04      	subs	r7, #4
    3032:	603e      	str	r6, [r7, #0]
    3034:	2600      	movs	r6, #0
    3036:	e008      	b.n	304a <setflags_intern>

00003038 <Dictionary_808>:
    3038:	000030b0 	strheq	r3, [r0], -r0
    303c:	73080000 	movwvc	r0, #32768	; 0x8000
    3040:	6c667465 	cfstrdvs	mvd7, [r6], #-404	; 0xfffffe6c
    3044:	00736761 	rsbseq	r6, r3, r1, ror #14

00003048 <Code_808>:
    3048:	b500      	push	{lr}

0000304a <setflags_intern>:
    304a:	4814      	ldr	r0, [pc, #80]	; (309c <setflags_ram+0x3c>)
    304c:	6801      	ldr	r1, [r0, #0]
    304e:	4a13      	ldr	r2, [pc, #76]	; (309c <setflags_ram+0x3c>)
    3050:	4291      	cmp	r1, r2
    3052:	d205      	bcs.n	3060 <setflags_ram>
    3054:	4814      	ldr	r0, [pc, #80]	; (30a8 <setflags_ram+0x48>)
    3056:	6801      	ldr	r1, [r0, #0]
    3058:	4331      	orrs	r1, r6
    305a:	6001      	str	r1, [r0, #0]
    305c:	cf40      	ldmia	r7!, {r6}
    305e:	bd00      	pop	{pc}

00003060 <setflags_ram>:
    3060:	0032      	movs	r2, r6
    3062:	cf40      	ldmia	r7!, {r6}
    3064:	4811      	ldr	r0, [pc, #68]	; (30ac <setflags_ram+0x4c>)
    3066:	6800      	ldr	r0, [r0, #0]
    3068:	3004      	adds	r0, #4
    306a:	8801      	ldrh	r1, [r0, #0]
    306c:	4b0c      	ldr	r3, [pc, #48]	; (30a0 <setflags_ram+0x40>)
    306e:	4299      	cmp	r1, r3
    3070:	d101      	bne.n	3076 <setflags_ram+0x16>
    3072:	0011      	movs	r1, r2
    3074:	e000      	b.n	3078 <setflags_ram+0x18>
    3076:	4311      	orrs	r1, r2
    3078:	8001      	strh	r1, [r0, #0]
    307a:	bd00      	pop	{pc}
    307c:	00002d1e 	andeq	r2, r0, lr, lsl sp
    3080:	00002af0 	strdeq	r2, [r0], -r0
    3084:	0000b500 	andeq	fp, r0, r0, lsl #10
    3088:	0000bd00 	andeq	fp, r0, r0, lsl #26
    308c:	00004770 	andeq	r4, r0, r0, ror r7
    3090:	1ffff014 	svcne	0x00fff014
    3094:	20002fd8 	ldrdcs	r2, [r0], -r8
    3098:	1ffff010 	svcne	0x00fff010
    309c:	1ffff000 	svcne	0x00fff000
    30a0:	0000ffff 	strdeq	pc, [r0], -pc	; <UNPREDICTABLE>
    30a4:	00000000 	andeq	r0, r0, r0
    30a8:	1ffff020 	svcne	0x00fff020
    30ac:	1ffff004 	svcne	0x00fff004

000030b0 <Dictionary_811>:
    30b0:	000030c0 	andeq	r3, r0, r0, asr #1
    30b4:	61050000 	mrsvs	r0, (UNDEF: 5)
    30b8:	6e67696c 	cdpvs	9, 6, cr6, cr7, cr12, {3}

000030bc <Code_811>:
    30bc:	e015      	b.n	30ea <Code_813>
    30be:	46c0      	nop			; (mov r8, r8)

000030c0 <Dictionary_812>:
    30c0:	000030dc 	ldrdeq	r3, [r0], -ip
    30c4:	61070041 	tstvs	r7, r1, asr #32
    30c8:	6e67696c 	cdpvs	9, 6, cr6, cr7, cr12, {3}
    30cc:	20016465 	andcs	r6, r1, r5, ror #8

000030ce <Code_812>:
    30ce:	2001      	movs	r0, #1
    30d0:	4030      	ands	r0, r6
    30d2:	1836      	adds	r6, r6, r0
    30d4:	2002      	movs	r0, #2
    30d6:	4030      	ands	r0, r6
    30d8:	1836      	adds	r6, r6, r0
    30da:	4770      	bx	lr

000030dc <Dictionary_813>:
    30dc:	00003104 	andeq	r3, r0, r4, lsl #2
    30e0:	61070000 	mrsvs	r0, (UNDEF: 7)
    30e4:	6e67696c 	cdpvs	9, 6, cr6, cr7, cr12, {3}
    30e8:	b5002c34 	strlt	r2, [r0, #-3124]	; 0xc34

000030ea <Code_813>:
    30ea:	b500      	push	{lr}
    30ec:	4880      	ldr	r0, [pc, #512]	; (32f0 <Zweitpointertausch+0x4e>)
    30ee:	6801      	ldr	r1, [r0, #0]
    30f0:	2002      	movs	r0, #2
    30f2:	4001      	ands	r1, r0
    30f4:	d004      	beq.n	3100 <Code_813+0x16>
    30f6:	3f04      	subs	r7, #4
    30f8:	603e      	str	r6, [r7, #0]
    30fa:	2600      	movs	r6, #0
    30fc:	f000 f807 	bl	310e <Code_816>
    3100:	bd00      	pop	{pc}
    3102:	46c0      	nop			; (mov r8, r8)

00003104 <Dictionary_816>:
    3104:	0000313c 	andeq	r3, r0, ip, lsr r1
    3108:	68020000 	stmdavs	r2, {}	; <UNPREDICTABLE>
    310c:	b50f002c 	strlt	r0, [pc, #-44]	; 30e8 <Dictionary_813+0xc>

0000310e <Code_816>:
    310e:	b50f      	push	{r0, r1, r2, r3, lr}
    3110:	b2b6      	uxth	r6, r6
    3112:	4877      	ldr	r0, [pc, #476]	; (32f0 <Zweitpointertausch+0x4e>)
    3114:	6801      	ldr	r1, [r0, #0]
    3116:	4a76      	ldr	r2, [pc, #472]	; (32f0 <Zweitpointertausch+0x4e>)
    3118:	4291      	cmp	r1, r2
    311a:	d205      	bcs.n	3128 <hkomma_ram>
    311c:	3f04      	subs	r7, #4
    311e:	603e      	str	r6, [r7, #0]
    3120:	000e      	movs	r6, r1
    3122:	f7fe fe64 	bl	1dee <Code_445>
    3126:	e002      	b.n	312e <hkomma_fertig>

00003128 <hkomma_ram>:
    3128:	0032      	movs	r2, r6
    312a:	cf40      	ldmia	r7!, {r6}
    312c:	800a      	strh	r2, [r1, #0]

0000312e <hkomma_fertig>:
    312e:	3f04      	subs	r7, #4
    3130:	603e      	str	r6, [r7, #0]
    3132:	2602      	movs	r6, #2
    3134:	f000 f858 	bl	31e8 <Code_836>
    3138:	bd0f      	pop	{r0, r1, r2, r3, pc}
    313a:	46c0      	nop			; (mov r8, r8)

0000313c <Dictionary_822>:
    313c:	00003158 	andeq	r3, r0, r8, asr r1
    3140:	2c010000 	stccs	0, cr0, [r1], {-0}

00003144 <Code_822>:
    3144:	b500      	push	{lr}
    3146:	3f04      	subs	r7, #4
    3148:	603e      	str	r6, [r7, #0]
    314a:	f7ff ffe0 	bl	310e <Code_816>
    314e:	0c36      	lsrs	r6, r6, #16
    3150:	f7ff ffdd 	bl	310e <Code_816>
    3154:	bd00      	pop	{pc}
    3156:	46c0      	nop			; (mov r8, r8)

00003158 <Dictionary_825>:
    3158:	00003174 	andeq	r3, r0, r4, ror r1
    315c:	3e030000 	cdpcc	0, 0, cr0, cr3, cr0, {0}
    3160:	b5002c3c 	strlt	r2, [r0, #-3132]	; 0xc3c

00003162 <Code_825>:
    3162:	b500      	push	{lr}
    3164:	3f04      	subs	r7, #4
    3166:	603e      	str	r6, [r7, #0]
    3168:	0c36      	lsrs	r6, r6, #16
    316a:	f7ff ffd0 	bl	310e <Code_816>
    316e:	f7ff ffce 	bl	310e <Code_816>
    3172:	bd00      	pop	{pc}

00003174 <Dictionary_828>:
    3174:	000031dc 	ldrdeq	r3, [r0], -ip
    3178:	73070000 	movwvc	r0, #28672	; 0x7000
    317c:	6e697274 	mcrvs	2, 3, r7, cr9, cr4, {3}
    3180:	b5072c67 	strlt	r2, [r7, #-3175]	; 0xc67

00003182 <Code_828>:
    3182:	b507      	push	{r0, r1, r2, lr}
    3184:	21ff      	movs	r1, #255	; 0xff
    3186:	4031      	ands	r1, r6
    3188:	cf40      	ldmia	r7!, {r6}
    318a:	0030      	movs	r0, r6
    318c:	cf40      	ldmia	r7!, {r6}
    318e:	2900      	cmp	r1, #0
    3190:	d105      	bne.n	319e <Code_828+0x1c>
    3192:	3f04      	subs	r7, #4
    3194:	603e      	str	r6, [r7, #0]
    3196:	2600      	movs	r6, #0
    3198:	f7ff ffb9 	bl	310e <Code_816>
    319c:	bd07      	pop	{r0, r1, r2, pc}
    319e:	3f04      	subs	r7, #4
    31a0:	603e      	str	r6, [r7, #0]
    31a2:	7806      	ldrb	r6, [r0, #0]
    31a4:	0236      	lsls	r6, r6, #8
    31a6:	430e      	orrs	r6, r1
    31a8:	f7ff ffb1 	bl	310e <Code_816>
    31ac:	3001      	adds	r0, #1
    31ae:	3901      	subs	r1, #1
    31b0:	2902      	cmp	r1, #2
    31b2:	d30a      	bcc.n	31ca <Code_828+0x48>
    31b4:	3f04      	subs	r7, #4
    31b6:	603e      	str	r6, [r7, #0]
    31b8:	7846      	ldrb	r6, [r0, #1]
    31ba:	0236      	lsls	r6, r6, #8
    31bc:	7802      	ldrb	r2, [r0, #0]
    31be:	4316      	orrs	r6, r2
    31c0:	f7ff ffa5 	bl	310e <Code_816>
    31c4:	3002      	adds	r0, #2
    31c6:	3902      	subs	r1, #2
    31c8:	e7f2      	b.n	31b0 <Code_828+0x2e>
    31ca:	2900      	cmp	r1, #0
    31cc:	d100      	bne.n	31d0 <Code_828+0x4e>
    31ce:	bd07      	pop	{r0, r1, r2, pc}
    31d0:	3f04      	subs	r7, #4
    31d2:	603e      	str	r6, [r7, #0]
    31d4:	7806      	ldrb	r6, [r0, #0]
    31d6:	f7ff ff9a 	bl	310e <Code_816>
    31da:	bd07      	pop	{r0, r1, r2, pc}

000031dc <Dictionary_836>:
    31dc:	00003238 	andeq	r3, r0, r8, lsr r2
    31e0:	61050000 	mrsvs	r0, (UNDEF: 5)
    31e4:	746f6c6c 	strbtvc	r6, [pc], #-3180	; 31ec <Code_836+0x4>

000031e8 <Code_836>:
    31e8:	4841      	ldr	r0, [pc, #260]	; (32f0 <Zweitpointertausch+0x4e>)
    31ea:	6801      	ldr	r1, [r0, #0]
    31ec:	4a40      	ldr	r2, [pc, #256]	; (32f0 <Zweitpointertausch+0x4e>)
    31ee:	4291      	cmp	r1, r2
    31f0:	d20f      	bcs.n	3212 <allot_ram>
    31f2:	0032      	movs	r2, r6
    31f4:	cf40      	ldmia	r7!, {r6}
    31f6:	1889      	adds	r1, r1, r2
    31f8:	4a3e      	ldr	r2, [pc, #248]	; (32f4 <Zweitpointertausch+0x52>)
    31fa:	4291      	cmp	r1, r2
    31fc:	d319      	bcc.n	3232 <allot_ok>
    31fe:	f7ff fa9d 	bl	273c <dotgaensefuesschen>
    3202:	616c460b 	cmnvs	ip, fp, lsl #12
    3206:	66206873 			; <UNDEFINED> instruction: 0x66206873
    320a:	0a6c6c75 	beq	1b1e3e6 <BIT24+0xb1e3e6>
    320e:	f001 f91f 	bl	4450 <Code_1191>

00003212 <allot_ram>:
    3212:	0032      	movs	r2, r6
    3214:	cf40      	ldmia	r7!, {r6}
    3216:	1889      	adds	r1, r1, r2
    3218:	4a37      	ldr	r2, [pc, #220]	; (32f8 <Zweitpointertausch+0x56>)
    321a:	6812      	ldr	r2, [r2, #0]
    321c:	4291      	cmp	r1, r2
    321e:	d308      	bcc.n	3232 <allot_ok>
    3220:	f7ff fa8c 	bl	273c <dotgaensefuesschen>
    3224:	6d615209 	sfmvs	f5, 2, [r1, #-36]!	; 0xffffffdc
    3228:	6c756620 	ldclvs	6, cr6, [r5], #-128	; 0xffffff80
    322c:	f0010a6c 			; <UNDEFINED> instruction: 0xf0010a6c
    3230:	f90f 6001 	vst4.8	{d6-d9}, [pc], r1

00003232 <allot_ok>:
    3232:	6001      	str	r1, [r0, #0]
    3234:	4770      	bx	lr
    3236:	46c0      	nop			; (mov r8, r8)

00003238 <Dictionary_841>:
    3238:	00003260 	andeq	r3, r0, r0, ror #4
    323c:	630d0000 	movwvs	r0, #53248	; 0xd000
    3240:	69706d6f 	ldmdbvs	r0!, {r0, r1, r2, r3, r5, r6, r8, sl, fp, sp, lr}^
    3244:	6f74656c 	svcvs	0x0074656c
    3248:	3f6d6172 	svccc	0x006d6172

0000324c <Code_841>:
    324c:	3f04      	subs	r7, #4
    324e:	603e      	str	r6, [r7, #0]
    3250:	2600      	movs	r6, #0
    3252:	4827      	ldr	r0, [pc, #156]	; (32f0 <Zweitpointertausch+0x4e>)
    3254:	6800      	ldr	r0, [r0, #0]
    3256:	4926      	ldr	r1, [pc, #152]	; (32f0 <Zweitpointertausch+0x4e>)
    3258:	4288      	cmp	r0, r1
    325a:	d348      	bcc.n	32ee <Zweitpointertausch+0x4c>
    325c:	43f6      	mvns	r6, r6
    325e:	4770      	bx	lr

00003260 <Dictionary_844>:
    3260:	00003280 	andeq	r3, r0, r0, lsl #5
    3264:	630c0000 	movwvs	r0, #49152	; 0xc000
    3268:	69706d6f 	ldmdbvs	r0!, {r0, r1, r2, r3, r5, r6, r8, sl, fp, sp, lr}^
    326c:	6f74656c 	svcvs	0x0074656c
    3270:	006d6172 	rsbeq	r6, sp, r2, ror r1

00003274 <Code_844>:
    3274:	481e      	ldr	r0, [pc, #120]	; (32f0 <Zweitpointertausch+0x4e>)
    3276:	6800      	ldr	r0, [r0, #0]
    3278:	491d      	ldr	r1, [pc, #116]	; (32f0 <Zweitpointertausch+0x4e>)
    327a:	4288      	cmp	r0, r1
    327c:	d311      	bcc.n	32a2 <Zweitpointertausch>
    327e:	4770      	bx	lr

00003280 <Dictionary_845>:
    3280:	00003308 	andeq	r3, r0, r8, lsl #6
    3284:	630e0000 	movwvs	r0, #57344	; 0xe000
    3288:	69706d6f 	ldmdbvs	r0!, {r0, r1, r2, r3, r5, r6, r8, sl, fp, sp, lr}^
    328c:	6f74656c 	svcvs	0x0074656c
    3290:	73616c66 	cmnvc	r1, #26112	; 0x6600
    3294:	48160068 	ldmdami	r6, {r3, r5, r6}

00003296 <Code_845>:
    3296:	4816      	ldr	r0, [pc, #88]	; (32f0 <Zweitpointertausch+0x4e>)
    3298:	6800      	ldr	r0, [r0, #0]
    329a:	4915      	ldr	r1, [pc, #84]	; (32f0 <Zweitpointertausch+0x4e>)
    329c:	4288      	cmp	r0, r1
    329e:	d200      	bcs.n	32a2 <Zweitpointertausch>
    32a0:	4770      	bx	lr

000032a2 <Zweitpointertausch>:
    32a2:	4816      	ldr	r0, [pc, #88]	; (32fc <Zweitpointertausch+0x5a>)
    32a4:	4916      	ldr	r1, [pc, #88]	; (3300 <Zweitpointertausch+0x5e>)
    32a6:	6802      	ldr	r2, [r0, #0]
    32a8:	680b      	ldr	r3, [r1, #0]
    32aa:	600a      	str	r2, [r1, #0]
    32ac:	6003      	str	r3, [r0, #0]
    32ae:	4810      	ldr	r0, [pc, #64]	; (32f0 <Zweitpointertausch+0x4e>)
    32b0:	4914      	ldr	r1, [pc, #80]	; (3304 <Zweitpointertausch+0x62>)
    32b2:	6802      	ldr	r2, [r0, #0]
    32b4:	680b      	ldr	r3, [r1, #0]
    32b6:	600a      	str	r2, [r1, #0]
    32b8:	6003      	str	r3, [r0, #0]
    32ba:	480f      	ldr	r0, [pc, #60]	; (32f8 <Zweitpointertausch+0x56>)
    32bc:	6800      	ldr	r0, [r0, #0]
    32be:	4283      	cmp	r3, r0
    32c0:	d315      	bcc.n	32ee <Zweitpointertausch+0x4c>
    32c2:	b500      	push	{lr}
    32c4:	f7ff fa3a 	bl	273c <dotgaensefuesschen>
    32c8:	61562023 	cmpvs	r6, r3, lsr #32
    32cc:	62616972 	rsbvs	r6, r1, #1867776	; 0x1c8000
    32d0:	2073656c 	rsbscs	r6, r3, ip, ror #10
    32d4:	6c6c6f63 	stclvs	15, cr6, [ip], #-396	; 0xfffffe74
    32d8:	20656469 	rsbcs	r6, r5, r9, ror #8
    32dc:	68746977 	ldmdavs	r4!, {r0, r1, r2, r4, r5, r6, r8, fp, sp, lr}^
    32e0:	63696420 	cmnvs	r9, #536870912	; 0x20000000
    32e4:	6e6f6974 	mcrvs	9, 3, r6, cr15, cr4, {3}
    32e8:	0a797261 	beq	1e5fc74 <BIT24+0xe5fc74>
    32ec:	bd00      	pop	{pc}
    32ee:	4770      	bx	lr
    32f0:	1ffff000 	svcne	0x00fff000
    32f4:	00020000 	andeq	r0, r2, r0
    32f8:	1ffff024 	svcne	0x00fff024
    32fc:	1ffff004 	svcne	0x00fff004
    3300:	1ffff01c 	svcne	0x00fff01c
    3304:	1ffff018 	svcne	0x00fff018

00003308 <Dictionary_847>:
    3308:	000033f4 	strdeq	r3, [r0], -r4
    330c:	28080000 	stmdacs	r8, {}	; <UNPREDICTABLE>
    3310:	61657263 	cmnvs	r5, r3, ror #4
    3314:	00296574 	eoreq	r6, r9, r4, ror r5

00003318 <Code_847>:
    3318:	b500      	push	{lr}
    331a:	f000 fdb1 	bl	3e80 <Code_1092>
    331e:	2e00      	cmp	r6, #0
    3320:	d10e      	bne.n	3340 <Code_847+0x28>
    3322:	f7ff fa0b 	bl	273c <dotgaensefuesschen>
    3326:	72432015 	subvc	r2, r3, #21
    332a:	65746165 	ldrbvs	r6, [r4, #-357]!	; 0x165
    332e:	65656e20 	strbvs	r6, [r5, #-3616]!	; 0xe20
    3332:	6e207364 	cdpvs	3, 2, cr7, cr0, cr4, {3}
    3336:	20656d61 	rsbcs	r6, r5, r1, ror #26
    333a:	f0010a21 			; <UNDEFINED> instruction: 0xf0010a21
    333e:	f888 6838 	strb.w	r6, [r8, #2104]	; 0x838
    3342:	3f04      	subs	r7, #4
    3344:	603e      	str	r6, [r7, #0]
    3346:	3f04      	subs	r7, #4
    3348:	6038      	str	r0, [r7, #0]
    334a:	f000 f9a3 	bl	3694 <Code_910>
    334e:	cf40      	ldmia	r7!, {r6}
    3350:	2e00      	cmp	r6, #0
    3352:	cf40      	ldmia	r7!, {r6}
    3354:	d011      	beq.n	337a <Code_847+0x62>
    3356:	6838      	ldr	r0, [r7, #0]
    3358:	3f04      	subs	r7, #4
    335a:	603e      	str	r6, [r7, #0]
    335c:	3f04      	subs	r7, #4
    335e:	6038      	str	r0, [r7, #0]
    3360:	f7ff f9ec 	bl	273c <dotgaensefuesschen>
    3364:	64655209 	strbtvs	r5, [r5], #-521	; 0x209
    3368:	6e696665 	cdpvs	6, 6, cr6, cr9, cr5, {3}
    336c:	f7ff2065 			; <UNDEFINED> instruction: 0xf7ff2065
    3370:	fa45 f7ff 			; <UNDEFINED> instruction: 0xfa45f7ff
    3374:	f9e3 2e02 	vld3.8	{d18[]-d20[]}, [r3], r2
    3378:	f7ff000a 			; <UNDEFINED> instruction: 0xf7ff000a
    337c:	feb6 f000 	cdp2	0, 11, cr15, cr6, cr0, {0}
    3380:	fa1d 488d 			; <UNDEFINED> instruction: 0xfa1d488d
    3384:	6800      	ldr	r0, [r0, #0]
    3386:	498c      	ldr	r1, [pc, #560]	; (35b8 <rambuffer_ram+0x44>)
    3388:	4288      	cmp	r0, r1
    338a:	d21c      	bcs.n	33c6 <create_ram>
    338c:	488b      	ldr	r0, [pc, #556]	; (35bc <rambuffer_ram+0x48>)
    338e:	2100      	movs	r1, #0
    3390:	6001      	str	r1, [r0, #0]
    3392:	3f04      	subs	r7, #4
    3394:	603e      	str	r6, [r7, #0]
    3396:	2606      	movs	r6, #6
    3398:	f7ff ff26 	bl	31e8 <Code_836>
    339c:	f7fd feae 	bl	10fc <Code_193>
    33a0:	f7ff feef 	bl	3182 <Code_828>
    33a4:	4886      	ldr	r0, [pc, #536]	; (35c0 <rambuffer_ram+0x4c>)
    33a6:	6801      	ldr	r1, [r0, #0]
    33a8:	680a      	ldr	r2, [r1, #0]
    33aa:	4b86      	ldr	r3, [pc, #536]	; (35c4 <rambuffer_ram+0x50>)
    33ac:	429a      	cmp	r2, r3
    33ae:	d107      	bne.n	33c0 <Code_847+0xa8>
    33b0:	4a81      	ldr	r2, [pc, #516]	; (35b8 <rambuffer_ram+0x44>)
    33b2:	6813      	ldr	r3, [r2, #0]
    33b4:	6011      	str	r1, [r2, #0]
    33b6:	3f04      	subs	r7, #4
    33b8:	603e      	str	r6, [r7, #0]
    33ba:	f7ff fec3 	bl	3144 <Code_822>
    33be:	6013      	str	r3, [r2, #0]
    33c0:	6006      	str	r6, [r0, #0]
    33c2:	cf40      	ldmia	r7!, {r6}
    33c4:	e010      	b.n	33e8 <create_ende>

000033c6 <create_ram>:
    33c6:	487e      	ldr	r0, [pc, #504]	; (35c0 <rambuffer_ram+0x4c>)
    33c8:	3f04      	subs	r7, #4
    33ca:	603e      	str	r6, [r7, #0]
    33cc:	6806      	ldr	r6, [r0, #0]
    33ce:	f7ff feb9 	bl	3144 <Code_822>
    33d2:	3f04      	subs	r7, #4
    33d4:	603e      	str	r6, [r7, #0]
    33d6:	4e7c      	ldr	r6, [pc, #496]	; (35c8 <rambuffer_ram+0x54>)
    33d8:	f7ff fe99 	bl	310e <Code_816>
    33dc:	4878      	ldr	r0, [pc, #480]	; (35c0 <rambuffer_ram+0x4c>)
    33de:	0031      	movs	r1, r6
    33e0:	cf40      	ldmia	r7!, {r6}
    33e2:	6001      	str	r1, [r0, #0]
    33e4:	f7ff fecd 	bl	3182 <Code_828>

000033e8 <create_ende>:
    33e8:	4873      	ldr	r0, [pc, #460]	; (35b8 <rambuffer_ram+0x44>)
    33ea:	6801      	ldr	r1, [r0, #0]
    33ec:	4877      	ldr	r0, [pc, #476]	; (35cc <rambuffer_ram+0x58>)
    33ee:	6001      	str	r1, [r0, #0]
    33f0:	bd00      	pop	{pc}
    33f2:	46c0      	nop			; (mov r8, r8)

000033f4 <Dictionary_865>:
    33f4:	0000340c 	andeq	r3, r0, ip, lsl #8
    33f8:	76080000 	strvc	r0, [r8], -r0
    33fc:	61697261 	cmnvs	r9, r1, ror #4
    3400:	00656c62 	rsbeq	r6, r5, r2, ror #24

00003404 <Code_865>:
    3404:	3f04      	subs	r7, #4
    3406:	603e      	str	r6, [r7, #0]
    3408:	2601      	movs	r6, #1
    340a:	e013      	b.n	3434 <Code_871>

0000340c <Dictionary_868>:
    340c:	00003424 	andeq	r3, r0, r4, lsr #8
    3410:	32090000 	andcc	r0, r9, #0
    3414:	69726176 	ldmdbvs	r2!, {r1, r2, r4, r5, r6, r8, sp, lr}^
    3418:	656c6261 	strbvs	r6, [ip, #-609]!	; 0x261

0000341c <Code_868>:
    341c:	3f04      	subs	r7, #4
    341e:	603e      	str	r6, [r7, #0]
    3420:	2602      	movs	r6, #2
    3422:	e007      	b.n	3434 <Code_871>

00003424 <Dictionary_871>:
    3424:	000034fc 	strdeq	r3, [r0], -ip
    3428:	6e090000 	cdpvs	0, 0, cr0, cr9, cr0, {0}
    342c:	69726176 	ldmdbvs	r2!, {r1, r2, r4, r5, r6, r8, sp, lr}^
    3430:	656c6261 	strbvs	r6, [ip, #-609]!	; 0x261

00003434 <Code_871>:
    3434:	b500      	push	{lr}
    3436:	f7ff ff6f 	bl	3318 <Code_847>
    343a:	485f      	ldr	r0, [pc, #380]	; (35b8 <rambuffer_ram+0x44>)
    343c:	6801      	ldr	r1, [r0, #0]
    343e:	4a5e      	ldr	r2, [pc, #376]	; (35b8 <rambuffer_ram+0x44>)
    3440:	4291      	cmp	r1, r2
    3442:	d233      	bcs.n	34ac <variable_ram>
    3444:	200f      	movs	r0, #15
    3446:	4006      	ands	r6, r0
    3448:	00b2      	lsls	r2, r6, #2
    344a:	4861      	ldr	r0, [pc, #388]	; (35d0 <rambuffer_ram+0x5c>)
    344c:	6801      	ldr	r1, [r0, #0]
    344e:	1a89      	subs	r1, r1, r2
    3450:	4a60      	ldr	r2, [pc, #384]	; (35d4 <rambuffer_ram+0x60>)
    3452:	4291      	cmp	r1, r2
    3454:	d20b      	bcs.n	346e <Code_871+0x3a>
    3456:	f7ff f971 	bl	273c <dotgaensefuesschen>
    345a:	746f4e0f 	strbtvc	r4, [pc], #-3599	; 3462 <Code_871+0x2e>
    345e:	6f6e6520 	svcvs	0x006e6520
    3462:	20686775 	rsbcs	r6, r8, r5, ror r7
    3466:	0a4d4152 	beq	13539b6 <BIT24+0x3539b6>
    346a:	f000 fff1 	bl	4450 <Code_1191>
    346e:	6001      	str	r1, [r0, #0]
    3470:	3f04      	subs	r7, #4
    3472:	603e      	str	r6, [r7, #0]
    3474:	000e      	movs	r6, r1
    3476:	f7ff fb75 	bl	2b64 <Code_706>
    347a:	3f04      	subs	r7, #4
    347c:	603e      	str	r6, [r7, #0]
    347e:	4e56      	ldr	r6, [pc, #344]	; (35d8 <rambuffer_ram+0x64>)
    3480:	f7ff fe45 	bl	310e <Code_816>
    3484:	0030      	movs	r0, r6
    3486:	cf40      	ldmia	r7!, {r6}
    3488:	0002      	movs	r2, r0
    348a:	2800      	cmp	r0, #0
    348c:	d005      	beq.n	349a <Code_871+0x66>
    348e:	600e      	str	r6, [r1, #0]
    3490:	3104      	adds	r1, #4
    3492:	f7ff fe57 	bl	3144 <Code_822>
    3496:	3801      	subs	r0, #1
    3498:	d1f9      	bne.n	348e <Code_871+0x5a>
    349a:	3f04      	subs	r7, #4
    349c:	603e      	str	r6, [r7, #0]
    349e:	2680      	movs	r6, #128	; 0x80
    34a0:	4316      	orrs	r6, r2
    34a2:	f7ff fdd1 	bl	3048 <Code_808>
    34a6:	f7ff fd9e 	bl	2fe6 <Code_802>
    34aa:	bd00      	pop	{pc}

000034ac <variable_ram>:
    34ac:	f000 f986 	bl	37bc <Code_932>
    34b0:	2002      	movs	r0, #2
    34b2:	4006      	ands	r6, r0
    34b4:	cf40      	ldmia	r7!, {r6}
    34b6:	d104      	bne.n	34c2 <variable_ram+0x16>
    34b8:	3f04      	subs	r7, #4
    34ba:	603e      	str	r6, [r7, #0]
    34bc:	2636      	movs	r6, #54	; 0x36
    34be:	f7ff fe26 	bl	310e <Code_816>
    34c2:	3f04      	subs	r7, #4
    34c4:	603e      	str	r6, [r7, #0]
    34c6:	4e45      	ldr	r6, [pc, #276]	; (35dc <rambuffer_ram+0x68>)
    34c8:	f7ff fe4b 	bl	3162 <Code_825>
    34cc:	3f04      	subs	r7, #4
    34ce:	603e      	str	r6, [r7, #0]
    34d0:	4e43      	ldr	r6, [pc, #268]	; (35e0 <rambuffer_ram+0x6c>)
    34d2:	f7ff fe46 	bl	3162 <Code_825>
    34d6:	3f04      	subs	r7, #4
    34d8:	603e      	str	r6, [r7, #0]
    34da:	4e3f      	ldr	r6, [pc, #252]	; (35d8 <rambuffer_ram+0x64>)
    34dc:	f7ff fe17 	bl	310e <Code_816>
    34e0:	0030      	movs	r0, r6
    34e2:	cf40      	ldmia	r7!, {r6}
    34e4:	2800      	cmp	r0, #0
    34e6:	d003      	beq.n	34f0 <variable_ram+0x44>
    34e8:	f7ff fe2c 	bl	3144 <Code_822>
    34ec:	3801      	subs	r0, #1
    34ee:	d1fb      	bne.n	34e8 <variable_ram+0x3c>
    34f0:	f7ff fce1 	bl	2eb6 <Code_773>
    34f4:	f7ff fd77 	bl	2fe6 <Code_802>
    34f8:	bd00      	pop	{pc}
    34fa:	46c0      	nop			; (mov r8, r8)

000034fc <Dictionary_888>:
    34fc:	000035e8 	andeq	r3, r0, r8, ror #11
    3500:	62070000 	andvs	r0, r7, #0
    3504:	65666675 	strbvs	r6, [r6, #-1653]!	; 0x675
    3508:	b5003a72 	strlt	r3, [r0, #-2674]	; 0xa72

0000350a <Code_888>:
    350a:	b500      	push	{lr}
    350c:	f7ff ff04 	bl	3318 <Code_847>
    3510:	2001      	movs	r0, #1
    3512:	4030      	ands	r0, r6
    3514:	1836      	adds	r6, r6, r0
    3516:	2002      	movs	r0, #2
    3518:	4030      	ands	r0, r6
    351a:	1836      	adds	r6, r6, r0
    351c:	4826      	ldr	r0, [pc, #152]	; (35b8 <rambuffer_ram+0x44>)
    351e:	6801      	ldr	r1, [r0, #0]
    3520:	4a25      	ldr	r2, [pc, #148]	; (35b8 <rambuffer_ram+0x44>)
    3522:	4291      	cmp	r1, r2
    3524:	d226      	bcs.n	3574 <rambuffer_ram>
    3526:	482a      	ldr	r0, [pc, #168]	; (35d0 <rambuffer_ram+0x5c>)
    3528:	6801      	ldr	r1, [r0, #0]
    352a:	1b89      	subs	r1, r1, r6
    352c:	4a29      	ldr	r2, [pc, #164]	; (35d4 <rambuffer_ram+0x60>)
    352e:	4291      	cmp	r1, r2
    3530:	d20b      	bcs.n	354a <Code_888+0x40>
    3532:	f7ff f903 	bl	273c <dotgaensefuesschen>
    3536:	746f4e0f 	strbtvc	r4, [pc], #-3599	; 353e <Code_888+0x34>
    353a:	6f6e6520 	svcvs	0x006e6520
    353e:	20686775 	rsbcs	r6, r8, r5, ror r7
    3542:	0a4d4152 	beq	1353a92 <BIT24+0x353a92>
    3546:	f000 ff83 	bl	4450 <Code_1191>
    354a:	6001      	str	r1, [r0, #0]
    354c:	3f04      	subs	r7, #4
    354e:	603e      	str	r6, [r7, #0]
    3550:	000e      	movs	r6, r1
    3552:	f7ff fb07 	bl	2b64 <Code_706>
    3556:	3f04      	subs	r7, #4
    3558:	603e      	str	r6, [r7, #0]
    355a:	4e1f      	ldr	r6, [pc, #124]	; (35d8 <rambuffer_ram+0x64>)
    355c:	f7ff fdd7 	bl	310e <Code_816>
    3560:	f7ff fdf0 	bl	3144 <Code_822>
    3564:	3f04      	subs	r7, #4
    3566:	603e      	str	r6, [r7, #0]
    3568:	4e1e      	ldr	r6, [pc, #120]	; (35e4 <rambuffer_ram+0x70>)
    356a:	f7ff fd6d 	bl	3048 <Code_808>
    356e:	f7ff fd3a 	bl	2fe6 <Code_802>
    3572:	bd00      	pop	{pc}

00003574 <rambuffer_ram>:
    3574:	f000 f922 	bl	37bc <Code_932>
    3578:	2002      	movs	r0, #2
    357a:	4006      	ands	r6, r0
    357c:	cf40      	ldmia	r7!, {r6}
    357e:	d104      	bne.n	358a <rambuffer_ram+0x16>
    3580:	3f04      	subs	r7, #4
    3582:	603e      	str	r6, [r7, #0]
    3584:	2636      	movs	r6, #54	; 0x36
    3586:	f7ff fdc2 	bl	310e <Code_816>
    358a:	3f04      	subs	r7, #4
    358c:	603e      	str	r6, [r7, #0]
    358e:	4e13      	ldr	r6, [pc, #76]	; (35dc <rambuffer_ram+0x68>)
    3590:	f7ff fde7 	bl	3162 <Code_825>
    3594:	3f04      	subs	r7, #4
    3596:	603e      	str	r6, [r7, #0]
    3598:	4e11      	ldr	r6, [pc, #68]	; (35e0 <rambuffer_ram+0x6c>)
    359a:	f7ff fde2 	bl	3162 <Code_825>
    359e:	3f04      	subs	r7, #4
    35a0:	603e      	str	r6, [r7, #0]
    35a2:	4e0d      	ldr	r6, [pc, #52]	; (35d8 <rambuffer_ram+0x64>)
    35a4:	f7ff fdb3 	bl	310e <Code_816>
    35a8:	f7ff fe1e 	bl	31e8 <Code_836>
    35ac:	f7ff fc83 	bl	2eb6 <Code_773>
    35b0:	f7ff fd19 	bl	2fe6 <Code_802>
    35b4:	bd00      	pop	{pc}
    35b6:	f0000000 			; <UNDEFINED> instruction: 0xf0000000
    35ba:	f0201fff 			; <UNDEFINED> instruction: 0xf0201fff
    35be:	f0041fff 			; <UNDEFINED> instruction: 0xf0041fff
    35c2:	ffff1fff 			; <UNDEFINED> instruction: 0xffff1fff
    35c6:	ffffffff 			; <UNDEFINED> instruction: 0xffffffff
    35ca:	f0140000 			; <UNDEFINED> instruction: 0xf0140000
    35ce:	f0241fff 			; <UNDEFINED> instruction: 0xf0241fff
    35d2:	f4181fff 			; <UNDEFINED> instruction: 0xf4181fff
    35d6:	47701fff 			; <UNDEFINED> instruction: 0x47701fff
    35da:	603e0000 	eorsvs	r0, lr, r0
    35de:	36023f04 	strcc	r3, [r2], -r4, lsl #30
    35e2:	0140467e 	hvceq	1134	; 0x46e
	...

000035e8 <Dictionary_903>:
    35e8:	00003618 	andeq	r3, r0, r8, lsl r6
    35ec:	640f0000 	strvs	r0, [pc], #-0	; 35f4 <Dictionary_903+0xc>
    35f0:	69746369 	ldmdbvs	r4!, {r0, r3, r5, r6, r8, r9, sp, lr}^
    35f4:	72616e6f 	rsbvc	r6, r1, #1776	; 0x6f0
    35f8:	61747379 	cmnvs	r4, r9, ror r3
    35fc:	48427472 	stmdami	r2, {r1, r4, r5, r6, sl, ip, sp, lr}^

000035fe <Code_903>:
    35fe:	4842      	ldr	r0, [pc, #264]	; (3708 <find_not_found+0x16>)
    3600:	6800      	ldr	r0, [r0, #0]
    3602:	4941      	ldr	r1, [pc, #260]	; (3708 <find_not_found+0x16>)
    3604:	3f04      	subs	r7, #4
    3606:	603e      	str	r6, [r7, #0]
    3608:	4288      	cmp	r0, r1
    360a:	d201      	bcs.n	3610 <Code_903+0x12>
    360c:	4e3f      	ldr	r6, [pc, #252]	; (370c <find_not_found+0x1a>)
    360e:	4770      	bx	lr
    3610:	4e3f      	ldr	r6, [pc, #252]	; (3710 <find_not_found+0x1e>)
    3612:	6836      	ldr	r6, [r6, #0]
    3614:	4770      	bx	lr
    3616:	46c0      	nop			; (mov r8, r8)

00003618 <Dictionary_905>:
    3618:	00003654 	andeq	r3, r0, r4, asr r6
    361c:	640e0000 	strvs	r0, [lr], #-0
    3620:	69746369 	ldmdbvs	r4!, {r0, r3, r5, r6, r8, r9, sp, lr}^
    3624:	72616e6f 	rsbvc	r6, r1, #1776	; 0x6f0
    3628:	78656e79 	stmdavc	r5!, {r0, r3, r4, r5, r6, r9, sl, fp, sp, lr}^
    362c:	b5030074 	strlt	r0, [r3, #-116]	; 0x74

0000362e <Code_905>:
    362e:	b503      	push	{r0, r1, lr}
    3630:	6831      	ldr	r1, [r6, #0]
    3632:	4838      	ldr	r0, [pc, #224]	; (3714 <find_not_found+0x22>)
    3634:	4281      	cmp	r1, r0
    3636:	d007      	beq.n	3648 <Code_905+0x1a>
    3638:	7988      	ldrb	r0, [r1, #6]
    363a:	28ff      	cmp	r0, #255	; 0xff
    363c:	d004      	beq.n	3648 <Code_905+0x1a>
    363e:	000e      	movs	r6, r1
    3640:	3f04      	subs	r7, #4
    3642:	603e      	str	r6, [r7, #0]
    3644:	2600      	movs	r6, #0
    3646:	bd03      	pop	{r0, r1, pc}
    3648:	3f04      	subs	r7, #4
    364a:	603e      	str	r6, [r7, #0]
    364c:	2600      	movs	r6, #0
    364e:	43f6      	mvns	r6, r6
    3650:	bd03      	pop	{r0, r1, pc}
    3652:	46c0      	nop			; (mov r8, r8)

00003654 <Dictionary_909>:
    3654:	00003688 	andeq	r3, r0, r8, lsl #13
    3658:	730a0000 	movwvc	r0, #40960	; 0xa000
    365c:	7370696b 	cmnvc	r0, #1753088	; 0x1ac000
    3660:	6e697274 	mcrvs	2, 3, r7, cr9, cr4, {3}
    3664:	78310067 	ldmdavc	r1!, {r0, r1, r2, r5, r6}

00003666 <Code_909>:
    3666:	7831      	ldrb	r1, [r6, #0]
    3668:	3101      	adds	r1, #1
    366a:	2201      	movs	r2, #1
    366c:	400a      	ands	r2, r1
    366e:	1889      	adds	r1, r1, r2
    3670:	1876      	adds	r6, r6, r1
    3672:	4770      	bx	lr

00003674 <skipstring>:
    3674:	b406      	push	{r1, r2}
    3676:	7801      	ldrb	r1, [r0, #0]
    3678:	3101      	adds	r1, #1
    367a:	2201      	movs	r2, #1
    367c:	400a      	ands	r2, r1
    367e:	1889      	adds	r1, r1, r2
    3680:	1840      	adds	r0, r0, r1
    3682:	bc06      	pop	{r1, r2}
    3684:	4770      	bx	lr
    3686:	46c0      	nop			; (mov r8, r8)

00003688 <Dictionary_910>:
    3688:	0000371c 	andeq	r3, r0, ip, lsl r7
    368c:	66040000 	strvs	r0, [r4], -r0
    3690:	00646e69 	rsbeq	r6, r4, r9, ror #28

00003694 <Code_910>:
    3694:	b53f      	push	{r0, r1, r2, r3, r4, r5, lr}
    3696:	2200      	movs	r2, #0
    3698:	2300      	movs	r3, #0
    369a:	0035      	movs	r5, r6
    369c:	cf40      	ldmia	r7!, {r6}
    369e:	0034      	movs	r4, r6
    36a0:	cf40      	ldmia	r7!, {r6}
    36a2:	f7ff ffac 	bl	35fe <Code_903>
    36a6:	481c      	ldr	r0, [pc, #112]	; (3718 <find_not_found+0x26>)
    36a8:	88b1      	ldrh	r1, [r6, #4]
    36aa:	4288      	cmp	r0, r1
    36ac:	d017      	beq.n	36de <Code_910+0x4a>
    36ae:	3f04      	subs	r7, #4
    36b0:	603e      	str	r6, [r7, #0]
    36b2:	3606      	adds	r6, #6
    36b4:	f7ff f882 	bl	27bc <Code_625>
    36b8:	3f04      	subs	r7, #4
    36ba:	603e      	str	r6, [r7, #0]
    36bc:	0026      	movs	r6, r4
    36be:	3f04      	subs	r7, #4
    36c0:	603e      	str	r6, [r7, #0]
    36c2:	002e      	movs	r6, r5
    36c4:	f7fe ffad 	bl	2622 <Code_587>
    36c8:	2e00      	cmp	r6, #0
    36ca:	cf40      	ldmia	r7!, {r6}
    36cc:	d007      	beq.n	36de <Code_910+0x4a>
    36ce:	1db0      	adds	r0, r6, #6
    36d0:	f7ff ffd0 	bl	3674 <skipstring>
    36d4:	0002      	movs	r2, r0
    36d6:	000b      	movs	r3, r1
    36d8:	480b      	ldr	r0, [pc, #44]	; (3708 <find_not_found+0x16>)
    36da:	4282      	cmp	r2, r0
    36dc:	d204      	bcs.n	36e8 <Code_910+0x54>
    36de:	f7ff ffa6 	bl	362e <Code_905>
    36e2:	0030      	movs	r0, r6
    36e4:	cf40      	ldmia	r7!, {r6}
    36e6:	d0de      	beq.n	36a6 <Code_910+0x12>
    36e8:	0016      	movs	r6, r2
    36ea:	3f04      	subs	r7, #4
    36ec:	603e      	str	r6, [r7, #0]
    36ee:	001e      	movs	r6, r3
    36f0:	bd3f      	pop	{r0, r1, r2, r3, r4, r5, pc}

000036f2 <find_not_found>:
    36f2:	b500      	push	{lr}
    36f4:	0031      	movs	r1, r6
    36f6:	6838      	ldr	r0, [r7, #0]
    36f8:	f7ff ffcc 	bl	3694 <Code_910>
    36fc:	683a      	ldr	r2, [r7, #0]
    36fe:	2a00      	cmp	r2, #0
    3700:	d101      	bne.n	3706 <find_not_found+0x14>
    3702:	f000 fe19 	bl	4338 <not_found_addr_r0_len_r1>
    3706:	bd00      	pop	{pc}
    3708:	1ffff000 	svcne	0x00fff000
    370c:	00000410 	andeq	r0, r0, r0, lsl r4
    3710:	1ffff004 	svcne	0x00fff004
    3714:	ffffffff 			; <UNDEFINED> instruction: 0xffffffff
    3718:	0000ffff 	strdeq	pc, [r0], -pc	; <UNPREDICTABLE>

0000371c <Dictionary_923>:
    371c:	00003778 	andeq	r3, r0, r8, ror r7
    3720:	63060000 	movwvs	r0, #24576	; 0x6000
    3724:	706d756a 	rsbvc	r7, sp, sl, ror #10
    3728:	0032002c 	eorseq	r0, r2, ip, lsr #32

0000372a <Code_923>:
    372a:	0032      	movs	r2, r6
    372c:	cf40      	ldmia	r7!, {r6}
    372e:	0031      	movs	r1, r6
    3730:	cf40      	ldmia	r7!, {r6}
    3732:	1b8b      	subs	r3, r1, r6
    3734:	3b04      	subs	r3, #4
    3736:	49c9      	ldr	r1, [pc, #804]	; (3a5c <Code_992+0x10>)
    3738:	4019      	ands	r1, r3
    373a:	2900      	cmp	r1, #0
    373c:	d00d      	beq.n	375a <jump_too_far+0x16>
    373e:	48c8      	ldr	r0, [pc, #800]	; (3a60 <Code_992+0x14>)
    3740:	4281      	cmp	r1, r0
    3742:	d00a      	beq.n	375a <jump_too_far+0x16>

00003744 <jump_too_far>:
    3744:	f7fe fffa 	bl	273c <dotgaensefuesschen>
    3748:	6d754a0d 	vldmdbvs	r5!, {s9-s21}
    374c:	6f742070 	svcvs	0x00742070
    3750:	6166206f 	cmnvs	r6, pc, rrx
    3754:	f0000a72 			; <UNDEFINED> instruction: 0xf0000a72
    3758:	fe7b 105b 	mrc2	0, 3, r1, cr11, cr11, {2}
    375c:	21ff      	movs	r1, #255	; 0xff
    375e:	400b      	ands	r3, r1
    3760:	4313      	orrs	r3, r2
    3762:	0030      	movs	r0, r6
    3764:	001e      	movs	r6, r3

00003766 <sprungbefehl_einfuegen>:
    3766:	b500      	push	{lr}
    3768:	4abe      	ldr	r2, [pc, #760]	; (3a64 <Code_992+0x18>)
    376a:	6813      	ldr	r3, [r2, #0]
    376c:	6010      	str	r0, [r2, #0]
    376e:	f7ff fcce 	bl	310e <Code_816>
    3772:	6013      	str	r3, [r2, #0]
    3774:	bd00      	pop	{pc}
    3776:	46c0      	nop			; (mov r8, r8)

00003778 <Dictionary_927>:
    3778:	000037b0 			; <UNDEFINED> instruction: 0x000037b0
    377c:	6a050000 	bvs	143784 <BIT20+0x43784>
    3780:	2c706d75 	ldclcs	13, cr6, [r0], #-468	; 0xfffffe2c

00003784 <Code_927>:
    3784:	0031      	movs	r1, r6
    3786:	cf40      	ldmia	r7!, {r6}
    3788:	0030      	movs	r0, r6
    378a:	cf40      	ldmia	r7!, {r6}
    378c:	1a0b      	subs	r3, r1, r0
    378e:	3b04      	subs	r3, #4
    3790:	49b5      	ldr	r1, [pc, #724]	; (3a68 <Code_992+0x1c>)
    3792:	4019      	ands	r1, r3
    3794:	2900      	cmp	r1, #0
    3796:	d002      	beq.n	379e <Code_927+0x1a>
    3798:	4ab4      	ldr	r2, [pc, #720]	; (3a6c <Code_992+0x20>)
    379a:	4291      	cmp	r1, r2
    379c:	d1d2      	bne.n	3744 <jump_too_far>
    379e:	105b      	asrs	r3, r3, #1
    37a0:	4ab3      	ldr	r2, [pc, #716]	; (3a70 <Code_992+0x24>)
    37a2:	4013      	ands	r3, r2
    37a4:	4ab3      	ldr	r2, [pc, #716]	; (3a74 <Code_992+0x28>)
    37a6:	4313      	orrs	r3, r2
    37a8:	3f04      	subs	r7, #4
    37aa:	603e      	str	r6, [r7, #0]
    37ac:	001e      	movs	r6, r3
    37ae:	e7da      	b.n	3766 <sprungbefehl_einfuegen>

000037b0 <Dictionary_932>:
    37b0:	000037c8 	andeq	r3, r0, r8, asr #15
    37b4:	68040000 	stmdavs	r4, {}	; <UNPREDICTABLE>
    37b8:	00657265 	rsbeq	r7, r5, r5, ror #4

000037bc <Code_932>:
    37bc:	3f04      	subs	r7, #4
    37be:	603e      	str	r6, [r7, #0]
    37c0:	4ea8      	ldr	r6, [pc, #672]	; (3a64 <Code_992+0x18>)
    37c2:	6836      	ldr	r6, [r6, #0]
    37c4:	4770      	bx	lr
    37c6:	46c0      	nop			; (mov r8, r8)

000037c8 <Dictionary_934>:
    37c8:	00003904 	andeq	r3, r0, r4, lsl #18
    37cc:	660d0000 	strvs	r0, [sp], -r0
    37d0:	6873616c 	ldmdavs	r3!, {r2, r3, r5, r6, r8, sp, lr}^
    37d4:	2d726176 	ldfcse	f6, [r2, #-472]!	; 0xfffffe28
    37d8:	65726568 	ldrbvs	r6, [r2, #-1384]!	; 0x568

000037dc <Code_934>:
    37dc:	3f04      	subs	r7, #4
    37de:	603e      	str	r6, [r7, #0]
    37e0:	4ea5      	ldr	r6, [pc, #660]	; (3a78 <Code_992+0x2c>)
    37e2:	6836      	ldr	r6, [r6, #0]
    37e4:	4770      	bx	lr

000037e6 <nullprobekomma>:
    37e6:	b500      	push	{lr}
    37e8:	3f04      	subs	r7, #4
    37ea:	603e      	str	r6, [r7, #0]
    37ec:	4ea3      	ldr	r6, [pc, #652]	; (3a7c <Code_992+0x30>)
    37ee:	f7ff fc8e 	bl	310e <Code_816>
    37f2:	3f04      	subs	r7, #4
    37f4:	603e      	str	r6, [r7, #0]
    37f6:	4ea2      	ldr	r6, [pc, #648]	; (3a80 <Code_992+0x34>)
    37f8:	f7ff fc89 	bl	310e <Code_816>
    37fc:	bd00      	pop	{pc}

000037fe <branch_r>:
    37fe:	e7dd      	b.n	37bc <Code_932>

00003800 <r_branch_jne>:
    3800:	b500      	push	{lr}
    3802:	f000 f837 	bl	3874 <branch_v>
    3806:	6839      	ldr	r1, [r7, #0]
    3808:	603e      	str	r6, [r7, #0]
    380a:	460e      	mov	r6, r1
    380c:	3f04      	subs	r7, #4
    380e:	603e      	str	r6, [r7, #0]
    3810:	4e9c      	ldr	r6, [pc, #624]	; (3a84 <Code_992+0x38>)
    3812:	f7ff ff8a 	bl	372a <Code_923>
    3816:	bd00      	pop	{pc}

00003818 <r_branch_jvc>:
    3818:	b500      	push	{lr}
    381a:	f000 f82b 	bl	3874 <branch_v>
    381e:	6839      	ldr	r1, [r7, #0]
    3820:	603e      	str	r6, [r7, #0]
    3822:	460e      	mov	r6, r1
    3824:	3f04      	subs	r7, #4
    3826:	603e      	str	r6, [r7, #0]
    3828:	4e97      	ldr	r6, [pc, #604]	; (3a88 <Code_992+0x3c>)
    382a:	f7ff ff7e 	bl	372a <Code_923>
    382e:	bd00      	pop	{pc}

00003830 <r_nullbranch>:
    3830:	b500      	push	{lr}
    3832:	f7ff ffd8 	bl	37e6 <nullprobekomma>
    3836:	f000 f81d 	bl	3874 <branch_v>
    383a:	6839      	ldr	r1, [r7, #0]
    383c:	603e      	str	r6, [r7, #0]
    383e:	460e      	mov	r6, r1
    3840:	3f04      	subs	r7, #4
    3842:	603e      	str	r6, [r7, #0]
    3844:	4e91      	ldr	r6, [pc, #580]	; (3a8c <Code_992+0x40>)
    3846:	f7ff ff70 	bl	372a <Code_923>
    384a:	bd00      	pop	{pc}

0000384c <r_branch>:
    384c:	b500      	push	{lr}
    384e:	f000 f811 	bl	3874 <branch_v>
    3852:	6839      	ldr	r1, [r7, #0]
    3854:	603e      	str	r6, [r7, #0]
    3856:	460e      	mov	r6, r1
    3858:	f7ff ff94 	bl	3784 <Code_927>
    385c:	bd00      	pop	{pc}

0000385e <nullbranch_v>:
    385e:	b500      	push	{lr}
    3860:	f7ff ffc1 	bl	37e6 <nullprobekomma>
    3864:	f7ff ffaa 	bl	37bc <Code_932>
    3868:	3f04      	subs	r7, #4
    386a:	603e      	str	r6, [r7, #0]
    386c:	2602      	movs	r6, #2
    386e:	f7ff fcbb 	bl	31e8 <Code_836>
    3872:	bd00      	pop	{pc}

00003874 <branch_v>:
    3874:	b500      	push	{lr}
    3876:	f7ff ffa1 	bl	37bc <Code_932>
    387a:	3f04      	subs	r7, #4
    387c:	603e      	str	r6, [r7, #0]
    387e:	2602      	movs	r6, #2
    3880:	f7ff fcb2 	bl	31e8 <Code_836>
    3884:	bd00      	pop	{pc}

00003886 <v_branch>:
    3886:	b500      	push	{lr}
    3888:	f7ff ff98 	bl	37bc <Code_932>
    388c:	f7ff ff7a 	bl	3784 <Code_927>
    3890:	bd00      	pop	{pc}

00003892 <v_nullbranch>:
    3892:	b500      	push	{lr}
    3894:	f7ff ff92 	bl	37bc <Code_932>
    3898:	3f04      	subs	r7, #4
    389a:	603e      	str	r6, [r7, #0]
    389c:	4e7b      	ldr	r6, [pc, #492]	; (3a8c <Code_992+0x40>)
    389e:	f7ff ff44 	bl	372a <Code_923>
    38a2:	bd00      	pop	{pc}

000038a4 <v_casebranch>:
    38a4:	b500      	push	{lr}
    38a6:	f7ff ff89 	bl	37bc <Code_932>
    38aa:	3f04      	subs	r7, #4
    38ac:	603e      	str	r6, [r7, #0]
    38ae:	4e75      	ldr	r6, [pc, #468]	; (3a84 <Code_992+0x38>)
    38b0:	f7ff ff3b 	bl	372a <Code_923>
    38b4:	bd00      	pop	{pc}

000038b6 <allocator_nullsprungprobe>:
    38b6:	b500      	push	{lr}
    38b8:	f7fc fe8c 	bl	5d4 <expect_one_element>
    38bc:	6901      	ldr	r1, [r0, #16]
    38be:	6942      	ldr	r2, [r0, #20]
    38c0:	f7fc fece 	bl	660 <eliminiere_tos>
    38c4:	f7fc ff90 	bl	7e8 <tidyup_register_allocator_3os>
    38c8:	f7fc ff93 	bl	7f2 <tidyup_register_allocator_nos>
    38cc:	6903      	ldr	r3, [r0, #16]
    38ce:	2b28      	cmp	r3, #40	; 0x28
    38d0:	d102      	bne.n	38d8 <allocator_nullsprungprobe+0x22>
    38d2:	6943      	ldr	r3, [r0, #20]
    38d4:	f7fc fe23 	bl	51e <generiere_konstante>
    38d8:	2928      	cmp	r1, #40	; 0x28
    38da:	d108      	bne.n	38ee <allocator_nullsprungprobe+0x38>
    38dc:	3f04      	subs	r7, #4
    38de:	603e      	str	r6, [r7, #0]
    38e0:	4e6b      	ldr	r6, [pc, #428]	; (3a90 <Code_992+0x44>)
    38e2:	2a00      	cmp	r2, #0
    38e4:	d000      	beq.n	38e8 <allocator_nullsprungprobe+0x32>
    38e6:	3601      	adds	r6, #1
    38e8:	f7ff fc11 	bl	310e <Code_816>
    38ec:	e006      	b.n	38fc <allocator_nullsprungprobe+0x46>
    38ee:	3f04      	subs	r7, #4
    38f0:	603e      	str	r6, [r7, #0]
    38f2:	4e68      	ldr	r6, [pc, #416]	; (3a94 <Code_992+0x48>)
    38f4:	0209      	lsls	r1, r1, #8
    38f6:	430e      	orrs	r6, r1
    38f8:	f7ff fc09 	bl	310e <Code_816>
    38fc:	f7fc ff7e 	bl	7fc <tidyup_register_allocator_tos>
    3900:	bd00      	pop	{pc}
    3902:	46c0      	nop			; (mov r8, r8)

00003904 <Dictionary_962>:
    3904:	00003938 	andeq	r3, r0, r8, lsr r9
    3908:	69020230 	stmdbvs	r2, {r4, r5, r9}
    390c:	b5000066 	strlt	r0, [r0, #-102]	; 0x66

0000390e <Code_962>:
    390e:	b500      	push	{lr}
    3910:	f7ff ffa5 	bl	385e <nullbranch_v>
    3914:	3f04      	subs	r7, #4
    3916:	603e      	str	r6, [r7, #0]
    3918:	2602      	movs	r6, #2
    391a:	bd00      	pop	{pc}

0000391c <struktur_if_allokator>:
    391c:	b500      	push	{lr}
    391e:	f7ff ffca 	bl	38b6 <allocator_nullsprungprobe>
    3922:	f7ff ff4b 	bl	37bc <Code_932>
    3926:	3f04      	subs	r7, #4
    3928:	603e      	str	r6, [r7, #0]
    392a:	2602      	movs	r6, #2
    392c:	f7ff fc5c 	bl	31e8 <Code_836>
    3930:	3f04      	subs	r7, #4
    3932:	603e      	str	r6, [r7, #0]
    3934:	2602      	movs	r6, #2
    3936:	bd00      	pop	{pc}

00003938 <Dictionary_969>:
    3938:	00003964 	andeq	r3, r0, r4, ror #18
    393c:	65040030 	strvs	r0, [r4, #-48]	; 0x30
    3940:	0065736c 	rsbeq	r7, r5, ip, ror #6

00003944 <Code_969>:
    3944:	b500      	push	{lr}
    3946:	2e02      	cmp	r6, #2
    3948:	d11a      	bne.n	3980 <strukturen_passen_nicht>
    394a:	cf40      	ldmia	r7!, {r6}
    394c:	f7ff ff92 	bl	3874 <branch_v>
    3950:	6839      	ldr	r1, [r7, #0]
    3952:	603e      	str	r6, [r7, #0]
    3954:	460e      	mov	r6, r1
    3956:	f7ff ff9c 	bl	3892 <v_nullbranch>
    395a:	3f04      	subs	r7, #4
    395c:	603e      	str	r6, [r7, #0]
    395e:	2605      	movs	r6, #5
    3960:	bd00      	pop	{pc}
    3962:	46c0      	nop			; (mov r8, r8)

00003964 <Dictionary_974>:
    3964:	000039a0 	andeq	r3, r0, r0, lsr #19
    3968:	74040030 	strvc	r0, [r4], #-48	; 0x30
    396c:	006e6568 	rsbeq	r6, lr, r8, ror #10

00003970 <Code_974>:
    3970:	2e05      	cmp	r6, #5
    3972:	d101      	bne.n	3978 <Code_974+0x8>
    3974:	cf40      	ldmia	r7!, {r6}
    3976:	e786      	b.n	3886 <v_branch>
    3978:	2e02      	cmp	r6, #2
    397a:	d101      	bne.n	3980 <strukturen_passen_nicht>
    397c:	cf40      	ldmia	r7!, {r6}
    397e:	e788      	b.n	3892 <v_nullbranch>

00003980 <strukturen_passen_nicht>:
    3980:	f7fe fedc 	bl	273c <dotgaensefuesschen>
    3984:	72745317 	rsbsvc	r5, r4, #1543503872	; 0x5c000000
    3988:	75746375 	ldrbvc	r6, [r4, #-885]!	; 0x375
    398c:	20736572 	rsbscs	r6, r3, r2, ror r5
    3990:	276e6f64 	strbcs	r6, [lr, -r4, ror #30]!
    3994:	616d2074 	smcvs	53764	; 0xd204
    3998:	0a686374 	beq	1a1c770 <BIT24+0xa1c770>
    399c:	f000 fd58 	bl	4450 <Code_1191>

000039a0 <Dictionary_978>:
    39a0:	000039c8 	andeq	r3, r0, r8, asr #19
    39a4:	72060030 	andvc	r0, r6, #48	; 0x30
    39a8:	61657065 	cmnvs	r5, r5, rrx
    39ac:	2e040074 	mcrcs	0, 0, r0, cr4, cr4, {3}

000039ae <Code_978>:
    39ae:	2e04      	cmp	r6, #4
    39b0:	d1e6      	bne.n	3980 <strukturen_passen_nicht>
    39b2:	cf40      	ldmia	r7!, {r6}
    39b4:	6839      	ldr	r1, [r7, #0]
    39b6:	603e      	str	r6, [r7, #0]
    39b8:	460e      	mov	r6, r1
    39ba:	b500      	push	{lr}
    39bc:	f7ff ff46 	bl	384c <r_branch>
    39c0:	f7ff ff67 	bl	3892 <v_nullbranch>
    39c4:	bd00      	pop	{pc}
    39c6:	46c0      	nop			; (mov r8, r8)

000039c8 <Dictionary_981>:
    39c8:	000039f4 	strdeq	r3, [r0], -r4
    39cc:	77050230 	smladxvc	r5, r0, r2, r0
    39d0:	656c6968 	strbvs	r6, [ip, #-2408]!	; 0x968

000039d4 <Code_981>:
    39d4:	2e01      	cmp	r6, #1
    39d6:	d1d3      	bne.n	3980 <strukturen_passen_nicht>
    39d8:	cf40      	ldmia	r7!, {r6}
    39da:	b500      	push	{lr}
    39dc:	f7ff ff97 	bl	390e <Code_962>
    39e0:	3602      	adds	r6, #2
    39e2:	bd00      	pop	{pc}
    39e4:	2e01      	cmp	r6, #1
    39e6:	d1cb      	bne.n	3980 <strukturen_passen_nicht>
    39e8:	cf40      	ldmia	r7!, {r6}
    39ea:	b500      	push	{lr}
    39ec:	f7ff ff96 	bl	391c <struktur_if_allokator>
    39f0:	3602      	adds	r6, #2
    39f2:	bd00      	pop	{pc}

000039f4 <Dictionary_984>:
    39f4:	00003a2c 	andeq	r3, r0, ip, lsr #20
    39f8:	75050230 	strvc	r0, [r5, #-560]	; 0x230
    39fc:	6c69746e 	cfstrdvs	mvd7, [r9], #-440	; 0xfffffe48

00003a00 <Code_984>:
    3a00:	2e01      	cmp	r6, #1
    3a02:	d1bd      	bne.n	3980 <strukturen_passen_nicht>
    3a04:	cf40      	ldmia	r7!, {r6}
    3a06:	e713      	b.n	3830 <r_nullbranch>
    3a08:	4770      	bx	lr
    3a0a:	2e01      	cmp	r6, #1
    3a0c:	d1b8      	bne.n	3980 <strukturen_passen_nicht>
    3a0e:	cf40      	ldmia	r7!, {r6}
    3a10:	b500      	push	{lr}
    3a12:	f7ff ff50 	bl	38b6 <allocator_nullsprungprobe>
    3a16:	f7ff ff2d 	bl	3874 <branch_v>
    3a1a:	6839      	ldr	r1, [r7, #0]
    3a1c:	603e      	str	r6, [r7, #0]
    3a1e:	460e      	mov	r6, r1
    3a20:	3f04      	subs	r7, #4
    3a22:	603e      	str	r6, [r7, #0]
    3a24:	4e19      	ldr	r6, [pc, #100]	; (3a8c <Code_992+0x40>)
    3a26:	f7ff fe80 	bl	372a <Code_923>
    3a2a:	bd00      	pop	{pc}

00003a2c <Dictionary_990>:
    3a2c:	00003a40 	andeq	r3, r0, r0, asr #20
    3a30:	61050030 	tstvs	r5, r0, lsr r0
    3a34:	6e696167 	powvsez	f6, f1, f7

00003a38 <Code_990>:
    3a38:	2e01      	cmp	r6, #1
    3a3a:	d1a1      	bne.n	3980 <strukturen_passen_nicht>
    3a3c:	cf40      	ldmia	r7!, {r6}
    3a3e:	e705      	b.n	384c <r_branch>

00003a40 <Dictionary_992>:
    3a40:	00003a98 	muleq	r0, r8, sl
    3a44:	62050030 	andvs	r0, r5, #48	; 0x30
    3a48:	6e696765 	cdpvs	7, 6, cr6, cr9, cr5, {3}

00003a4c <Code_992>:
    3a4c:	b500      	push	{lr}
    3a4e:	f7ff fed6 	bl	37fe <branch_r>
    3a52:	3f04      	subs	r7, #4
    3a54:	603e      	str	r6, [r7, #0]
    3a56:	2601      	movs	r6, #1
    3a58:	bd00      	pop	{pc}
    3a5a:	ff010000 			; <UNDEFINED> instruction: 0xff010000
    3a5e:	ff00ffff 			; <UNDEFINED> instruction: 0xff00ffff
    3a62:	f000ffff 			; <UNDEFINED> instruction: 0xf000ffff
    3a66:	f8011fff 			; <UNDEFINED> instruction: 0xf8011fff
    3a6a:	f800ffff 			; <UNDEFINED> instruction: 0xf800ffff
    3a6e:	07ffffff 			; <UNDEFINED> instruction: 0x07ffffff
    3a72:	e0000000 	and	r0, r0, r0
    3a76:	f0240000 			; <UNDEFINED> instruction: 0xf0240000
    3a7a:	2e001fff 	mcrcs	15, 0, r1, cr0, cr15, {7}
    3a7e:	cf400000 	svcgt	0x00400000
    3a82:	d1000000 	mrsle	r0, (UNDEF: 0)
    3a86:	d7000000 	strle	r0, [r0, -r0]
    3a8a:	d0000000 	andle	r0, r0, r0
    3a8e:	22000000 	andcs	r0, r0, #0
    3a92:	28000000 	stmdacs	r0, {}	; <UNPREDICTABLE>
	...

00003a98 <Dictionary_995>:
    3a98:	00003ab4 			; <UNDEFINED> instruction: 0x00003ab4
    3a9c:	6b010220 	blvs	44324 <BIT18+0x4324>

00003aa0 <Code_995>:
    3aa0:	3f04      	subs	r7, #4
    3aa2:	603e      	str	r6, [r7, #0]
    3aa4:	9e02      	ldr	r6, [sp, #8]
    3aa6:	4770      	bx	lr
    3aa8:	b500      	push	{lr}
    3aaa:	3f04      	subs	r7, #4
    3aac:	603e      	str	r6, [r7, #0]
    3aae:	4e8c      	ldr	r6, [pc, #560]	; (3ce0 <gemeinsame_schleifenoptimierung+0x6e>)
    3ab0:	e00c      	b.n	3acc <loop_j_allocator>
    3ab2:	46c0      	nop			; (mov r8, r8)

00003ab4 <Dictionary_999>:
    3ab4:	00003ae0 	andeq	r3, r0, r0, ror #21
    3ab8:	6a010220 	bvs	44340 <BIT18+0x4340>

00003abc <Code_999>:
    3abc:	3f04      	subs	r7, #4
    3abe:	603e      	str	r6, [r7, #0]
    3ac0:	9e00      	ldr	r6, [sp, #0]
    3ac2:	4770      	bx	lr
    3ac4:	b500      	push	{lr}
    3ac6:	3f04      	subs	r7, #4
    3ac8:	603e      	str	r6, [r7, #0]
    3aca:	4e86      	ldr	r6, [pc, #536]	; (3ce4 <gemeinsame_schleifenoptimierung+0x72>)

00003acc <loop_j_allocator>:
    3acc:	f7fc fcfa 	bl	4c4 <befreie_tos>
    3ad0:	f7fc fd5c 	bl	58c <get_free_register>
    3ad4:	6103      	str	r3, [r0, #16]
    3ad6:	021b      	lsls	r3, r3, #8
    3ad8:	431e      	orrs	r6, r3
    3ada:	f7ff fb18 	bl	310e <Code_816>
    3ade:	bd00      	pop	{pc}

00003ae0 <Dictionary_1003>:
    3ae0:	00003b0c 	andeq	r3, r0, ip, lsl #22
    3ae4:	69010220 	stmdbvs	r1, {r5, r9}

00003ae8 <Code_1003>:
    3ae8:	3f04      	subs	r7, #4
    3aea:	603e      	str	r6, [r7, #0]
    3aec:	0026      	movs	r6, r4
    3aee:	4770      	bx	lr
    3af0:	b500      	push	{lr}
    3af2:	3f04      	subs	r7, #4
    3af4:	603e      	str	r6, [r7, #0]
    3af6:	4e7c      	ldr	r6, [pc, #496]	; (3ce8 <gemeinsame_schleifenoptimierung+0x76>)
    3af8:	f7fc fce4 	bl	4c4 <befreie_tos>
    3afc:	f7fc fd46 	bl	58c <get_free_register>
    3b00:	6103      	str	r3, [r0, #16]
    3b02:	431e      	orrs	r6, r3
    3b04:	f7ff fb03 	bl	310e <Code_816>
    3b08:	bd00      	pop	{pc}
    3b0a:	46c0      	nop			; (mov r8, r8)

00003b0c <Dictionary_1008>:
    3b0c:	00003b4c 	andeq	r3, r0, ip, asr #22
    3b10:	6c050030 	stcvs	0, cr0, [r5], {48}	; 0x30
    3b14:	65766165 	ldrbvs	r6, [r6, #-357]!	; 0x165

00003b18 <Code_1008>:
    3b18:	b500      	push	{lr}
    3b1a:	4874      	ldr	r0, [pc, #464]	; (3cec <gemeinsame_schleifenoptimierung+0x7a>)
    3b1c:	6801      	ldr	r1, [r0, #0]
    3b1e:	003b      	movs	r3, r7
    3b20:	3f04      	subs	r7, #4
    3b22:	681a      	ldr	r2, [r3, #0]
    3b24:	3b04      	subs	r3, #4
    3b26:	601a      	str	r2, [r3, #0]
    3b28:	3308      	adds	r3, #8
    3b2a:	428b      	cmp	r3, r1
    3b2c:	d1f9      	bne.n	3b22 <Code_1008+0xa>
    3b2e:	b403      	push	{r0, r1}
    3b30:	f7ff fea0 	bl	3874 <branch_v>
    3b34:	bc03      	pop	{r0, r1}
    3b36:	0033      	movs	r3, r6
    3b38:	cf40      	ldmia	r7!, {r6}
    3b3a:	3904      	subs	r1, #4
    3b3c:	600b      	str	r3, [r1, #0]
    3b3e:	6001      	str	r1, [r0, #0]
    3b40:	3904      	subs	r1, #4
    3b42:	680a      	ldr	r2, [r1, #0]
    3b44:	3201      	adds	r2, #1
    3b46:	600a      	str	r2, [r1, #0]
    3b48:	bd00      	pop	{pc}
    3b4a:	46c0      	nop			; (mov r8, r8)

00003b4c <Dictionary_1010>:
    3b4c:	00003b60 	andeq	r3, r0, r0, ror #22
    3b50:	75060020 	strvc	r0, [r6, #-32]
    3b54:	6f6f6c6e 	svcvs	0x006f6c6e
    3b58:	bc300070 	ldclt	0, cr0, [r0], #-448	; 0xfffffe40

00003b5a <Code_1010>:
    3b5a:	bc30      	pop	{r4, r5}
    3b5c:	4770      	bx	lr
    3b5e:	46c0      	nop			; (mov r8, r8)

00003b60 <Dictionary_1011>:
    3b60:	00003b98 	muleq	r0, r8, fp
    3b64:	2b050030 	blcs	143c2c <BIT20+0x43c2c>
    3b68:	706f6f6c 	rsbvc	r6, pc, ip, ror #30

00003b6c <Code_1011>:
    3b6c:	2e03      	cmp	r6, #3
    3b6e:	d000      	beq.n	3b72 <Code_1011+0x6>
    3b70:	e706      	b.n	3980 <strukturen_passen_nicht>
    3b72:	cf40      	ldmia	r7!, {r6}
    3b74:	b500      	push	{lr}
    3b76:	3f04      	subs	r7, #4
    3b78:	603e      	str	r6, [r7, #0]
    3b7a:	4e5d      	ldr	r6, [pc, #372]	; (3cf0 <gemeinsame_schleifenoptimierung+0x7e>)
    3b7c:	f7ff f8cf 	bl	2d1e <Code_740>
    3b80:	f7ff fe4a 	bl	3818 <r_branch_jvc>
    3b84:	e01a      	b.n	3bbc <loop_intern>

00003b86 <struktur_plusloop>:
    3b86:	2080      	movs	r0, #128	; 0x80
    3b88:	0600      	lsls	r0, r0, #24
    3b8a:	1900      	adds	r0, r0, r4
    3b8c:	19a4      	adds	r4, r4, r6
    3b8e:	1b40      	subs	r0, r0, r5
    3b90:	1980      	adds	r0, r0, r6
    3b92:	cf40      	ldmia	r7!, {r6}
    3b94:	4770      	bx	lr
    3b96:	46c0      	nop			; (mov r8, r8)

00003b98 <Dictionary_1015>:
    3b98:	00003bdc 	ldrdeq	r3, [r0], -ip
    3b9c:	6c040030 	stcvs	0, cr0, [r4], {48}	; 0x30
    3ba0:	00706f6f 	rsbseq	r6, r0, pc, ror #30

00003ba4 <Code_1015>:
    3ba4:	2e03      	cmp	r6, #3
    3ba6:	d000      	beq.n	3baa <Code_1015+0x6>
    3ba8:	e6ea      	b.n	3980 <strukturen_passen_nicht>
    3baa:	cf40      	ldmia	r7!, {r6}
    3bac:	b500      	push	{lr}
    3bae:	3f04      	subs	r7, #4
    3bb0:	603e      	str	r6, [r7, #0]
    3bb2:	4e50      	ldr	r6, [pc, #320]	; (3cf4 <gemeinsame_schleifenoptimierung+0x82>)
    3bb4:	f7ff f8b3 	bl	2d1e <Code_740>
    3bb8:	f7ff fe22 	bl	3800 <r_branch_jne>

00003bbc <loop_intern>:
    3bbc:	f000 f946 	bl	3e4c <spruenge_einpflegen>
    3bc0:	484a      	ldr	r0, [pc, #296]	; (3cec <gemeinsame_schleifenoptimierung+0x7a>)
    3bc2:	0031      	movs	r1, r6
    3bc4:	cf40      	ldmia	r7!, {r6}
    3bc6:	6001      	str	r1, [r0, #0]
    3bc8:	3f04      	subs	r7, #4
    3bca:	603e      	str	r6, [r7, #0]
    3bcc:	4e4a      	ldr	r6, [pc, #296]	; (3cf8 <gemeinsame_schleifenoptimierung+0x86>)
    3bce:	f7ff f8a6 	bl	2d1e <Code_740>
    3bd2:	bd00      	pop	{pc}

00003bd4 <struktur_loop>:
    3bd4:	3401      	adds	r4, #1
    3bd6:	42ac      	cmp	r4, r5
    3bd8:	4770      	bx	lr
    3bda:	46c0      	nop			; (mov r8, r8)

00003bdc <Dictionary_1020>:
    3bdc:	00003c24 	andeq	r3, r0, r4, lsr #24
    3be0:	64020230 	strvs	r0, [r2], #-560	; 0x230
    3be4:	b500006f 	strlt	r0, [r0, #-111]	; 0x6f

00003be6 <Code_1020>:
    3be6:	b500      	push	{lr}
    3be8:	3f04      	subs	r7, #4
    3bea:	603e      	str	r6, [r7, #0]
    3bec:	4e43      	ldr	r6, [pc, #268]	; (3cfc <gemeinsame_schleifenoptimierung+0x8a>)
    3bee:	f7ff f896 	bl	2d1e <Code_740>

00003bf2 <do_rest_der_schleifenstruktur>:
    3bf2:	483e      	ldr	r0, [pc, #248]	; (3cec <gemeinsame_schleifenoptimierung+0x7a>)
    3bf4:	6801      	ldr	r1, [r0, #0]
    3bf6:	3f04      	subs	r7, #4
    3bf8:	603e      	str	r6, [r7, #0]
    3bfa:	000e      	movs	r6, r1
    3bfc:	3f04      	subs	r7, #4
    3bfe:	603e      	str	r6, [r7, #0]
    3c00:	2600      	movs	r6, #0
    3c02:	6007      	str	r7, [r0, #0]
    3c04:	f7ff fdfb 	bl	37fe <branch_r>
    3c08:	3f04      	subs	r7, #4
    3c0a:	603e      	str	r6, [r7, #0]
    3c0c:	2603      	movs	r6, #3
    3c0e:	bd00      	pop	{pc}
    3c10:	b500      	push	{lr}
    3c12:	f000 f82e 	bl	3c72 <gemeinsame_schleifenoptimierung>
    3c16:	e7ec      	b.n	3bf2 <do_rest_der_schleifenstruktur>

00003c18 <struktur_do>:
    3c18:	b430      	push	{r4, r5}
    3c1a:	0034      	movs	r4, r6
    3c1c:	cf40      	ldmia	r7!, {r6}
    3c1e:	0035      	movs	r5, r6
    3c20:	cf40      	ldmia	r7!, {r6}
    3c22:	4770      	bx	lr

00003c24 <Dictionary_1030>:
    3c24:	00003d10 	andeq	r3, r0, r0, lsl sp
    3c28:	3f030230 	svccc	0x00030230
    3c2c:	b5006f64 	strlt	r6, [r0, #-3940]	; 0xf64

00003c2e <Code_1030>:
    3c2e:	b500      	push	{lr}
    3c30:	3f04      	subs	r7, #4
    3c32:	603e      	str	r6, [r7, #0]
    3c34:	4e31      	ldr	r6, [pc, #196]	; (3cfc <gemeinsame_schleifenoptimierung+0x8a>)
    3c36:	f7ff f872 	bl	2d1e <Code_740>

00003c3a <qdo_rest_der_schleifenstruktur>:
    3c3a:	3f04      	subs	r7, #4
    3c3c:	603e      	str	r6, [r7, #0]
    3c3e:	4e30      	ldr	r6, [pc, #192]	; (3d00 <gemeinsame_schleifenoptimierung+0x8e>)
    3c40:	f7ff fa65 	bl	310e <Code_816>
    3c44:	4829      	ldr	r0, [pc, #164]	; (3cec <gemeinsame_schleifenoptimierung+0x7a>)
    3c46:	6801      	ldr	r1, [r0, #0]
    3c48:	3f04      	subs	r7, #4
    3c4a:	603e      	str	r6, [r7, #0]
    3c4c:	000e      	movs	r6, r1
    3c4e:	f7ff fe11 	bl	3874 <branch_v>
    3c52:	3601      	adds	r6, #1
    3c54:	3f04      	subs	r7, #4
    3c56:	603e      	str	r6, [r7, #0]
    3c58:	2601      	movs	r6, #1
    3c5a:	4824      	ldr	r0, [pc, #144]	; (3cec <gemeinsame_schleifenoptimierung+0x7a>)
    3c5c:	6007      	str	r7, [r0, #0]
    3c5e:	f7ff fdce 	bl	37fe <branch_r>
    3c62:	3f04      	subs	r7, #4
    3c64:	603e      	str	r6, [r7, #0]
    3c66:	2603      	movs	r6, #3
    3c68:	bd00      	pop	{pc}
    3c6a:	b500      	push	{lr}
    3c6c:	f000 f801 	bl	3c72 <gemeinsame_schleifenoptimierung>
    3c70:	e7e3      	b.n	3c3a <qdo_rest_der_schleifenstruktur>

00003c72 <gemeinsame_schleifenoptimierung>:
    3c72:	b500      	push	{lr}
    3c74:	f7fc fcb7 	bl	5e6 <expect_two_elements>
    3c78:	f7fc fdb6 	bl	7e8 <tidyup_register_allocator_3os>
    3c7c:	3f04      	subs	r7, #4
    3c7e:	603e      	str	r6, [r7, #0]
    3c80:	4e20      	ldr	r6, [pc, #128]	; (3d04 <gemeinsame_schleifenoptimierung+0x92>)
    3c82:	f7ff fa44 	bl	310e <Code_816>
    3c86:	6901      	ldr	r1, [r0, #16]
    3c88:	2928      	cmp	r1, #40	; 0x28
    3c8a:	d007      	beq.n	3c9c <gemeinsame_schleifenoptimierung+0x2a>
    3c8c:	3f04      	subs	r7, #4
    3c8e:	603e      	str	r6, [r7, #0]
    3c90:	4e1d      	ldr	r6, [pc, #116]	; (3d08 <gemeinsame_schleifenoptimierung+0x96>)
    3c92:	00c9      	lsls	r1, r1, #3
    3c94:	430e      	orrs	r6, r1
    3c96:	f7ff fa3a 	bl	310e <Code_816>
    3c9a:	e007      	b.n	3cac <gemeinsame_schleifenoptimierung+0x3a>
    3c9c:	3f04      	subs	r7, #4
    3c9e:	603e      	str	r6, [r7, #0]
    3ca0:	6946      	ldr	r6, [r0, #20]
    3ca2:	3f04      	subs	r7, #4
    3ca4:	603e      	str	r6, [r7, #0]
    3ca6:	2604      	movs	r6, #4
    3ca8:	f7fe fe9a 	bl	29e0 <Code_672>
    3cac:	6981      	ldr	r1, [r0, #24]
    3cae:	2928      	cmp	r1, #40	; 0x28
    3cb0:	d007      	beq.n	3cc2 <gemeinsame_schleifenoptimierung+0x50>
    3cb2:	3f04      	subs	r7, #4
    3cb4:	603e      	str	r6, [r7, #0]
    3cb6:	4e15      	ldr	r6, [pc, #84]	; (3d0c <gemeinsame_schleifenoptimierung+0x9a>)
    3cb8:	00c9      	lsls	r1, r1, #3
    3cba:	430e      	orrs	r6, r1
    3cbc:	f7ff fa27 	bl	310e <Code_816>
    3cc0:	e007      	b.n	3cd2 <gemeinsame_schleifenoptimierung+0x60>
    3cc2:	3f04      	subs	r7, #4
    3cc4:	603e      	str	r6, [r7, #0]
    3cc6:	69c6      	ldr	r6, [r0, #28]
    3cc8:	3f04      	subs	r7, #4
    3cca:	603e      	str	r6, [r7, #0]
    3ccc:	2605      	movs	r6, #5
    3cce:	f7fe fe87 	bl	29e0 <Code_672>
    3cd2:	f7fc fcc5 	bl	660 <eliminiere_tos>
    3cd6:	f7fc fcc3 	bl	660 <eliminiere_tos>
    3cda:	f7fc fd8f 	bl	7fc <tidyup_register_allocator_tos>
    3cde:	bd00      	pop	{pc}
    3ce0:	00009802 	andeq	r9, r0, r2, lsl #16
    3ce4:	00009800 	andeq	r9, r0, r0, lsl #16
    3ce8:	00000020 	andeq	r0, r0, r0, lsr #32
    3cec:	1ffff00c 	svcne	0x00fff00c
    3cf0:	00003b86 	andeq	r3, r0, r6, lsl #23
    3cf4:	00003bd4 	ldrdeq	r3, [r0], -r4
    3cf8:	00003b5a 	andeq	r3, r0, sl, asr fp
    3cfc:	00003c18 	andeq	r3, r0, r8, lsl ip
    3d00:	000042ac 	andeq	r4, r0, ip, lsr #5
    3d04:	0000b430 	andeq	fp, r0, r0, lsr r4
    3d08:	00000004 	andeq	r0, r0, r4
    3d0c:	00000005 	andeq	r0, r0, r5

00003d10 <Dictionary_1052>:
    3d10:	00003d2c 	andeq	r3, r0, ip, lsr #26
    3d14:	63040030 	movwvs	r0, #16432	; 0x4030
    3d18:	00657361 	rsbeq	r7, r5, r1, ror #6

00003d1c <Code_1052>:
    3d1c:	3f04      	subs	r7, #4
    3d1e:	603e      	str	r6, [r7, #0]
    3d20:	2600      	movs	r6, #0
    3d22:	3f04      	subs	r7, #4
    3d24:	603e      	str	r6, [r7, #0]
    3d26:	2608      	movs	r6, #8
    3d28:	4770      	bx	lr
    3d2a:	46c0      	nop			; (mov r8, r8)

00003d2c <Dictionary_1057>:
    3d2c:	00003d44 	andeq	r3, r0, r4, asr #26
    3d30:	3f030030 	svccc	0x00030030
    3d34:	486a666f 	stmdami	sl!, {r0, r1, r2, r3, r5, r6, r9, sl, sp, lr}^

00003d36 <Code_1057>:
    3d36:	486a      	ldr	r0, [pc, #424]	; (3ee0 <Code_1094+0x4c>)
    3d38:	e00a      	b.n	3d50 <of_inneneinsprung>

00003d3a <struktur_qof>:
    3d3a:	3e01      	subs	r6, #1
    3d3c:	41b6      	sbcs	r6, r6
    3d3e:	cf40      	ldmia	r7!, {r6}
    3d40:	4770      	bx	lr
    3d42:	46c0      	nop			; (mov r8, r8)

00003d44 <Dictionary_1059>:
    3d44:	00003dec 	andeq	r3, r0, ip, ror #27
    3d48:	6f020230 	svcvs	0x00020230
    3d4c:	48650066 	stmdami	r5!, {r1, r2, r5, r6}^

00003d4e <Code_1059>:
    3d4e:	4865      	ldr	r0, [pc, #404]	; (3ee4 <Code_1094+0x50>)

00003d50 <of_inneneinsprung>:
    3d50:	2e08      	cmp	r6, #8
    3d52:	d000      	beq.n	3d56 <of_inneneinsprung+0x6>
    3d54:	e614      	b.n	3980 <strukturen_passen_nicht>
    3d56:	cf40      	ldmia	r7!, {r6}
    3d58:	b500      	push	{lr}
    3d5a:	3f04      	subs	r7, #4
    3d5c:	603e      	str	r6, [r7, #0]
    3d5e:	0006      	movs	r6, r0
    3d60:	f7fe ffdd 	bl	2d1e <Code_740>

00003d64 <of_opcodiereinsprung>:
    3d64:	f7ff fd86 	bl	3874 <branch_v>
    3d68:	6839      	ldr	r1, [r7, #0]
    3d6a:	603e      	str	r6, [r7, #0]
    3d6c:	460e      	mov	r6, r1
    3d6e:	3601      	adds	r6, #1
    3d70:	3f04      	subs	r7, #4
    3d72:	603e      	str	r6, [r7, #0]
    3d74:	2609      	movs	r6, #9
    3d76:	3f04      	subs	r7, #4
    3d78:	603e      	str	r6, [r7, #0]
    3d7a:	4e5b      	ldr	r6, [pc, #364]	; (3ee8 <Code_1094+0x54>)
    3d7c:	f7ff f9c7 	bl	310e <Code_816>
    3d80:	bd00      	pop	{pc}
    3d82:	2e08      	cmp	r6, #8
    3d84:	d000      	beq.n	3d88 <of_opcodiereinsprung+0x24>
    3d86:	e5fb      	b.n	3980 <strukturen_passen_nicht>
    3d88:	cf40      	ldmia	r7!, {r6}
    3d8a:	b500      	push	{lr}
    3d8c:	f7fc fc2b 	bl	5e6 <expect_two_elements>
    3d90:	f7fc fd2a 	bl	7e8 <tidyup_register_allocator_3os>
    3d94:	3f04      	subs	r7, #4
    3d96:	603e      	str	r6, [r7, #0]
    3d98:	4e54      	ldr	r6, [pc, #336]	; (3eec <Code_1094+0x58>)
    3d9a:	f7fc fc4e 	bl	63a <expect_nos_in_register>
    3d9e:	430e      	orrs	r6, r1
    3da0:	6902      	ldr	r2, [r0, #16]
    3da2:	2a28      	cmp	r2, #40	; 0x28
    3da4:	d115      	bne.n	3dd2 <of_opcodiereinsprung+0x6e>
    3da6:	6942      	ldr	r2, [r0, #20]
    3da8:	2aff      	cmp	r2, #255	; 0xff
    3daa:	d807      	bhi.n	3dbc <of_opcodiereinsprung+0x58>
    3dac:	cf40      	ldmia	r7!, {r6}
    3dae:	3f04      	subs	r7, #4
    3db0:	603e      	str	r6, [r7, #0]
    3db2:	4e4f      	ldr	r6, [pc, #316]	; (3ef0 <Code_1094+0x5c>)
    3db4:	4316      	orrs	r6, r2
    3db6:	0209      	lsls	r1, r1, #8
    3db8:	430e      	orrs	r6, r1
    3dba:	e00c      	b.n	3dd6 <of_opcodiereinsprung+0x72>
    3dbc:	3f04      	subs	r7, #4
    3dbe:	603e      	str	r6, [r7, #0]
    3dc0:	0016      	movs	r6, r2
    3dc2:	f7fc fbe3 	bl	58c <get_free_register>
    3dc6:	001a      	movs	r2, r3
    3dc8:	3f04      	subs	r7, #4
    3dca:	603e      	str	r6, [r7, #0]
    3dcc:	001e      	movs	r6, r3
    3dce:	f7fe fe07 	bl	29e0 <Code_672>
    3dd2:	00d2      	lsls	r2, r2, #3
    3dd4:	4316      	orrs	r6, r2
    3dd6:	f7ff f99a 	bl	310e <Code_816>
    3dda:	f7fc fc41 	bl	660 <eliminiere_tos>
    3dde:	f7fc fd0d 	bl	7fc <tidyup_register_allocator_tos>
    3de2:	e7bf      	b.n	3d64 <of_opcodiereinsprung>

00003de4 <struktur_of>:
    3de4:	0030      	movs	r0, r6
    3de6:	cf40      	ldmia	r7!, {r6}
    3de8:	42b0      	cmp	r0, r6
    3dea:	4770      	bx	lr

00003dec <Dictionary_1079>:
    3dec:	00003e24 	andeq	r3, r0, r4, lsr #28
    3df0:	65050030 	strvs	r0, [r5, #-48]	; 0x30
    3df4:	666f646e 	strbtvs	r6, [pc], -lr, ror #8

00003df8 <Code_1079>:
    3df8:	2e09      	cmp	r6, #9
    3dfa:	d000      	beq.n	3dfe <Code_1079+0x6>
    3dfc:	e5c0      	b.n	3980 <strukturen_passen_nicht>
    3dfe:	cf40      	ldmia	r7!, {r6}
    3e00:	b500      	push	{lr}
    3e02:	b440      	push	{r6}
    3e04:	cf40      	ldmia	r7!, {r6}
    3e06:	f7ff fd35 	bl	3874 <branch_v>
    3e0a:	6839      	ldr	r1, [r7, #0]
    3e0c:	603e      	str	r6, [r7, #0]
    3e0e:	460e      	mov	r6, r1
    3e10:	f7ff fd48 	bl	38a4 <v_casebranch>
    3e14:	3f04      	subs	r7, #4
    3e16:	603e      	str	r6, [r7, #0]
    3e18:	bc40      	pop	{r6}
    3e1a:	3f04      	subs	r7, #4
    3e1c:	603e      	str	r6, [r7, #0]
    3e1e:	2608      	movs	r6, #8
    3e20:	bd00      	pop	{pc}
    3e22:	46c0      	nop			; (mov r8, r8)

00003e24 <Dictionary_1087>:
    3e24:	00003e74 	andeq	r3, r0, r4, ror lr
    3e28:	65070030 	strvs	r0, [r7, #-48]	; 0x30
    3e2c:	6163646e 	cmnvs	r3, lr, ror #8
    3e30:	2e086573 	cfrshl64cs	mvdx8, mvdx3, r6

00003e32 <Code_1087>:
    3e32:	2e08      	cmp	r6, #8
    3e34:	d000      	beq.n	3e38 <Code_1087+0x6>
    3e36:	e5a3      	b.n	3980 <strukturen_passen_nicht>
    3e38:	cf40      	ldmia	r7!, {r6}
    3e3a:	b500      	push	{lr}
    3e3c:	3f04      	subs	r7, #4
    3e3e:	603e      	str	r6, [r7, #0]
    3e40:	4e29      	ldr	r6, [pc, #164]	; (3ee8 <Code_1094+0x54>)
    3e42:	f7ff f964 	bl	310e <Code_816>
    3e46:	f000 f801 	bl	3e4c <spruenge_einpflegen>
    3e4a:	bd00      	pop	{pc}

00003e4c <spruenge_einpflegen>:
    3e4c:	b500      	push	{lr}
    3e4e:	0030      	movs	r0, r6
    3e50:	cf40      	ldmia	r7!, {r6}
    3e52:	2800      	cmp	r0, #0
    3e54:	d00d      	beq.n	3e72 <spruenge_einpflegen+0x26>
    3e56:	b403      	push	{r0, r1}
    3e58:	2101      	movs	r1, #1
    3e5a:	4031      	ands	r1, r6
    3e5c:	2900      	cmp	r1, #0
    3e5e:	d003      	beq.n	3e68 <spruenge_einpflegen+0x1c>
    3e60:	3e01      	subs	r6, #1
    3e62:	f7ff fd16 	bl	3892 <v_nullbranch>
    3e66:	e001      	b.n	3e6c <spruenge_einpflegen+0x20>
    3e68:	f7ff fd0d 	bl	3886 <v_branch>
    3e6c:	bc03      	pop	{r0, r1}
    3e6e:	3801      	subs	r0, #1
    3e70:	e7ef      	b.n	3e52 <spruenge_einpflegen+0x6>
    3e72:	bd00      	pop	{pc}

00003e74 <Dictionary_1092>:
    3e74:	00003e88 	andeq	r3, r0, r8, lsl #29
    3e78:	74050000 	strvc	r0, [r5], #-0
    3e7c:	6e656b6f 	vnmulvs.f64	d22, d5, d31

00003e80 <Code_1092>:
    3e80:	3f04      	subs	r7, #4
    3e82:	603e      	str	r6, [r7, #0]
    3e84:	2620      	movs	r6, #32
    3e86:	e005      	b.n	3e94 <Code_1094>

00003e88 <Dictionary_1094>:
    3e88:	00003ef8 	strdeq	r3, [r0], -r8
    3e8c:	70050000 	andvc	r0, r5, r0
    3e90:	65737261 	ldrbvs	r7, [r3, #-609]!	; 0x261

00003e94 <Code_1094>:
    3e94:	b510      	push	{r4, lr}
    3e96:	f7fe fb98 	bl	25ca <Code_580>
    3e9a:	0031      	movs	r1, r6
    3e9c:	cf40      	ldmia	r7!, {r6}
    3e9e:	0030      	movs	r0, r6
    3ea0:	cf40      	ldmia	r7!, {r6}
    3ea2:	4a14      	ldr	r2, [pc, #80]	; (3ef4 <Code_1094+0x60>)
    3ea4:	6812      	ldr	r2, [r2, #0]
    3ea6:	1884      	adds	r4, r0, r2
    3ea8:	2e20      	cmp	r6, #32
    3eaa:	d107      	bne.n	3ebc <Code_1094+0x28>
    3eac:	4291      	cmp	r1, r2
    3eae:	d00f      	beq.n	3ed0 <Code_1094+0x3c>
    3eb0:	5c83      	ldrb	r3, [r0, r2]
    3eb2:	42b3      	cmp	r3, r6
    3eb4:	d102      	bne.n	3ebc <Code_1094+0x28>
    3eb6:	3201      	adds	r2, #1
    3eb8:	1884      	adds	r4, r0, r2
    3eba:	e7f7      	b.n	3eac <Code_1094+0x18>
    3ebc:	4291      	cmp	r1, r2
    3ebe:	d007      	beq.n	3ed0 <Code_1094+0x3c>
    3ec0:	5c83      	ldrb	r3, [r0, r2]
    3ec2:	3201      	adds	r2, #1
    3ec4:	42b3      	cmp	r3, r6
    3ec6:	d1f9      	bne.n	3ebc <Code_1094+0x28>
    3ec8:	1886      	adds	r6, r0, r2
    3eca:	1b36      	subs	r6, r6, r4
    3ecc:	3e01      	subs	r6, #1
    3ece:	e001      	b.n	3ed4 <Code_1094+0x40>
    3ed0:	1886      	adds	r6, r0, r2
    3ed2:	1b36      	subs	r6, r6, r4
    3ed4:	3f04      	subs	r7, #4
    3ed6:	603c      	str	r4, [r7, #0]
    3ed8:	4806      	ldr	r0, [pc, #24]	; (3ef4 <Code_1094+0x60>)
    3eda:	6002      	str	r2, [r0, #0]
    3edc:	bd10      	pop	{r4, pc}
    3ede:	3d3a0000 	ldccc	0, cr0, [sl, #-0]
    3ee2:	3de40000 	stclcc	0, cr0, [r4]
    3ee6:	cf400000 	svcgt	0x00400000
    3eea:	42800000 	addmi	r0, r0, #0
    3eee:	28000000 	stmdacs	r0, {}	; <UNPREDICTABLE>
    3ef2:	2fe40000 	svccs	0x00e40000
    3ef6:	3f382000 	svccc	0x00382000

00003ef8 <Dictionary_1097>:
    3ef8:	00003f38 	andeq	r3, r0, r8, lsr pc
    3efc:	64050000 	strvs	r0, [r5], #-0
    3f00:	74696769 	strbtvc	r6, [r9], #-1897	; 0x769

00003f04 <Code_1097>:
    3f04:	4bd4      	ldr	r3, [pc, #848]	; (4258 <Code_1160+0x8>)
    3f06:	681b      	ldr	r3, [r3, #0]

00003f08 <digit_base_r3>:
    3f08:	3e30      	subs	r6, #48	; 0x30
    3f0a:	d30b      	bcc.n	3f24 <digit_base_r3+0x1c>
    3f0c:	2e0a      	cmp	r6, #10
    3f0e:	d30b      	bcc.n	3f28 <digit_base_r3+0x20>
    3f10:	3e07      	subs	r6, #7
    3f12:	2e0a      	cmp	r6, #10
    3f14:	d306      	bcc.n	3f24 <digit_base_r3+0x1c>
    3f16:	2e24      	cmp	r6, #36	; 0x24
    3f18:	d306      	bcc.n	3f28 <digit_base_r3+0x20>
    3f1a:	3e20      	subs	r6, #32
    3f1c:	2e0a      	cmp	r6, #10
    3f1e:	d301      	bcc.n	3f24 <digit_base_r3+0x1c>
    3f20:	2e24      	cmp	r6, #36	; 0x24
    3f22:	d301      	bcc.n	3f28 <digit_base_r3+0x20>
    3f24:	2600      	movs	r6, #0
    3f26:	4770      	bx	lr
    3f28:	429e      	cmp	r6, r3
    3f2a:	d2fb      	bcs.n	3f24 <digit_base_r3+0x1c>
    3f2c:	3f04      	subs	r7, #4
    3f2e:	603e      	str	r6, [r7, #0]
    3f30:	2600      	movs	r6, #0
    3f32:	43f6      	mvns	r6, r6
    3f34:	4770      	bx	lr
    3f36:	46c0      	nop			; (mov r8, r8)

00003f38 <Dictionary_1099>:
    3f38:	00004044 	andeq	r4, r0, r4, asr #32
    3f3c:	6e060000 	cdpvs	0, 0, cr0, cr6, cr0, {0}
    3f40:	65626d75 	strbvs	r6, [r2, #-3445]!	; 0xd75
    3f44:	b53f0072 	ldrlt	r0, [pc, #-114]!	; 3eda <Code_1094+0x46>

00003f46 <Code_1099>:
    3f46:	b53f      	push	{r0, r1, r2, r3, r4, r5, lr}
    3f48:	0031      	movs	r1, r6
    3f4a:	cf40      	ldmia	r7!, {r6}
    3f4c:	1e70      	subs	r0, r6, #1
    3f4e:	2601      	movs	r6, #1
    3f50:	2201      	movs	r2, #1
    3f52:	b404      	push	{r2}
    3f54:	4bc0      	ldr	r3, [pc, #768]	; (4258 <Code_1160+0x8>)
    3f56:	681b      	ldr	r3, [r3, #0]
    3f58:	2400      	movs	r4, #0
    3f5a:	2500      	movs	r5, #0
    3f5c:	2900      	cmp	r1, #0
    3f5e:	d03c      	beq.n	3fda <Code_1099+0x94>
    3f60:	3001      	adds	r0, #1
    3f62:	3901      	subs	r1, #1
    3f64:	7802      	ldrb	r2, [r0, #0]
    3f66:	2a2d      	cmp	r2, #45	; 0x2d
    3f68:	d104      	bne.n	3f74 <Code_1099+0x2e>
    3f6a:	b001      	add	sp, #4
    3f6c:	2200      	movs	r2, #0
    3f6e:	43d2      	mvns	r2, r2
    3f70:	b404      	push	{r2}
    3f72:	e7f3      	b.n	3f5c <Code_1099+0x16>
    3f74:	2a23      	cmp	r2, #35	; 0x23
    3f76:	d101      	bne.n	3f7c <Code_1099+0x36>
    3f78:	230a      	movs	r3, #10
    3f7a:	e7ef      	b.n	3f5c <Code_1099+0x16>
    3f7c:	2a24      	cmp	r2, #36	; 0x24
    3f7e:	d101      	bne.n	3f84 <Code_1099+0x3e>
    3f80:	2310      	movs	r3, #16
    3f82:	e7eb      	b.n	3f5c <Code_1099+0x16>
    3f84:	2a25      	cmp	r2, #37	; 0x25
    3f86:	d101      	bne.n	3f8c <Code_1099+0x46>
    3f88:	2302      	movs	r3, #2
    3f8a:	e7e7      	b.n	3f5c <Code_1099+0x16>
    3f8c:	2a2e      	cmp	r2, #46	; 0x2e
    3f8e:	d101      	bne.n	3f94 <Code_1099+0x4e>
    3f90:	2602      	movs	r6, #2
    3f92:	e7e3      	b.n	3f5c <Code_1099+0x16>
    3f94:	2a2c      	cmp	r2, #44	; 0x2c
    3f96:	d036      	beq.n	4006 <number_nachkommastellen>
    3f98:	3f04      	subs	r7, #4
    3f9a:	603e      	str	r6, [r7, #0]
    3f9c:	0016      	movs	r6, r2
    3f9e:	f7ff ffb3 	bl	3f08 <digit_base_r3>
    3fa2:	2e00      	cmp	r6, #0
    3fa4:	cf40      	ldmia	r7!, {r6}
    3fa6:	d02b      	beq.n	4000 <BIT14>
    3fa8:	3f04      	subs	r7, #4
    3faa:	603e      	str	r6, [r7, #0]
    3fac:	0026      	movs	r6, r4
    3fae:	3f04      	subs	r7, #4
    3fb0:	603e      	str	r6, [r7, #0]
    3fb2:	002e      	movs	r6, r5
    3fb4:	3f04      	subs	r7, #4
    3fb6:	603e      	str	r6, [r7, #0]
    3fb8:	001e      	movs	r6, r3
    3fba:	3f04      	subs	r7, #4
    3fbc:	603e      	str	r6, [r7, #0]
    3fbe:	2600      	movs	r6, #0
    3fc0:	b40f      	push	{r0, r1, r2, r3}
    3fc2:	f7fc fdbc 	bl	b3e <Code_105>
    3fc6:	bc0f      	pop	{r0, r1, r2, r3}
    3fc8:	0035      	movs	r5, r6
    3fca:	cf40      	ldmia	r7!, {r6}
    3fcc:	0034      	movs	r4, r6
    3fce:	cf40      	ldmia	r7!, {r6}
    3fd0:	2200      	movs	r2, #0
    3fd2:	19a4      	adds	r4, r4, r6
    3fd4:	4155      	adcs	r5, r2
    3fd6:	cf40      	ldmia	r7!, {r6}
    3fd8:	e7c0      	b.n	3f5c <Code_1099+0x16>
    3fda:	bc04      	pop	{r2}
    3fdc:	2a00      	cmp	r2, #0
    3fde:	d504      	bpl.n	3fea <Code_1099+0xa4>
    3fe0:	2200      	movs	r2, #0
    3fe2:	43e4      	mvns	r4, r4
    3fe4:	43ed      	mvns	r5, r5
    3fe6:	3401      	adds	r4, #1
    3fe8:	4155      	adcs	r5, r2
    3fea:	0033      	movs	r3, r6
    3fec:	0026      	movs	r6, r4
    3fee:	2b01      	cmp	r3, #1
    3ff0:	d002      	beq.n	3ff8 <Code_1099+0xb2>
    3ff2:	3f04      	subs	r7, #4
    3ff4:	603e      	str	r6, [r7, #0]
    3ff6:	002e      	movs	r6, r5
    3ff8:	3f04      	subs	r7, #4
    3ffa:	603e      	str	r6, [r7, #0]
    3ffc:	001e      	movs	r6, r3
    3ffe:	bd3f      	pop	{r0, r1, r2, r3, r4, r5, pc}
    4000:	b001      	add	sp, #4
    4002:	2600      	movs	r6, #0
    4004:	bd3f      	pop	{r0, r1, r2, r3, r4, r5, pc}

00004006 <number_nachkommastellen>:
    4006:	0025      	movs	r5, r4
    4008:	2400      	movs	r4, #0
    400a:	2602      	movs	r6, #2
    400c:	2900      	cmp	r1, #0
    400e:	d0e4      	beq.n	3fda <Code_1099+0x94>
    4010:	5c42      	ldrb	r2, [r0, r1]
    4012:	3901      	subs	r1, #1
    4014:	2a2e      	cmp	r2, #46	; 0x2e
    4016:	d0f9      	beq.n	400c <number_nachkommastellen+0x6>
    4018:	3f04      	subs	r7, #4
    401a:	603e      	str	r6, [r7, #0]
    401c:	0016      	movs	r6, r2
    401e:	f7ff ff73 	bl	3f08 <digit_base_r3>
    4022:	2e00      	cmp	r6, #0
    4024:	cf40      	ldmia	r7!, {r6}
    4026:	d0eb      	beq.n	4000 <BIT14>
    4028:	3f04      	subs	r7, #4
    402a:	603c      	str	r4, [r7, #0]
    402c:	3f04      	subs	r7, #4
    402e:	603e      	str	r6, [r7, #0]
    4030:	001e      	movs	r6, r3
    4032:	b40f      	push	{r0, r1, r2, r3}
    4034:	f7fc fe37 	bl	ca6 <Code_141>
    4038:	bc0f      	pop	{r0, r1, r2, r3}
    403a:	0034      	movs	r4, r6
    403c:	cf40      	ldmia	r7!, {r6}
    403e:	cf40      	ldmia	r7!, {r6}
    4040:	e7e4      	b.n	400c <number_nachkommastellen+0x6>
    4042:	46c0      	nop			; (mov r8, r8)

00004044 <Dictionary_1126>:
    4044:	00004068 	andeq	r4, r0, r8, rrx
    4048:	2e060000 	cdpcs	0, 0, cr0, cr6, cr0, {0}
    404c:	69676964 	stmdbvs	r7!, {r2, r5, r6, r8, fp, sp, lr}^
    4050:	2e0a0074 	mcrcs	0, 0, r0, cr10, cr4, {3}

00004052 <Code_1126>:
    4052:	2e0a      	cmp	r6, #10
    4054:	d201      	bcs.n	405a <Code_1126+0x8>
    4056:	3630      	adds	r6, #48	; 0x30
    4058:	e004      	b.n	4064 <Code_1126+0x12>
    405a:	2e24      	cmp	r6, #36	; 0x24
    405c:	d201      	bcs.n	4062 <Code_1126+0x10>
    405e:	3637      	adds	r6, #55	; 0x37
    4060:	e000      	b.n	4064 <Code_1126+0x12>
    4062:	2623      	movs	r6, #35	; 0x23
    4064:	4770      	bx	lr
    4066:	46c0      	nop			; (mov r8, r8)

00004068 <Dictionary_1127>:
    4068:	000040a0 	andeq	r4, r0, r0, lsr #1
    406c:	68040000 	stmdavs	r4, {}	; <UNPREDICTABLE>
    4070:	00646c6f 	rsbeq	r6, r4, pc, ror #24

00004074 <Code_1127>:
    4074:	0033      	movs	r3, r6
    4076:	cf40      	ldmia	r7!, {r6}
    4078:	4878      	ldr	r0, [pc, #480]	; (425c <Code_1160+0xc>)
    407a:	7801      	ldrb	r1, [r0, #0]
    407c:	293f      	cmp	r1, #63	; 0x3f
    407e:	d20d      	bcs.n	409c <Code_1127+0x28>
    4080:	3101      	adds	r1, #1
    4082:	7001      	strb	r1, [r0, #0]
    4084:	1840      	adds	r0, r0, r1
    4086:	2901      	cmp	r1, #1
    4088:	d007      	beq.n	409a <Code_1127+0x26>
    408a:	3801      	subs	r0, #1
    408c:	7802      	ldrb	r2, [r0, #0]
    408e:	3001      	adds	r0, #1
    4090:	7002      	strb	r2, [r0, #0]
    4092:	3801      	subs	r0, #1
    4094:	3901      	subs	r1, #1
    4096:	2901      	cmp	r1, #1
    4098:	d1f7      	bne.n	408a <Code_1127+0x16>
    409a:	7003      	strb	r3, [r0, #0]
    409c:	4770      	bx	lr
    409e:	46c0      	nop			; (mov r8, r8)

000040a0 <Dictionary_1129>:
    40a0:	000040c0 	andeq	r4, r0, r0, asr #1
    40a4:	68050000 	stmdavs	r5, {}	; <UNPREDICTABLE>
    40a8:	3c646c6f 	stclcc	12, cr6, [r4], #-444	; 0xfffffe44

000040ac <Code_1129>:
    40ac:	0033      	movs	r3, r6
    40ae:	cf40      	ldmia	r7!, {r6}
    40b0:	486a      	ldr	r0, [pc, #424]	; (425c <Code_1160+0xc>)
    40b2:	7801      	ldrb	r1, [r0, #0]
    40b4:	293f      	cmp	r1, #63	; 0x3f
    40b6:	d202      	bcs.n	40be <Code_1129+0x12>
    40b8:	3101      	adds	r1, #1
    40ba:	7001      	strb	r1, [r0, #0]
    40bc:	5443      	strb	r3, [r0, r1]
    40be:	4770      	bx	lr

000040c0 <Dictionary_1131>:
    40c0:	000040d8 	ldrdeq	r4, [r0], -r8
    40c4:	73040000 	movwvc	r0, #16384	; 0x4000
    40c8:	006e6769 	rsbeq	r6, lr, r9, ror #14

000040cc <Code_1131>:
    40cc:	2e00      	cmp	r6, #0
    40ce:	d401      	bmi.n	40d4 <Code_1131+0x8>
    40d0:	cf40      	ldmia	r7!, {r6}
    40d2:	4770      	bx	lr
    40d4:	262d      	movs	r6, #45	; 0x2d
    40d6:	e7cd      	b.n	4074 <Code_1127>

000040d8 <Dictionary_1133>:
    40d8:	000040ec 	andeq	r4, r0, ip, ror #1
    40dc:	23020000 	movwcs	r0, #8192	; 0x2000
    40e0:	485e003e 	ldmdami	lr, {r1, r2, r3, r4, r5}^

000040e2 <Code_1133>:
    40e2:	485e      	ldr	r0, [pc, #376]	; (425c <Code_1160+0xc>)
    40e4:	7806      	ldrb	r6, [r0, #0]
    40e6:	3001      	adds	r0, #1
    40e8:	6038      	str	r0, [r7, #0]
    40ea:	4770      	bx	lr

000040ec <Dictionary_1134>:
    40ec:	00004104 	andeq	r4, r0, r4, lsl #2
    40f0:	66030000 	strvs	r0, [r3], -r0
    40f4:	b5105323 	ldrlt	r5, [r0, #-803]	; 0x323

000040f6 <Code_1134>:
    40f6:	b510      	push	{r4, lr}
    40f8:	2420      	movs	r4, #32
    40fa:	f000 f808 	bl	410e <Code_1135>
    40fe:	3c01      	subs	r4, #1
    4100:	d1fb      	bne.n	40fa <Code_1134+0x4>
    4102:	bd10      	pop	{r4, pc}

00004104 <Dictionary_1135>:
    4104:	00004128 	andeq	r4, r0, r8, lsr #2
    4108:	66020000 	strvs	r0, [r2], -r0
    410c:	b5000023 	strlt	r0, [r0, #-35]	; 0x23

0000410e <Code_1135>:
    410e:	b500      	push	{lr}
    4110:	3f04      	subs	r7, #4
    4112:	603e      	str	r6, [r7, #0]
    4114:	4e50      	ldr	r6, [pc, #320]	; (4258 <Code_1160+0x8>)
    4116:	6836      	ldr	r6, [r6, #0]
    4118:	f7fc fce3 	bl	ae2 <Code_103>
    411c:	f7ff ff99 	bl	4052 <Code_1126>
    4120:	f7ff ffc4 	bl	40ac <Code_1129>
    4124:	bd00      	pop	{pc}
    4126:	46c0      	nop			; (mov r8, r8)

00004128 <Dictionary_1137>:
    4128:	00004144 	andeq	r4, r0, r4, asr #2
    412c:	23020000 	movwcs	r0, #8192	; 0x2000
    4130:	b5000053 	strlt	r0, [r0, #-83]	; 0x53

00004132 <Code_1137>:
    4132:	b500      	push	{lr}
    4134:	f000 f80a 	bl	414c <Code_1138>
    4138:	2e00      	cmp	r6, #0
    413a:	d1fb      	bne.n	4134 <Code_1137+0x2>
    413c:	6838      	ldr	r0, [r7, #0]
    413e:	2800      	cmp	r0, #0
    4140:	d1f8      	bne.n	4134 <Code_1137+0x2>
    4142:	bd00      	pop	{pc}

00004144 <Dictionary_1138>:
    4144:	00004170 	andeq	r4, r0, r0, ror r1
    4148:	23010000 	movwcs	r0, #4096	; 0x1000

0000414c <Code_1138>:
    414c:	b500      	push	{lr}
    414e:	3f04      	subs	r7, #4
    4150:	603e      	str	r6, [r7, #0]
    4152:	4e41      	ldr	r6, [pc, #260]	; (4258 <Code_1160+0x8>)
    4154:	6836      	ldr	r6, [r6, #0]
    4156:	3f04      	subs	r7, #4
    4158:	603e      	str	r6, [r7, #0]
    415a:	2600      	movs	r6, #0
    415c:	f7fc fdc3 	bl	ce6 <Code_150>
    4160:	f7fc fbca 	bl	8f8 <Code_77>
    4164:	cf40      	ldmia	r7!, {r6}
    4166:	f7ff ff74 	bl	4052 <Code_1126>
    416a:	f7ff ff83 	bl	4074 <Code_1127>
    416e:	bd00      	pop	{pc}

00004170 <Dictionary_1143>:
    4170:	00004184 	andeq	r4, r0, r4, lsl #3
    4174:	3c020000 	stccc	0, cr0, [r2], {-0}
    4178:	48380023 	ldmdami	r8!, {r0, r1, r5}

0000417a <Code_1143>:
    417a:	4838      	ldr	r0, [pc, #224]	; (425c <Code_1160+0xc>)
    417c:	2100      	movs	r1, #0
    417e:	7001      	strb	r1, [r0, #0]
    4180:	4770      	bx	lr
    4182:	46c0      	nop			; (mov r8, r8)

00004184 <Dictionary_1144>:
    4184:	00004198 	muleq	r0, r8, r1
    4188:	66020000 	strvs	r0, [r2], -r0
    418c:	3f04002e 	svccc	0x0004002e

0000418e <Code_1144>:
    418e:	3f04      	subs	r7, #4
    4190:	603e      	str	r6, [r7, #0]
    4192:	2620      	movs	r6, #32
    4194:	e005      	b.n	41a2 <Code_1147>
    4196:	46c0      	nop			; (mov r8, r8)

00004198 <Dictionary_1147>:
    4198:	000041e8 	andeq	r4, r0, r8, ror #3
    419c:	66030000 	strvs	r0, [r3], -r0
    41a0:	b5006e2e 	strlt	r6, [r0, #-3630]	; 0xe2e

000041a2 <Code_1147>:
    41a2:	b500      	push	{lr}
    41a4:	b410      	push	{r4}
    41a6:	0034      	movs	r4, r6
    41a8:	cf40      	ldmia	r7!, {r6}
    41aa:	f7fc ff75 	bl	1098 <Code_191>
    41ae:	f7fc fc5d 	bl	a6c <Code_97>
    41b2:	3f04      	subs	r7, #4
    41b4:	603e      	str	r6, [r7, #0]
    41b6:	2600      	movs	r6, #0
    41b8:	f7ff ffdf 	bl	417a <Code_1143>
    41bc:	f7ff ffb9 	bl	4132 <Code_1137>
    41c0:	cf40      	ldmia	r7!, {r6}
    41c2:	262c      	movs	r6, #44	; 0x2c
    41c4:	f7ff ff72 	bl	40ac <Code_1129>
    41c8:	2c00      	cmp	r4, #0
    41ca:	d003      	beq.n	41d4 <Code_1147+0x32>
    41cc:	f7ff ff9f 	bl	410e <Code_1135>
    41d0:	3c01      	subs	r4, #1
    41d2:	d1fb      	bne.n	41cc <Code_1147+0x2a>
    41d4:	bc10      	pop	{r4}
    41d6:	cf40      	ldmia	r7!, {r6}
    41d8:	f7ff ff78 	bl	40cc <Code_1131>
    41dc:	3f04      	subs	r7, #4
    41de:	603e      	str	r6, [r7, #0]
    41e0:	3f04      	subs	r7, #4
    41e2:	603e      	str	r6, [r7, #0]
    41e4:	e01e      	b.n	4224 <abschluss_zahlenausgabe>
    41e6:	46c0      	nop			; (mov r8, r8)

000041e8 <Dictionary_1155>:
    41e8:	00004200 	andeq	r4, r0, r0, lsl #4
    41ec:	75030000 	strvc	r0, [r3, #-0]
    41f0:	b5002e64 	strlt	r2, [r0, #-3684]	; 0xe64

000041f2 <Code_1155>:
    41f2:	b500      	push	{lr}
    41f4:	f7ff ffc1 	bl	417a <Code_1143>
    41f8:	f7ff ff9b 	bl	4132 <Code_1137>
    41fc:	e012      	b.n	4224 <abschluss_zahlenausgabe>
    41fe:	46c0      	nop			; (mov r8, r8)

00004200 <Dictionary_1156>:
    4200:	00004234 	andeq	r4, r0, r4, lsr r2
    4204:	64020000 	strvs	r0, [r2], #-0
    4208:	b500002e 	strlt	r0, [r0, #-46]	; 0x2e

0000420a <Code_1156>:
    420a:	b500      	push	{lr}
    420c:	f7fc ff44 	bl	1098 <Code_191>
    4210:	f7fc fc2c 	bl	a6c <Code_97>
    4214:	f7ff ffb1 	bl	417a <Code_1143>
    4218:	f7ff ff8b 	bl	4132 <Code_1137>
    421c:	f7fc ff51 	bl	10c2 <Code_192>
    4220:	f7ff ff54 	bl	40cc <Code_1131>

00004224 <abschluss_zahlenausgabe>:
    4224:	f7ff ff5d 	bl	40e2 <Code_1133>
    4228:	f7fe fae8 	bl	27fc <Code_632>
    422c:	f7fe fa34 	bl	2698 <Code_597>
    4230:	bd00      	pop	{pc}
    4232:	46c0      	nop			; (mov r8, r8)

00004234 <Dictionary_1157>:
    4234:	00004248 	andeq	r4, r0, r8, asr #4
    4238:	75020000 	strvc	r0, [r2, #-0]
    423c:	3f04002e 	svccc	0x0004002e

0000423e <Code_1157>:
    423e:	3f04      	subs	r7, #4
    4240:	603e      	str	r6, [r7, #0]
    4242:	2600      	movs	r6, #0
    4244:	e7d5      	b.n	41f2 <Code_1155>
    4246:	46c0      	nop			; (mov r8, r8)

00004248 <Dictionary_1160>:
    4248:	00004260 	andeq	r4, r0, r0, ror #4
    424c:	2e010000 	cdpcs	0, 0, cr0, cr1, cr0, {0}

00004250 <Code_1160>:
    4250:	3f04      	subs	r7, #4
    4252:	603e      	str	r6, [r7, #0]
    4254:	17f6      	asrs	r6, r6, #31
    4256:	e7d8      	b.n	420a <Code_1156>
    4258:	20002ffc 	strdcs	r2, [r0], -ip
    425c:	1ffff050 	svcne	0x00fff050

00004260 <Dictionary_1162>:
    4260:	000042a8 	andeq	r4, r0, r8, lsr #5
    4264:	65080000 	strvs	r0, [r8, #-0]
    4268:	756c6176 	strbvc	r6, [ip, #-374]!	; 0x176
    426c:	00657461 	rsbeq	r7, r5, r1, ror #8

00004270 <Code_1162>:
    4270:	b500      	push	{lr}
    4272:	f7fe f9aa 	bl	25ca <Code_580>
    4276:	cf01      	ldmia	r7!, {r0}
    4278:	b401      	push	{r0}
    427a:	b440      	push	{r6}
    427c:	cf40      	ldmia	r7!, {r6}
    427e:	4885      	ldr	r0, [pc, #532]	; (4494 <quit_innenschleife+0x14>)
    4280:	6801      	ldr	r1, [r0, #0]
    4282:	b402      	push	{r1}
    4284:	2100      	movs	r1, #0
    4286:	6001      	str	r1, [r0, #0]
    4288:	f7fe f992 	bl	25b0 <Code_578>
    428c:	f000 f814 	bl	42b8 <Code_1164>
    4290:	4880      	ldr	r0, [pc, #512]	; (4494 <quit_innenschleife+0x14>)
    4292:	bc02      	pop	{r1}
    4294:	6001      	str	r1, [r0, #0]
    4296:	3f04      	subs	r7, #4
    4298:	603e      	str	r6, [r7, #0]
    429a:	bc40      	pop	{r6}
    429c:	bc01      	pop	{r0}
    429e:	3f04      	subs	r7, #4
    42a0:	6038      	str	r0, [r7, #0]
    42a2:	f7fe f985 	bl	25b0 <Code_578>
    42a6:	bd00      	pop	{pc}

000042a8 <Dictionary_1164>:
    42a8:	00004428 	andeq	r4, r0, r8, lsr #8
    42ac:	69090000 	stmdbvs	r9, {}	; <UNPREDICTABLE>
    42b0:	7265746e 	rsbvc	r7, r5, #1845493760	; 0x6e000000
    42b4:	74657270 	strbtvc	r7, [r5], #-624	; 0x270

000042b8 <Code_1164>:
    42b8:	b530      	push	{r4, r5, lr}
    42ba:	4877      	ldr	r0, [pc, #476]	; (4498 <quit_innenschleife+0x18>)
    42bc:	4287      	cmp	r7, r0
    42be:	d90b      	bls.n	42d8 <Code_1164+0x20>
    42c0:	f7fe fa3c 	bl	273c <dotgaensefuesschen>
    42c4:	61745310 	cmnvs	r4, r0, lsl r3
    42c8:	75206b63 	strvc	r6, [r0, #-2915]!	; 0xb63
    42cc:	7265646e 	rsbvc	r6, r5, #1845493760	; 0x6e000000
    42d0:	776f6c66 	strbvc	r6, [pc, -r6, ror #24]!
    42d4:	e0bb000a 	adcs	r0, fp, sl
    42d8:	4870      	ldr	r0, [pc, #448]	; (449c <quit_innenschleife+0x1c>)
    42da:	4287      	cmp	r7, r0
    42dc:	d20a      	bcs.n	42f4 <Code_1164+0x3c>
    42de:	f7fe fa2d 	bl	273c <dotgaensefuesschen>
    42e2:	6174530f 	cmnvs	r4, pc, lsl #6
    42e6:	6f206b63 	svcvs	0x00206b63
    42ea:	66726576 			; <UNDEFINED> instruction: 0x66726576
    42ee:	0a776f6c 	beq	1de00a6 <BIT24+0xde00a6>
    42f2:	e0ad      	b.n	4450 <Code_1191>
    42f4:	4c6a      	ldr	r4, [pc, #424]	; (44a0 <quit_innenschleife+0x20>)
    42f6:	6825      	ldr	r5, [r4, #0]
    42f8:	2d00      	cmp	r5, #0
    42fa:	d101      	bne.n	4300 <Code_1164+0x48>
    42fc:	003d      	movs	r5, r7
    42fe:	6025      	str	r5, [r4, #0]
    4300:	f7ff fdbe 	bl	3e80 <Code_1092>
    4304:	2e00      	cmp	r6, #0
    4306:	d102      	bne.n	430e <Code_1164+0x56>
    4308:	3704      	adds	r7, #4
    430a:	cf40      	ldmia	r7!, {r6}
    430c:	bd30      	pop	{r4, r5, pc}
    430e:	6838      	ldr	r0, [r7, #0]
    4310:	3f04      	subs	r7, #4
    4312:	603e      	str	r6, [r7, #0]
    4314:	3f04      	subs	r7, #4
    4316:	6038      	str	r0, [r7, #0]
    4318:	f7ff f9bc 	bl	3694 <Code_910>
    431c:	0031      	movs	r1, r6
    431e:	cf40      	ldmia	r7!, {r6}
    4320:	0032      	movs	r2, r6
    4322:	cf40      	ldmia	r7!, {r6}
    4324:	2a00      	cmp	r2, #0
    4326:	d113      	bne.n	4350 <not_found_addr_r0_len_r1+0x18>
    4328:	6838      	ldr	r0, [r7, #0]
    432a:	0031      	movs	r1, r6
    432c:	f7ff fe0b 	bl	3f46 <Code_1099>
    4330:	0032      	movs	r2, r6
    4332:	cf40      	ldmia	r7!, {r6}
    4334:	2a00      	cmp	r2, #0
    4336:	d1c0      	bne.n	42ba <Code_1164+0x2>

00004338 <not_found_addr_r0_len_r1>:
    4338:	f7fe fa64 	bl	2804 <stype_addr_r0_len_r1>
    433c:	f7fe f9fe 	bl	273c <dotgaensefuesschen>
    4340:	6f6e200c 	svcvs	0x006e200c
    4344:	6f662074 	svcvs	0x00662074
    4348:	2e646e75 	mcrcs	14, 3, r6, cr4, cr5, {3}
    434c:	e07f000a 	rsbs	r0, pc, sl
    4350:	4b54      	ldr	r3, [pc, #336]	; (44a4 <quit_innenschleife+0x24>)
    4352:	681b      	ldr	r3, [r3, #0]
    4354:	2b00      	cmp	r3, #0
    4356:	d11d      	bne.n	4394 <.ausfuehren+0x12>
    4358:	2500      	movs	r5, #0
    435a:	6025      	str	r5, [r4, #0]
    435c:	2330      	movs	r3, #48	; 0x30
    435e:	400b      	ands	r3, r1
    4360:	2b30      	cmp	r3, #48	; 0x30
    4362:	d10e      	bne.n	4382 <.ausfuehren>
    4364:	f7fe fa4a 	bl	27fc <Code_632>
    4368:	f7fe f9e8 	bl	273c <dotgaensefuesschen>
    436c:	73692012 	cmnvc	r9, #18
    4370:	6d6f6320 	stclvs	3, cr6, [pc, #-128]!	; 42f8 <Code_1164+0x40>
    4374:	656c6970 	strbvs	r6, [ip, #-2416]!	; 0x970
    4378:	6c6e6f2d 	stclvs	15, cr6, [lr], #-180	; 0xffffff4c
    437c:	000a2e79 	andeq	r2, sl, r9, ror lr
    4380:	e066      	b.n	4450 <Code_1191>

00004382 <.ausfuehren>:
    4382:	3704      	adds	r7, #4
    4384:	cf40      	ldmia	r7!, {r6}
    4386:	3f04      	subs	r7, #4
    4388:	603e      	str	r6, [r7, #0]
    438a:	0016      	movs	r6, r2
    438c:	f7fe fd61 	bl	2e52 <Code_762>
    4390:	f7ff ff93 	bl	42ba <Code_1164+0x2>
    4394:	3704      	adds	r7, #4
    4396:	cf40      	ldmia	r7!, {r6}
    4398:	2080      	movs	r0, #128	; 0x80
    439a:	4008      	ands	r0, r1
    439c:	d108      	bne.n	43b0 <.interpret_faltoptimierung>
    439e:	1beb      	subs	r3, r5, r7
    43a0:	089b      	lsrs	r3, r3, #2
    43a2:	2040      	movs	r0, #64	; 0x40
    43a4:	4008      	ands	r0, r1
    43a6:	d009      	beq.n	43bc <.interpret_allocator>

000043a8 <.interpret_genugkonstanten>:
    43a8:	200f      	movs	r0, #15
    43aa:	4008      	ands	r0, r1
    43ac:	4283      	cmp	r3, r0
    43ae:	d305      	bcc.n	43bc <.interpret_allocator>

000043b0 <.interpret_faltoptimierung>:
    43b0:	3f04      	subs	r7, #4
    43b2:	603e      	str	r6, [r7, #0]
    43b4:	0016      	movs	r6, r2
    43b6:	f7fe fd4c 	bl	2e52 <Code_762>
    43ba:	e77e      	b.n	42ba <Code_1164+0x2>

000043bc <.interpret_allocator>:
    43bc:	483a      	ldr	r0, [pc, #232]	; (44a8 <quit_innenschleife+0x28>)
    43be:	4008      	ands	r0, r1
    43c0:	d008      	beq.n	43d4 <.interpret_allocator_finished>
    43c2:	f7fc f838 	bl	436 <Code_27>
    43c6:	f7fc f987 	bl	6d8 <Code_53>
    43ca:	0038      	movs	r0, r7
    43cc:	6020      	str	r0, [r4, #0]
    43ce:	f7fc f841 	bl	454 <nfaltkonstanten_aufschwimmen>
    43d2:	e772      	b.n	42ba <Code_1164+0x2>

000043d4 <.interpret_allocator_finished>:
    43d4:	f7fc f82f 	bl	436 <Code_27>
    43d8:	f7fc f9fe 	bl	7d8 <Code_59>
    43dc:	f000 f812 	bl	4404 <konstantenschreiben>
    43e0:	3f04      	subs	r7, #4
    43e2:	603e      	str	r6, [r7, #0]
    43e4:	0016      	movs	r6, r2
    43e6:	2210      	movs	r2, #16
    43e8:	400a      	ands	r2, r1
    43ea:	d002      	beq.n	43f2 <.interpret_allocator_finished+0x1e>
    43ec:	f7fe fd31 	bl	2e52 <Code_762>
    43f0:	e763      	b.n	42ba <Code_1164+0x2>
    43f2:	2220      	movs	r2, #32
    43f4:	400a      	ands	r2, r1
    43f6:	d002      	beq.n	43fe <.interpret_allocator_finished+0x2a>
    43f8:	f7fe fc91 	bl	2d1e <Code_740>
    43fc:	e75d      	b.n	42ba <Code_1164+0x2>
    43fe:	f7fe fb77 	bl	2af0 <Code_697>
    4402:	e75a      	b.n	42ba <Code_1164+0x2>

00004404 <konstantenschreiben>:
    4404:	b500      	push	{lr}
    4406:	2b00      	cmp	r3, #0
    4408:	d00b      	beq.n	4422 <.konstanteninnenschleife+0x18>

0000440a <.konstanteninnenschleife>:
    440a:	3b01      	subs	r3, #1
    440c:	3f04      	subs	r7, #4
    440e:	603e      	str	r6, [r7, #0]
    4410:	009e      	lsls	r6, r3, #2
    4412:	59be      	ldr	r6, [r7, r6]
    4414:	f7fe fba6 	bl	2b64 <Code_706>
    4418:	2b00      	cmp	r3, #0
    441a:	d1f6      	bne.n	440a <.konstanteninnenschleife>
    441c:	3d04      	subs	r5, #4
    441e:	002f      	movs	r7, r5
    4420:	cf40      	ldmia	r7!, {r6}
    4422:	2500      	movs	r5, #0
    4424:	6025      	str	r5, [r4, #0]
    4426:	bd00      	pop	{pc}

00004428 <Dictionary_1188>:
    4428:	00004444 	andeq	r4, r0, r4, asr #8
    442c:	68090081 	stmdavs	r9, {r0, r7}
    4430:	2d6b6f6f 	stclcs	15, cr6, [fp, #-444]!	; 0xfffffe44
    4434:	74697571 	strbtvc	r7, [r9], #-1393	; 0x571

00004438 <Code_1188>:
    4438:	3f04      	subs	r7, #4
    443a:	603e      	str	r6, [r7, #0]
    443c:	4e1b      	ldr	r6, [pc, #108]	; (44ac <quit_innenschleife+0x2c>)
    443e:	4770      	bx	lr
    4440:	00004480 	andeq	r4, r0, r0, lsl #9

00004444 <Dictionary_1191>:
    4444:	000044c0 	andeq	r4, r0, r0, asr #9
    4448:	71040000 	mrsvc	r0, (UNDEF: 4)
    444c:	00746975 	rsbseq	r6, r4, r5, ror r9

00004450 <Code_1191>:
    4450:	4817      	ldr	r0, [pc, #92]	; (44b0 <quit_innenschleife+0x30>)
    4452:	4685      	mov	sp, r0
    4454:	4f10      	ldr	r7, [pc, #64]	; (4498 <quit_innenschleife+0x18>)
    4456:	f7fd fc9f 	bl	1d98 <sammeltabelleleeren>
    445a:	4816      	ldr	r0, [pc, #88]	; (44b4 <quit_innenschleife+0x34>)
    445c:	210a      	movs	r1, #10
    445e:	6001      	str	r1, [r0, #0]
    4460:	4810      	ldr	r0, [pc, #64]	; (44a4 <quit_innenschleife+0x24>)
    4462:	2100      	movs	r1, #0
    4464:	6001      	str	r1, [r0, #0]
    4466:	480e      	ldr	r0, [pc, #56]	; (44a0 <quit_innenschleife+0x20>)
    4468:	6001      	str	r1, [r0, #0]
    446a:	f7fc fa13 	bl	894 <Code_72>
    446e:	4809      	ldr	r0, [pc, #36]	; (4494 <quit_innenschleife+0x14>)
    4470:	6001      	str	r1, [r0, #0]
    4472:	4811      	ldr	r0, [pc, #68]	; (44b8 <quit_innenschleife+0x38>)
    4474:	6001      	str	r1, [r0, #0]
    4476:	4911      	ldr	r1, [pc, #68]	; (44bc <quit_innenschleife+0x3c>)
    4478:	6041      	str	r1, [r0, #4]

0000447a <quit_intern>:
    447a:	480c      	ldr	r0, [pc, #48]	; (44ac <quit_innenschleife+0x2c>)
    447c:	6800      	ldr	r0, [r0, #0]
    447e:	4687      	mov	pc, r0

00004480 <quit_innenschleife>:
    4480:	f7fe f8b2 	bl	25e8 <Code_582>
    4484:	f7ff ff18 	bl	42b8 <Code_1164>
    4488:	f7fe f958 	bl	273c <dotgaensefuesschen>
    448c:	6b6f2005 	blvs	1bcc4a8 <BIT24+0xbcc4a8>
    4490:	e7f50a2e 	ldrb	r0, [r5, lr, lsr #20]!
    4494:	20002fe4 	andcs	r2, r0, r4, ror #31
    4498:	1ffff258 	svcne	0x00fff258
    449c:	1ffff158 	svcne	0x00fff158
    44a0:	1ffff008 	svcne	0x00fff008
    44a4:	20002fd8 	ldrdcs	r2, [r0], -r8
    44a8:	00000200 	andeq	r0, r0, r0, lsl #4
    44ac:	20002fd4 	ldrdcs	r2, [r0], -r4
    44b0:	1ffff358 	svcne	0x00fff358
    44b4:	20002ffc 	strdcs	r2, [r0], -ip
    44b8:	20002fdc 	ldrdcs	r2, [r0], -ip
    44bc:	1ffff090 	svcne	0x00fff090

000044c0 <Dictionary_1193>:
    44c0:	000044dc 	ldrdeq	r4, [r0], -ip
    44c4:	65050000 	strvs	r0, [r5, #-0]
    44c8:	3f746e69 	svccc	0x00746e69

000044cc <Code_1193>:
    44cc:	3f04      	subs	r7, #4
    44ce:	603e      	str	r6, [r7, #0]
    44d0:	f3ef 8610 	mrs	r6, PRIMASK
    44d4:	3e01      	subs	r6, #1
    44d6:	41b6      	sbcs	r6, r6
    44d8:	4770      	bx	lr
    44da:	46c0      	nop			; (mov r8, r8)

000044dc <Dictionary_1195>:
    44dc:	000044ec 	andeq	r4, r0, ip, ror #9
    44e0:	65040020 	strvs	r0, [r4, #-32]
    44e4:	00746e69 	rsbseq	r6, r4, r9, ror #28

000044e8 <Code_1195>:
    44e8:	b662      	cpsie	i
    44ea:	4770      	bx	lr

000044ec <Dictionary_1196>:
    44ec:	000044fc 	strdeq	r4, [r0], -ip
    44f0:	64040020 	strvs	r0, [r4], #-32
    44f4:	00746e69 	rsbseq	r6, r4, r9, ror #28

000044f8 <Code_1196>:
    44f8:	b672      	cpsid	i
    44fa:	4770      	bx	lr

000044fc <Dictionary_1197>:
    44fc:	00004514 	andeq	r4, r0, r4, lsl r5
    4500:	69040020 	stmdbvs	r4, {r5}
    4504:	00727370 	rsbseq	r7, r2, r0, ror r3

00004508 <Code_1197>:
    4508:	3f04      	subs	r7, #4
    450a:	603e      	str	r6, [r7, #0]
    450c:	f3ef 8605 	mrs	r6, IPSR
    4510:	4770      	bx	lr
    4512:	46c0      	nop			; (mov r8, r8)

00004514 <Dictionary_1199>:
    4514:	00004520 	andeq	r4, r0, r0, lsr #10
    4518:	6e030000 	cdpvs	0, 0, cr0, cr3, cr0, {0}
    451c:	4770706f 	ldrbmi	r7, [r0, -pc, rrx]!

0000451e <Code_1199>:
    451e:	4770      	bx	lr

00004520 <Dictionary_1200>:
    4520:	00004564 	andeq	r4, r0, r4, ror #10
    4524:	75090000 	strvc	r0, [r9, #-0]
    4528:	6e61686e 	cdpvs	8, 6, cr6, cr1, cr14, {3}
    452c:	64656c64 	strbtvs	r6, [r5], #-3172	; 0xc64

00004530 <Code_1200>:
    4530:	b500      	push	{lr}
    4532:	f7fe f903 	bl	273c <dotgaensefuesschen>
    4536:	686e5514 	stmdavs	lr!, {r2, r4, r8, sl, ip, lr}^
    453a:	6c646e61 	stclvs	14, cr6, [r4], #-388	; 0xfffffe7c
    453e:	49206465 	stmdbmi	r0!, {r0, r2, r5, r6, sl, sp, lr}
    4542:	7265746e 	rsbvc	r7, r5, #1845493760	; 0x6e000000
    4546:	74707572 	ldrbtvc	r7, [r0], #-1394	; 0x572
    454a:	3f040020 	svccc	0x00040020
    454e:	603e      	str	r6, [r7, #0]
    4550:	f3ef 8605 	mrs	r6, IPSR
    4554:	f7fe f96a 	bl	282c <Code_636>
    4558:	f7fe f8f0 	bl	273c <dotgaensefuesschen>
    455c:	000a2102 	andeq	r2, sl, r2, lsl #2
    4560:	bd00      	pop	{pc}
    4562:	46c0      	nop			; (mov r8, r8)

00004564 <Dictionary_1204>:
    4564:	00004578 	andeq	r4, r0, r8, ror r5
    4568:	72050000 	andvc	r0, r5, #0
    456c:	74657365 	strbtvc	r7, [r5], #-869	; 0x365

00004570 <Code_1204>:
    4570:	489a      	ldr	r0, [pc, #616]	; (47dc <init_name+0x4>)
    4572:	499b      	ldr	r1, [pc, #620]	; (47e0 <init_name+0x8>)
    4574:	6001      	str	r1, [r0, #0]
    4576:	46c0      	nop			; (mov r8, r8)

00004578 <Dictionary_1206>:
    4578:	0000459c 	muleq	r0, ip, r5
    457c:	690b0081 	stmdbvs	fp, {r0, r7}
    4580:	732d7172 	teqvc	sp, #-2147483620	; 0x8000001c
    4584:	69747379 	ldmdbvs	r4!, {r0, r3, r4, r5, r6, r8, r9, ip, sp, lr}^
    4588:	3f046b63 	svccc	0x00046b63

0000458a <Code_1206>:
    458a:	3f04      	subs	r7, #4
    458c:	603e      	str	r6, [r7, #0]
    458e:	4e95      	ldr	r6, [pc, #596]	; (47e4 <init_name+0xc>)
    4590:	4770      	bx	lr
    4592:	00004530 	andeq	r4, r0, r0, lsr r5

00004596 <irq_vektor_systick>:
    4596:	4893      	ldr	r0, [pc, #588]	; (47e4 <init_name+0xc>)
    4598:	6800      	ldr	r0, [r0, #0]
    459a:	4687      	mov	pc, r0

0000459c <Dictionary_1210>:
    459c:	000045c0 	andeq	r4, r0, r0, asr #11
    45a0:	69090081 	stmdbvs	r9, {r0, r7}
    45a4:	662d7172 			; <UNDEFINED> instruction: 0x662d7172
    45a8:	746c7561 	strbtvc	r7, [ip], #-1377	; 0x561

000045ac <Code_1210>:
    45ac:	3f04      	subs	r7, #4
    45ae:	603e      	str	r6, [r7, #0]
    45b0:	4e8d      	ldr	r6, [pc, #564]	; (47e8 <init_name+0x10>)
    45b2:	4770      	bx	lr
    45b4:	00004530 	andeq	r4, r0, r0, lsr r5

000045b8 <faulthandler>:
    45b8:	488b      	ldr	r0, [pc, #556]	; (47e8 <init_name+0x10>)
    45ba:	6800      	ldr	r0, [r0, #0]
    45bc:	4687      	mov	pc, r0
    45be:	46c0      	nop			; (mov r8, r8)

000045c0 <Dictionary_1214>:
    45c0:	000045e8 	andeq	r4, r0, r8, ror #11
    45c4:	690e0081 	stmdbvs	lr, {r0, r7}
    45c8:	632d7172 	teqvs	sp, #-2147483620	; 0x8000001c
    45cc:	656c6c6f 	strbvs	r6, [ip, #-3183]!	; 0xc6f
    45d0:	6f697463 	svcvs	0x00697463
    45d4:	3f04006e 	svccc	0x0004006e

000045d6 <Code_1214>:
    45d6:	3f04      	subs	r7, #4
    45d8:	603e      	str	r6, [r7, #0]
    45da:	4e84      	ldr	r6, [pc, #528]	; (47ec <init_name+0x14>)
    45dc:	4770      	bx	lr
    45de:	00004530 	andeq	r4, r0, r0, lsr r5

000045e2 <nullhandler>:
    45e2:	4882      	ldr	r0, [pc, #520]	; (47ec <init_name+0x14>)
    45e4:	6800      	ldr	r0, [r0, #0]
    45e6:	4687      	mov	pc, r0

000045e8 <Dictionary_1218>:
    45e8:	00004608 	andeq	r4, r0, r8, lsl #12
    45ec:	69070081 	stmdbvs	r7, {r0, r7}
    45f0:	612d7172 	teqvs	sp, r2, ror r1
    45f4:	3f046364 	svccc	0x00046364

000045f6 <Code_1218>:
    45f6:	3f04      	subs	r7, #4
    45f8:	603e      	str	r6, [r7, #0]
    45fa:	4e7d      	ldr	r6, [pc, #500]	; (47f0 <init_name+0x18>)
    45fc:	4770      	bx	lr
    45fe:	00004530 	andeq	r4, r0, r0, lsr r5

00004602 <irq_vektor_adc>:
    4602:	487b      	ldr	r0, [pc, #492]	; (47f0 <init_name+0x18>)
    4604:	6800      	ldr	r0, [r0, #0]
    4606:	4687      	mov	pc, r0

00004608 <Dictionary_1222>:
    4608:	00004628 	andeq	r4, r0, r8, lsr #12
    460c:	69070081 	stmdbvs	r7, {r0, r7}
    4610:	632d7172 	teqvs	sp, #-2147483620	; 0x8000001c
    4614:	3f04706d 	svccc	0x0004706d

00004616 <Code_1222>:
    4616:	3f04      	subs	r7, #4
    4618:	603e      	str	r6, [r7, #0]
    461a:	4e76      	ldr	r6, [pc, #472]	; (47f4 <init_name+0x1c>)
    461c:	4770      	bx	lr
    461e:	00004530 	andeq	r4, r0, r0, lsr r5

00004622 <irq_vektor_cmp>:
    4622:	4874      	ldr	r0, [pc, #464]	; (47f4 <init_name+0x1c>)
    4624:	6800      	ldr	r0, [r0, #0]
    4626:	4687      	mov	pc, r0

00004628 <Dictionary_1226>:
    4628:	00004648 	andeq	r4, r0, r8, asr #12
    462c:	69070081 	stmdbvs	r7, {r0, r7}
    4630:	642d7172 	strtvs	r7, [sp], #-370	; 0x172
    4634:	3f046361 	svccc	0x00046361

00004636 <Code_1226>:
    4636:	3f04      	subs	r7, #4
    4638:	603e      	str	r6, [r7, #0]
    463a:	4e6f      	ldr	r6, [pc, #444]	; (47f8 <init_name+0x20>)
    463c:	4770      	bx	lr
    463e:	00004530 	andeq	r4, r0, r0, lsr r5

00004642 <irq_vektor_dac>:
    4642:	486d      	ldr	r0, [pc, #436]	; (47f8 <init_name+0x20>)
    4644:	6800      	ldr	r0, [r0, #0]
    4646:	4687      	mov	pc, r0

00004648 <Dictionary_1230>:
    4648:	0000466c 	andeq	r4, r0, ip, ror #12
    464c:	69090081 	stmdbvs	r9, {r0, r7}
    4650:	702d7172 	eorvc	r7, sp, r2, ror r1
    4654:	6174726f 	cmnvs	r4, pc, ror #4

00004658 <Code_1230>:
    4658:	3f04      	subs	r7, #4
    465a:	603e      	str	r6, [r7, #0]
    465c:	4e67      	ldr	r6, [pc, #412]	; (47fc <init_name+0x24>)
    465e:	4770      	bx	lr
    4660:	00004530 	andeq	r4, r0, r0, lsr r5

00004664 <irq_vektor_porta>:
    4664:	4865      	ldr	r0, [pc, #404]	; (47fc <init_name+0x24>)
    4666:	6800      	ldr	r0, [r0, #0]
    4668:	4687      	mov	pc, r0
    466a:	46c0      	nop			; (mov r8, r8)

0000466c <Dictionary_1234>:
    466c:	00004690 	muleq	r0, r0, r6
    4670:	69090081 	stmdbvs	r9, {r0, r7}
    4674:	702d7172 	eorvc	r7, sp, r2, ror r1
    4678:	6474726f 	ldrbtvs	r7, [r4], #-623	; 0x26f

0000467c <Code_1234>:
    467c:	3f04      	subs	r7, #4
    467e:	603e      	str	r6, [r7, #0]
    4680:	4e5f      	ldr	r6, [pc, #380]	; (4800 <init_name+0x28>)
    4682:	4770      	bx	lr
    4684:	00004530 	andeq	r4, r0, r0, lsr r5

00004688 <irq_vektor_portd>:
    4688:	485d      	ldr	r0, [pc, #372]	; (4800 <init_name+0x28>)
    468a:	6800      	ldr	r0, [r0, #0]
    468c:	4687      	mov	pc, r0
    468e:	46c0      	nop			; (mov r8, r8)

00004690 <Dictionary_1237>:
    4690:	00006000 	andeq	r6, r0, r0
    4694:	2d18ffff 	ldccs	15, cr15, [r8, #-1020]	; 0xfffffc04
    4698:	46202d2d 	strtmi	r2, [r0], -sp, lsr #26
    469c:	6873616c 	ldmdavs	r3!, {r2, r3, r5, r6, r8, sp, lr}^
    46a0:	63694420 	cmnvs	r9, #536870912	; 0x20000000
    46a4:	6e6f6974 	mcrvs	9, 3, r6, cr15, cr4, {3}
    46a8:	20797261 	rsbscs	r7, r9, r1, ror #4
    46ac:	002d2d2d 	eoreq	r2, sp, sp, lsr #26

000046b0 <Code_1237>:
    46b0:	2100      	movs	r1, #0
    46b2:	4854      	ldr	r0, [pc, #336]	; (4804 <init_name+0x2c>)
    46b4:	6001      	str	r1, [r0, #0]
    46b6:	f7fd fdcb 	bl	2250 <uart_init>
    46ba:	4853      	ldr	r0, [pc, #332]	; (4808 <init_name+0x30>)
    46bc:	4685      	mov	sp, r0
    46be:	4f53      	ldr	r7, [pc, #332]	; (480c <init_name+0x34>)
    46c0:	262a      	movs	r6, #42	; 0x2a
    46c2:	4853      	ldr	r0, [pc, #332]	; (4810 <init_name+0x38>)
    46c4:	4953      	ldr	r1, [pc, #332]	; (4814 <init_name+0x3c>)
    46c6:	6001      	str	r1, [r0, #0]
    46c8:	4853      	ldr	r0, [pc, #332]	; (4818 <init_name+0x40>)
    46ca:	4954      	ldr	r1, [pc, #336]	; (481c <init_name+0x44>)
    46cc:	6001      	str	r1, [r0, #0]
    46ce:	3f04      	subs	r7, #4
    46d0:	603e      	str	r6, [r7, #0]
    46d2:	4e52      	ldr	r6, [pc, #328]	; (481c <init_name+0x44>)
    46d4:	4d52      	ldr	r5, [pc, #328]	; (4820 <init_name+0x48>)

000046d6 <SucheFlashPointer_Hangelschleife>:
    46d6:	88b1      	ldrh	r1, [r6, #4]
    46d8:	4b52      	ldr	r3, [pc, #328]	; (4824 <init_name+0x4c>)
    46da:	4299      	cmp	r1, r3
    46dc:	d024      	beq.n	4728 <Sucheflashpointer_Speicherbelegung_fertig>
    46de:	4b52      	ldr	r3, [pc, #328]	; (4828 <init_name+0x50>)
    46e0:	400b      	ands	r3, r1
    46e2:	d00a      	beq.n	46fa <SucheFlashPointer_Hangelschleife+0x24>
    46e4:	1db0      	adds	r0, r6, #6
    46e6:	f7fe ffc5 	bl	3674 <skipstring>
    46ea:	f7fe fb2c 	bl	2d46 <suchedefinitionsende>
    46ee:	8803      	ldrh	r3, [r0, #0]
    46f0:	8840      	ldrh	r0, [r0, #2]
    46f2:	0400      	lsls	r0, r0, #16
    46f4:	4303      	orrs	r3, r0
    46f6:	1aed      	subs	r5, r5, r3
    46f8:	e016      	b.n	4728 <Sucheflashpointer_Speicherbelegung_fertig>
    46fa:	2380      	movs	r3, #128	; 0x80
    46fc:	400b      	ands	r3, r1
    46fe:	d013      	beq.n	4728 <Sucheflashpointer_Speicherbelegung_fertig>
    4700:	230f      	movs	r3, #15
    4702:	4019      	ands	r1, r3
    4704:	0089      	lsls	r1, r1, #2
    4706:	1a6d      	subs	r5, r5, r1
    4708:	1db0      	adds	r0, r6, #6
    470a:	f7fe ffb3 	bl	3674 <skipstring>
    470e:	f7fe fb1a 	bl	2d46 <suchedefinitionsende>
    4712:	3f04      	subs	r7, #4
    4714:	603e      	str	r6, [r7, #0]
    4716:	0006      	movs	r6, r0
    4718:	3f04      	subs	r7, #4
    471a:	603e      	str	r6, [r7, #0]
    471c:	002e      	movs	r6, r5
    471e:	3f04      	subs	r7, #4
    4720:	603e      	str	r6, [r7, #0]
    4722:	000e      	movs	r6, r1
    4724:	f7fd f824 	bl	1770 <Code_322>

00004728 <Sucheflashpointer_Speicherbelegung_fertig>:
    4728:	f7fe ff81 	bl	362e <Code_905>
    472c:	0030      	movs	r0, r6
    472e:	cf40      	ldmia	r7!, {r6}
    4730:	d0d1      	beq.n	46d6 <SucheFlashPointer_Hangelschleife>
    4732:	483e      	ldr	r0, [pc, #248]	; (482c <init_name+0x54>)
    4734:	6006      	str	r6, [r0, #0]
    4736:	cf40      	ldmia	r7!, {r6}
    4738:	483d      	ldr	r0, [pc, #244]	; (4830 <init_name+0x58>)
    473a:	6005      	str	r5, [r0, #0]
    473c:	483d      	ldr	r0, [pc, #244]	; (4834 <init_name+0x5c>)
    473e:	493e      	ldr	r1, [pc, #248]	; (4838 <init_name+0x60>)
    4740:	4a38      	ldr	r2, [pc, #224]	; (4824 <init_name+0x4c>)
    4742:	4288      	cmp	r0, r1
    4744:	d004      	beq.n	4750 <Sucheflashpointer_Speicherbelegung_fertig+0x28>
    4746:	3802      	subs	r0, #2
    4748:	8803      	ldrh	r3, [r0, #0]
    474a:	4293      	cmp	r3, r2
    474c:	d0f9      	beq.n	4742 <Sucheflashpointer_Speicherbelegung_fertig+0x1a>
    474e:	3002      	adds	r0, #2
    4750:	493a      	ldr	r1, [pc, #232]	; (483c <init_name+0x64>)
    4752:	6008      	str	r0, [r1, #0]
    4754:	f7fd fb20 	bl	1d98 <sammeltabelleleeren>
    4758:	f7fd fff0 	bl	273c <dotgaensefuesschen>
    475c:	63654d51 	cmnvs	r5, #5184	; 0x1440
    4760:	70736972 	rsbsvc	r6, r3, r2, ror r9
    4764:	6574532d 	ldrbvs	r5, [r4, #-813]!	; 0x32d
    4768:	72616c6c 	rsbvc	r6, r1, #27648	; 0x6c00
    476c:	52207369 	eorpl	r7, r0, #-1543503871	; 0xa4000001
    4770:	2e302041 	cdpcs	0, 3, cr2, cr0, cr1, {2}
    4774:	78652031 	stmdavc	r5!, {r0, r4, r5, sp}^
    4778:	69726570 	ldmdbvs	r2!, {r4, r5, r6, r8, sl, sp, lr}^
    477c:	746e656d 	strbtvc	r6, [lr], #-1389	; 0x56d
    4780:	77206c61 	strvc	r6, [r0, -r1, ror #24]!
    4784:	20687469 	rsbcs	r7, r8, r9, ror #8
    4788:	6320304d 	teqvs	r0, #77	; 0x4d
    478c:	2065726f 	rsbcs	r7, r5, pc, ror #4
    4790:	20726f66 	rsbscs	r6, r2, r6, ror #30
    4794:	35324c4b 	ldrcc	r4, [r2, #-3147]!	; 0xc4b
    4798:	3832315a 	ldmdacc	r2!, {r1, r3, r4, r6, r8, ip, sp}
    479c:	20796220 	rsbscs	r6, r9, r0, lsr #4
    47a0:	7474614d 	ldrbtvc	r6, [r4], #-333	; 0x14d
    47a4:	73616968 	cmnvc	r1, #1703936	; 0x1a0000
    47a8:	636f4b20 	cmnvs	pc, #32768	; 0x8000
    47ac:	48240a68 	stmdami	r4!, {r3, r5, r6, r9, fp}
    47b0:	2100      	movs	r1, #0
    47b2:	6001      	str	r1, [r0, #0]
    47b4:	f7fc f86e 	bl	894 <Code_72>
    47b8:	3f04      	subs	r7, #4
    47ba:	603e      	str	r6, [r7, #0]
    47bc:	4e21      	ldr	r6, [pc, #132]	; (4844 <init_name+0x6c>)
    47be:	3f04      	subs	r7, #4
    47c0:	603e      	str	r6, [r7, #0]
    47c2:	2604      	movs	r6, #4
    47c4:	f7fe ff66 	bl	3694 <Code_910>
    47c8:	cf40      	ldmia	r7!, {r6}
    47ca:	2e00      	cmp	r6, #0
    47cc:	d002      	beq.n	47d4 <Sucheflashpointer_Speicherbelegung_fertig+0xac>
    47ce:	f7fe fb40 	bl	2e52 <Code_762>
    47d2:	e652      	b.n	447a <quit_intern>
    47d4:	cf40      	ldmia	r7!, {r6}
    47d6:	e63b      	b.n	4450 <Code_1191>

000047d8 <init_name>:
    47d8:	74696e69 	strbtvc	r6, [r9], #-3689	; 0xe69
    47dc:	e000ed0c 	and	lr, r0, ip, lsl #26
    47e0:	05fa0004 	ldrbeq	r0, [sl, #4]!
    47e4:	20002fd0 	ldrdcs	r2, [r0], -r0
    47e8:	20002fcc 	andcs	r2, r0, ip, asr #31
    47ec:	20002fc8 	andcs	r2, r0, r8, asr #31
    47f0:	20002fc4 	andcs	r2, r0, r4, asr #31
    47f4:	20002fc0 	andcs	r2, r0, r0, asr #31
    47f8:	20002fbc 			; <UNDEFINED> instruction: 0x20002fbc
    47fc:	20002fb8 			; <UNDEFINED> instruction: 0x20002fb8
    4800:	20002fb4 			; <UNDEFINED> instruction: 0x20002fb4
    4804:	40048100 	andmi	r8, r4, r0, lsl #2
    4808:	1ffff358 	svcne	0x00fff358
    480c:	1ffff258 	svcne	0x00fff258
    4810:	1ffff000 	svcne	0x00fff000
    4814:	1ffff418 	svcne	0x00fff418
    4818:	1ffff004 	svcne	0x00fff004
    481c:	00000410 	andeq	r0, r0, r0, lsl r4
    4820:	20003000 	andcs	r3, r0, r0
    4824:	0000ffff 	strdeq	pc, [r0], -pc	; <UNPREDICTABLE>
    4828:	00000100 	andeq	r0, r0, r0, lsl #2
    482c:	1ffff01c 	svcne	0x00fff01c
    4830:	1ffff024 	svcne	0x00fff024
    4834:	00020000 	andeq	r0, r2, r0
    4838:	00006000 	andeq	r6, r0, r0
    483c:	1ffff018 	svcne	0x00fff018
    4840:	1ffff008 	svcne	0x00fff008
    4844:	000047d8 	ldrdeq	r4, [r0], -r8

Disassembly of section .ARM.attributes:

00000000 <.ARM.attributes>:
   0:	00002041 	andeq	r2, r0, r1, asr #32
   4:	61656100 	cmnvs	r5, r0, lsl #2
   8:	01006962 	tsteq	r0, r2, ror #18
   c:	00000016 	andeq	r0, r0, r6, lsl r0
  10:	726f4305 	rsbvc	r4, pc, #335544320	; 0x14000000
  14:	2d786574 	cfldr64cs	mvdx6, [r8, #-464]!	; 0xfffffe30
  18:	0600304d 	streq	r3, [r0], -sp, asr #32
  1c:	094d070c 	stmdbeq	sp, {r2, r3, r8, r9, sl}^
  20:	Address 0x00000020 is out of bounds.

