
mecrisp-stellaris-lm4f120.elf:     file format elf32-littlearm


Disassembly of section .text:

00000000 <nullhandler-0xbc>:
       0:	20000338 	andcs	r0, r0, r8, lsr r3
       4:	00002499 	muleq	r0, r9, r4
       8:	000000bd 	strheq	r0, [r0], -sp
       c:	000000bd 	strheq	r0, [r0], -sp
      10:	000000bd 	strheq	r0, [r0], -sp
      14:	000000bd 	strheq	r0, [r0], -sp
      18:	000000bd 	strheq	r0, [r0], -sp
	...
      2c:	000000bd 	strheq	r0, [r0], -sp
      30:	000000bd 	strheq	r0, [r0], -sp
      34:	00000000 	andeq	r0, r0, r0
      38:	000000bd 	strheq	r0, [r0], -sp
      3c:	00002235 	andeq	r2, r0, r5, lsr r2
      40:	00002259 	andeq	r2, r0, r9, asr r2
      44:	0000227d 	andeq	r2, r0, sp, ror r2
      48:	000022a1 	andeq	r2, r0, r1, lsr #5
      4c:	000022c5 	andeq	r2, r0, r5, asr #5
      50:	000022e9 	andeq	r2, r0, r9, ror #5
      54:	000000bd 	strheq	r0, [r0], -sp
      58:	000000bd 	strheq	r0, [r0], -sp
      5c:	000000bd 	strheq	r0, [r0], -sp
      60:	000000bd 	strheq	r0, [r0], -sp
	...
      78:	00002335 	andeq	r2, r0, r5, lsr r3
      7c:	0000235d 	andeq	r2, r0, sp, asr r3
      80:	00002385 	andeq	r2, r0, r5, lsl #7
      84:	000023ad 	andeq	r2, r0, sp, lsr #7
      88:	000000bd 	strheq	r0, [r0], -sp
      8c:	000023d3 	ldrdeq	r2, [r0], -r3
      90:	000023f9 	strdeq	r2, [r0], -r9
      94:	0000241f 	andeq	r2, r0, pc, lsl r4
      98:	00002445 	andeq	r2, r0, r5, asr #8
      9c:	0000246b 	andeq	r2, r0, fp, ror #8
      a0:	00002491 	muleq	r0, r1, r4
      a4:	000000bd 	strheq	r0, [r0], -sp
      a8:	000000bd 	strheq	r0, [r0], -sp
      ac:	00000000 	andeq	r0, r0, r0
      b0:	000000bd 	strheq	r0, [r0], -sp
      b4:	000000bd 	strheq	r0, [r0], -sp
      b8:	0000230d 	andeq	r2, r0, sp, lsl #6

000000bc <nullhandler>:
      bc:	b500      	push	{lr}
      be:	f000 fdaa 	bl	c16 <dotgaensefuesschen>
      c2:	686e5516 	stmdavs	lr!, {r1, r2, r4, r8, sl, ip, lr}^
      c6:	6c646e61 	stclvs	14, cr6, [r4], #-388	; 0xfffffe7c
      ca:	49206465 	stmdbmi	r0!, {r0, r2, r5, r6, sl, sp, lr}
      ce:	7265746e 	rsbvc	r7, r5, #1845493760	; 0x6e000000
      d2:	74707572 	ldrbtvc	r7, [r0], #-1394	; 0x572
      d6:	000a2120 	andeq	r2, sl, r0, lsr #2
      da:	f85d eb04 	ldr.w	lr, [sp], #4
      de:	4770      	bx	lr
      e0:	00004000 	andeq	r4, r0, r0
      e4:	64050000 	strvs	r0, [r5], #-0
      e8:	68747065 	ldmdavs	r4!, {r0, r2, r5, r6, ip, sp, lr}^
      ec:	f8df 1894 	ldr.w	r1, [pc, #2196]	; 984 <divmod+0xb2>
      f0:	1bc9      	subs	r1, r1, r7
      f2:	0889      	lsrs	r1, r1, #2
      f4:	f847 6d04 	str.w	r6, [r7, #-4]!
      f8:	000e      	movs	r6, r1
      fa:	4770      	bx	lr
      fc:	000000e0 	andeq	r0, r0, r0, ror #1
     100:	64030061 	strvs	r0, [r3], #-97	; 0x61
     104:	f8477075 			; <UNDEFINED> instruction: 0xf8477075
     108:	6d04      	ldr	r4, [r0, #80]	; 0x50
     10a:	4770      	bx	lr
     10c:	000000fc 	strdeq	r0, [r0], -ip
     110:	64040061 	strvs	r0, [r4], #-97	; 0x61
     114:	00706f72 	rsbseq	r6, r0, r2, ror pc
     118:	cf40      	ldmia	r7!, {r6}
     11a:	4770      	bx	lr
     11c:	0000010c 	andeq	r0, r0, ip, lsl #2
     120:	3f040061 	svccc	0x00040061
     124:	00707564 	rsbseq	r7, r0, r4, ror #10
     128:	2e00      	cmp	r6, #0
     12a:	bf18      	it	ne
     12c:	f847 6d04 	strne.w	r6, [r7, #-4]!
     130:	4770      	bx	lr
     132:	0000011c 	andeq	r0, r0, ip, lsl r1
     136:	73040062 	movwvc	r0, #16482	; 0x4062
     13a:	00706177 	rsbseq	r6, r0, r7, ror r1
     13e:	6839      	ldr	r1, [r7, #0]
     140:	603e      	str	r6, [r7, #0]
     142:	000e      	movs	r6, r1
     144:	4770      	bx	lr
     146:	00000132 	andeq	r0, r0, r2, lsr r1
     14a:	6e030062 	cdpvs	0, 0, cr0, cr3, cr2, {3}
     14e:	37047069 	strcc	r7, [r4, -r9, rrx]
     152:	4770      	bx	lr
     154:	00000146 	andeq	r0, r0, r6, asr #2
     158:	6f040062 	svcvs	0x00040062
     15c:	00726576 	rsbseq	r6, r2, r6, ror r5
     160:	6839      	ldr	r1, [r7, #0]
     162:	f847 6d04 	str.w	r6, [r7, #-4]!
     166:	000e      	movs	r6, r1
     168:	4770      	bx	lr
     16a:	00000154 	andeq	r0, r0, r4, asr r1
     16e:	74040062 	strvc	r0, [r4], #-98	; 0x62
     172:	006b6375 	rsbeq	r6, fp, r5, ror r3
     176:	cf01      	ldmia	r7!, {r0}
     178:	3f08      	subs	r7, #8
     17a:	607e      	str	r6, [r7, #4]
     17c:	6038      	str	r0, [r7, #0]
     17e:	4770      	bx	lr
     180:	0000016a 	andeq	r0, r0, sl, ror #2
     184:	72030043 	andvc	r0, r3, #67	; 0x43
     188:	cf03746f 	svcgt	0x0003746f
     18c:	3f08      	subs	r7, #8
     18e:	6078      	str	r0, [r7, #4]
     190:	603e      	str	r6, [r7, #0]
     192:	000e      	movs	r6, r1
     194:	4770      	bx	lr
     196:	00000180 	andeq	r0, r0, r0, lsl #3
     19a:	2d040043 	stccs	0, cr0, [r4, #-268]	; 0xfffffef4
     19e:	00746f72 	rsbseq	r6, r4, r2, ror pc
     1a2:	cf03      	ldmia	r7!, {r0, r1}
     1a4:	3f08      	subs	r7, #8
     1a6:	607e      	str	r6, [r7, #4]
     1a8:	6039      	str	r1, [r7, #0]
     1aa:	0006      	movs	r6, r0
     1ac:	4770      	bx	lr
     1ae:	00000196 	muleq	r0, r6, r1
     1b2:	70040020 	andvc	r0, r4, r0, lsr #32
     1b6:	006b6369 	rsbeq	r6, fp, r9, ror #6
     1ba:	f857 6026 	ldr.w	r6, [r7, r6, lsl #2]
     1be:	4770      	bx	lr
     1c0:	000001ae 	andeq	r0, r0, lr, lsr #3
     1c4:	3e020020 	cdpcc	0, 0, cr0, cr2, cr0, {1}
     1c8:	b4400072 	strblt	r0, [r0], #-114	; 0x72
     1cc:	cf40      	ldmia	r7!, {r6}
     1ce:	4770      	bx	lr
     1d0:	000001c0 	andeq	r0, r0, r0, asr #3
     1d4:	72020020 	andvc	r0, r2, #32
     1d8:	f847003e 			; <UNDEFINED> instruction: 0xf847003e
     1dc:	6d04      	ldr	r4, [r0, #80]	; 0x50
     1de:	bc40      	pop	{r6}
     1e0:	4770      	bx	lr
     1e2:	000001d0 	ldrdeq	r0, [r0], -r0	; <UNPREDICTABLE>
     1e6:	72020020 	andvc	r0, r2, #32
     1ea:	f8470040 			; <UNDEFINED> instruction: 0xf8470040
     1ee:	6d04      	ldr	r4, [r0, #80]	; 0x50
     1f0:	9e00      	ldr	r6, [sp, #0]
     1f2:	4770      	bx	lr
     1f4:	000001e2 	andeq	r0, r0, r2, ror #3
     1f8:	74040060 	strvc	r0, [r4], #-96	; 0x60
     1fc:	00657572 	rsbeq	r7, r5, r2, ror r5
     200:	f847 6d04 	str.w	r6, [r7, #-4]!
     204:	f05f 36ff 	movs.w	r6, #4294967295
     208:	4770      	bx	lr
     20a:	000001f4 	strdeq	r0, [r0], -r4
     20e:	66050060 	strvs	r0, [r5], -r0, rrx
     212:	65736c61 	ldrbvs	r6, [r3, #-3169]!	; 0xc61
     216:	f847 6d04 	str.w	r6, [r7, #-4]!
     21a:	2600      	movs	r6, #0
     21c:	4770      	bx	lr
     21e:	0000020a 	andeq	r0, r0, sl, lsl #4
     222:	61030062 	tstvs	r3, r2, rrx
     226:	cf01646e 	svcgt	0x0001646e
     22a:	4006      	ands	r6, r0
     22c:	4770      	bx	lr
     22e:	0000021e 	andeq	r0, r0, lr, lsl r2
     232:	62030062 	andvs	r0, r3, #98	; 0x62
     236:	cf016369 	svcgt	0x00016369
     23a:	ea30 0606 	bics.w	r6, r0, r6
     23e:	4770      	bx	lr
     240:	0000022e 	andeq	r0, r0, lr, lsr #4
     244:	6f020062 	svcvs	0x00020062
     248:	cf010072 	svcgt	0x00010072
     24c:	4306      	orrs	r6, r0
     24e:	4770      	bx	lr
     250:	00000240 	andeq	r0, r0, r0, asr #4
     254:	78030062 	stmdavc	r3, {r1, r5, r6}
     258:	cf01726f 	svcgt	0x0001726f
     25c:	4046      	eors	r6, r0
     25e:	4770      	bx	lr
     260:	00000250 	andeq	r0, r0, r0, asr r2
     264:	6e030061 	cdpvs	0, 0, cr0, cr3, cr1, {3}
     268:	43f6746f 	mvnsmi	r7, #1862270976	; 0x6f000000
     26c:	4770      	bx	lr
     26e:	00000260 	andeq	r0, r0, r0, ror #4
     272:	63030061 	movwvs	r0, #12385	; 0x3061
     276:	fab67a6c 	blx	fed9ec2e <RCGCUART+0xbeca0616>
     27a:	f686 4770 			; <UNDEFINED> instruction: 0xf6864770
     27e:	0000026e 	andeq	r0, r0, lr, ror #4
     282:	73030061 	movwvc	r0, #12385	; 0x3061
     286:	08767268 	ldmdaeq	r6!, {r3, r5, r6, r9, ip, sp, lr}^
     28a:	4770      	bx	lr
     28c:	0000027e 	andeq	r0, r0, lr, ror r2
     290:	73030061 	movwvc	r0, #12385	; 0x3061
     294:	00766c68 	rsbseq	r6, r6, r8, ror #24
     298:	4770      	bx	lr
     29a:	0000028c 	andeq	r0, r0, ip, lsl #5
     29e:	72060062 	andvc	r0, r6, #98	; 0x62
     2a2:	66696873 			; <UNDEFINED> instruction: 0x66696873
     2a6:	cf010074 	svcgt	0x00010074
     2aa:	fa30 f606 	lsrs.w	r6, r0, r6
     2ae:	4770      	bx	lr
     2b0:	0000029a 	muleq	r0, sl, r2
     2b4:	61070062 	tstvs	r7, r2, rrx
     2b8:	69687372 	stmdbvs	r8!, {r1, r4, r5, r6, r8, r9, ip, sp, lr}^
     2bc:	cf017466 	svcgt	0x00017466
     2c0:	fa50 f606 	asrs.w	r6, r0, r6
     2c4:	4770      	bx	lr
     2c6:	000002b0 			; <UNDEFINED> instruction: 0x000002b0
     2ca:	6c060062 	stcvs	0, cr0, [r6], {98}	; 0x62
     2ce:	66696873 			; <UNDEFINED> instruction: 0x66696873
     2d2:	cf010074 	svcgt	0x00010074
     2d6:	fa10 f606 	lsls.w	r6, r0, r6
     2da:	4770      	bx	lr
     2dc:	000002c6 	andeq	r0, r0, r6, asr #5
     2e0:	30020061 	andcc	r0, r2, r1, rrx
     2e4:	3e01003d 	mcrcc	0, 0, r0, cr1, cr13, {1}
     2e8:	41b6      	sbcs	r6, r6
     2ea:	4770      	bx	lr
     2ec:	000002dc 	ldrdeq	r0, [r0], -ip
     2f0:	30030061 	andcc	r0, r3, r1, rrx
     2f4:	3e013e3c 	mcrcc	14, 0, r3, cr1, cr12, {1}
     2f8:	41b6      	sbcs	r6, r6
     2fa:	43f6      	mvns	r6, r6
     2fc:	4770      	bx	lr
     2fe:	000002ec 	andeq	r0, r0, ip, ror #5
     302:	30020061 	andcc	r0, r2, r1, rrx
     306:	17f6003c 			; <UNDEFINED> instruction: 0x17f6003c
     30a:	4770      	bx	lr
     30c:	000002fe 	strdeq	r0, [r0], -lr
     310:	3e020042 	cdpcc	0, 0, cr0, cr2, cr2, {2}
     314:	cf01003d 	svcgt	0x0001003d
     318:	42b0      	cmp	r0, r6
     31a:	bfb4      	ite	lt
     31c:	2600      	movlt	r6, #0
     31e:	f04f 36ff 	movge.w	r6, #4294967295
     322:	4770      	bx	lr
     324:	0000030c 	andeq	r0, r0, ip, lsl #6
     328:	3c020042 	stccc	0, cr0, [r2], {66}	; 0x42
     32c:	cf01003d 	svcgt	0x0001003d
     330:	42b0      	cmp	r0, r6
     332:	bfcc      	ite	gt
     334:	2600      	movgt	r6, #0
     336:	f04f 36ff 	movle.w	r6, #4294967295
     33a:	4770      	bx	lr
     33c:	00000324 	andeq	r0, r0, r4, lsr #6
     340:	3c010042 	stccc	0, cr0, [r1], {66}	; 0x42
     344:	cf01      	ldmia	r7!, {r0}
     346:	42b0      	cmp	r0, r6
     348:	bfb4      	ite	lt
     34a:	f04f 36ff 	movlt.w	r6, #4294967295
     34e:	2600      	movge	r6, #0
     350:	4770      	bx	lr
     352:	0000033c 	andeq	r0, r0, ip, lsr r3
     356:	3e010042 	cdpcc	0, 0, cr0, cr1, cr2, {2}
     35a:	cf01      	ldmia	r7!, {r0}
     35c:	42b0      	cmp	r0, r6
     35e:	bfcc      	ite	gt
     360:	f04f 36ff 	movgt.w	r6, #4294967295
     364:	2600      	movle	r6, #0
     366:	4770      	bx	lr
     368:	00000352 	andeq	r0, r0, r2, asr r3
     36c:	75030042 	strvc	r0, [r3, #-66]	; 0x42
     370:	cf013d3e 	svcgt	0x00013d3e
     374:	ebd6 0600 	rsbs	r6, r6, r0
     378:	41b6      	sbcs	r6, r6
     37a:	43f6      	mvns	r6, r6
     37c:	4770      	bx	lr
     37e:	00000368 	andeq	r0, r0, r8, ror #6
     382:	75030042 	strvc	r0, [r3, #-66]	; 0x42
     386:	cf013d3c 	svcgt	0x00013d3c
     38a:	1a36      	subs	r6, r6, r0
     38c:	41b6      	sbcs	r6, r6
     38e:	43f6      	mvns	r6, r6
     390:	4770      	bx	lr
     392:	0000037e 	andeq	r0, r0, lr, ror r3
     396:	75020062 	strvc	r0, [r2, #-98]	; 0x62
     39a:	cf01003c 	svcgt	0x0001003c
     39e:	ebd6 0600 	rsbs	r6, r6, r0
     3a2:	41b6      	sbcs	r6, r6
     3a4:	4770      	bx	lr
     3a6:	00000392 	muleq	r0, r2, r3
     3aa:	75020062 	strvc	r0, [r2, #-98]	; 0x62
     3ae:	cf01003e 	svcgt	0x0001003e
     3b2:	1a36      	subs	r6, r6, r0
     3b4:	41b6      	sbcs	r6, r6
     3b6:	4770      	bx	lr
     3b8:	000003a6 	andeq	r0, r0, r6, lsr #7
     3bc:	3c020062 	stccc	0, cr0, [r2], {98}	; 0x62
     3c0:	cf01003e 	svcgt	0x0001003e
     3c4:	1a36      	subs	r6, r6, r0
     3c6:	bf18      	it	ne
     3c8:	f04f 36ff 	movne.w	r6, #4294967295
     3cc:	4770      	bx	lr
     3ce:	000003b8 			; <UNDEFINED> instruction: 0x000003b8
     3d2:	3d010062 	stccc	0, cr0, [r1, #-392]	; 0xfffffe78
     3d6:	cf01      	ldmia	r7!, {r0}
     3d8:	1a36      	subs	r6, r6, r0
     3da:	3e01      	subs	r6, #1
     3dc:	41b6      	sbcs	r6, r6
     3de:	4770      	bx	lr
     3e0:	000003ce 	andeq	r0, r0, lr, asr #7
     3e4:	6d030042 	stcvs	0, cr0, [r3, #-264]	; 0xfffffef8
     3e8:	cf016e69 	svcgt	0x00016e69
     3ec:	42b0      	cmp	r0, r6
     3ee:	bfb8      	it	lt
     3f0:	4606      	movlt	r6, r0
     3f2:	4770      	bx	lr
     3f4:	000003e0 	andeq	r0, r0, r0, ror #7
     3f8:	6d030042 	stcvs	0, cr0, [r3, #-264]	; 0xfffffef8
     3fc:	cf017861 	svcgt	0x00017861
     400:	42b0      	cmp	r0, r6
     402:	bfc8      	it	gt
     404:	4606      	movgt	r6, r0
     406:	4770      	bx	lr
     408:	000003f4 	strdeq	r0, [r0], -r4
     40c:	75040042 	strvc	r0, [r4, #-66]	; 0x42
     410:	0078616d 	rsbseq	r6, r8, sp, ror #2
     414:	cf01      	ldmia	r7!, {r0}
     416:	42b0      	cmp	r0, r6
     418:	bf88      	it	hi
     41a:	4606      	movhi	r6, r0
     41c:	4770      	bx	lr
     41e:	00000408 	andeq	r0, r0, r8, lsl #8
     422:	75040042 	strvc	r0, [r4, #-66]	; 0x42
     426:	006e696d 	rsbeq	r6, lr, sp, ror #18
     42a:	cf01      	ldmia	r7!, {r0}
     42c:	42b0      	cmp	r0, r6
     42e:	bf38      	it	cc
     430:	4606      	movcc	r6, r0
     432:	4770      	bx	lr
     434:	0000041e 	andeq	r0, r0, lr, lsl r4
     438:	6d040000 	stcvs	0, cr0, [r4, #-0]
     43c:	0065766f 	rsbeq	r7, r5, pc, ror #12

00000440 <move>:
     440:	b50f      	push	{r0, r1, r2, r3, lr}
     442:	4632      	mov	r2, r6
     444:	cf40      	ldmia	r7!, {r6}
     446:	4631      	mov	r1, r6
     448:	cf40      	ldmia	r7!, {r6}
     44a:	4630      	mov	r0, r6
     44c:	cf40      	ldmia	r7!, {r6}
     44e:	2a00      	cmp	r2, #0
     450:	d007      	beq.n	462 <move_fertig>
     452:	4281      	cmp	r1, r0
     454:	d005      	beq.n	462 <move_fertig>
     456:	7803      	ldrb	r3, [r0, #0]
     458:	700b      	strb	r3, [r1, #0]
     45a:	3001      	adds	r0, #1
     45c:	3101      	adds	r1, #1
     45e:	3a01      	subs	r2, #1
     460:	d1f9      	bne.n	456 <move+0x16>

00000462 <move_fertig>:
     462:	bd0f      	pop	{r0, r1, r2, r3, pc}
     464:	00000434 	andeq	r0, r0, r4, lsr r4
     468:	40010020 	andmi	r0, r1, r0, lsr #32
     46c:	6836      	ldr	r6, [r6, #0]
     46e:	4770      	bx	lr
     470:	00000464 	andeq	r0, r0, r4, ror #8
     474:	21010020 	tstcs	r1, r0, lsr #32
     478:	cf03      	ldmia	r7!, {r0, r1}
     47a:	6030      	str	r0, [r6, #0]
     47c:	000e      	movs	r6, r1
     47e:	4770      	bx	lr
     480:	00000470 	andeq	r0, r0, r0, ror r4
     484:	2b020000 	blcs	8048c <FlashDictionaryEnde+0x4048c>
     488:	cf030021 	svcgt	0x00030021
     48c:	6832      	ldr	r2, [r6, #0]
     48e:	1812      	adds	r2, r2, r0
     490:	6032      	str	r2, [r6, #0]
     492:	000e      	movs	r6, r1
     494:	4770      	bx	lr
     496:	00000480 	andeq	r0, r0, r0, lsl #9
     49a:	68020020 	stmdavs	r2, {r5}
     49e:	88360040 	ldmdahi	r6!, {r6}
     4a2:	4770      	bx	lr
     4a4:	00000496 	muleq	r0, r6, r4
     4a8:	68020020 	stmdavs	r2, {r5}
     4ac:	cf030021 	svcgt	0x00030021
     4b0:	8030      	strh	r0, [r6, #0]
     4b2:	000e      	movs	r6, r1
     4b4:	4770      	bx	lr
     4b6:	000004a4 	andeq	r0, r0, r4, lsr #9
     4ba:	68030000 	stmdavs	r3, {}	; <UNPREDICTABLE>
     4be:	cf03212b 	svcgt	0x0003212b
     4c2:	8832      	ldrh	r2, [r6, #0]
     4c4:	1812      	adds	r2, r2, r0
     4c6:	8032      	strh	r2, [r6, #0]
     4c8:	000e      	movs	r6, r1
     4ca:	4770      	bx	lr
     4cc:	000004b6 			; <UNDEFINED> instruction: 0x000004b6
     4d0:	63020020 	movwvs	r0, #8224	; 0x2020
     4d4:	78360040 	ldmdavc	r6!, {r6}
     4d8:	4770      	bx	lr
     4da:	000004cc 	andeq	r0, r0, ip, asr #9
     4de:	63020020 	movwvs	r0, #8224	; 0x2020
     4e2:	cf030021 	svcgt	0x00030021
     4e6:	7030      	strb	r0, [r6, #0]
     4e8:	000e      	movs	r6, r1
     4ea:	4770      	bx	lr
     4ec:	000004da 	ldrdeq	r0, [r0], -sl
     4f0:	63030000 	movwvs	r0, #12288	; 0x3000
     4f4:	cf03212b 	svcgt	0x0003212b
     4f8:	7832      	ldrb	r2, [r6, #0]
     4fa:	1812      	adds	r2, r2, r0
     4fc:	7032      	strb	r2, [r6, #0]
     4fe:	000e      	movs	r6, r1
     500:	4770      	bx	lr
     502:	000004ec 	andeq	r0, r0, ip, ror #9
     506:	62040000 	andvs	r0, r4, #0
     50a:	00217369 	eoreq	r7, r1, r9, ror #6
     50e:	cf03      	ldmia	r7!, {r0, r1}
     510:	6832      	ldr	r2, [r6, #0]
     512:	4302      	orrs	r2, r0
     514:	6032      	str	r2, [r6, #0]
     516:	000e      	movs	r6, r1
     518:	4770      	bx	lr
     51a:	00000502 	andeq	r0, r0, r2, lsl #10
     51e:	62040000 	andvs	r0, r4, #0
     522:	00216369 	eoreq	r6, r1, r9, ror #6
     526:	cf03      	ldmia	r7!, {r0, r1}
     528:	6832      	ldr	r2, [r6, #0]
     52a:	4382      	bics	r2, r0
     52c:	6032      	str	r2, [r6, #0]
     52e:	000e      	movs	r6, r1
     530:	4770      	bx	lr
     532:	0000051a 	andeq	r0, r0, sl, lsl r5
     536:	78040000 	stmdavc	r4, {}	; <UNPREDICTABLE>
     53a:	0021726f 	eoreq	r7, r1, pc, ror #4
     53e:	cf03      	ldmia	r7!, {r0, r1}
     540:	6832      	ldr	r2, [r6, #0]
     542:	4042      	eors	r2, r0
     544:	6032      	str	r2, [r6, #0]
     546:	000e      	movs	r6, r1
     548:	4770      	bx	lr
     54a:	00000532 	andeq	r0, r0, r2, lsr r5
     54e:	62040020 	andvs	r0, r4, #32
     552:	00407469 	subeq	r7, r0, r9, ror #8
     556:	cf01      	ldmia	r7!, {r0}
     558:	6836      	ldr	r6, [r6, #0]
     55a:	4006      	ands	r6, r0
     55c:	bf18      	it	ne
     55e:	f04f 36ff 	movne.w	r6, #4294967295
     562:	4770      	bx	lr
     564:	0000054a 	andeq	r0, r0, sl, asr #10
     568:	68050000 	stmdavs	r5, {}	; <UNPREDICTABLE>
     56c:	21736962 	cmncs	r3, r2, ror #18
     570:	cf03      	ldmia	r7!, {r0, r1}
     572:	8832      	ldrh	r2, [r6, #0]
     574:	4302      	orrs	r2, r0
     576:	8032      	strh	r2, [r6, #0]
     578:	000e      	movs	r6, r1
     57a:	4770      	bx	lr
     57c:	00000564 	andeq	r0, r0, r4, ror #10
     580:	68050000 	stmdavs	r5, {}	; <UNPREDICTABLE>
     584:	21636962 	cmncs	r3, r2, ror #18
     588:	cf03      	ldmia	r7!, {r0, r1}
     58a:	8832      	ldrh	r2, [r6, #0]
     58c:	4382      	bics	r2, r0
     58e:	8032      	strh	r2, [r6, #0]
     590:	000e      	movs	r6, r1
     592:	4770      	bx	lr
     594:	0000057c 	andeq	r0, r0, ip, ror r5
     598:	68050000 	stmdavs	r5, {}	; <UNPREDICTABLE>
     59c:	21726f78 	cmncs	r2, r8, ror pc
     5a0:	cf03      	ldmia	r7!, {r0, r1}
     5a2:	8832      	ldrh	r2, [r6, #0]
     5a4:	4042      	eors	r2, r0
     5a6:	8032      	strh	r2, [r6, #0]
     5a8:	000e      	movs	r6, r1
     5aa:	4770      	bx	lr
     5ac:	00000594 	muleq	r0, r4, r5
     5b0:	68050020 	stmdavs	r5, {r5}
     5b4:	40746962 	rsbsmi	r6, r4, r2, ror #18
     5b8:	cf01      	ldmia	r7!, {r0}
     5ba:	8836      	ldrh	r6, [r6, #0]
     5bc:	4006      	ands	r6, r0
     5be:	bf18      	it	ne
     5c0:	f04f 36ff 	movne.w	r6, #4294967295
     5c4:	4770      	bx	lr
     5c6:	000005ac 	andeq	r0, r0, ip, lsr #11
     5ca:	63050000 	movwvs	r0, #20480	; 0x5000
     5ce:	21736962 	cmncs	r3, r2, ror #18
     5d2:	cf03      	ldmia	r7!, {r0, r1}
     5d4:	7832      	ldrb	r2, [r6, #0]
     5d6:	4302      	orrs	r2, r0
     5d8:	7032      	strb	r2, [r6, #0]
     5da:	000e      	movs	r6, r1
     5dc:	4770      	bx	lr
     5de:	000005c6 	andeq	r0, r0, r6, asr #11
     5e2:	63050000 	movwvs	r0, #20480	; 0x5000
     5e6:	21636962 	cmncs	r3, r2, ror #18
     5ea:	cf03      	ldmia	r7!, {r0, r1}
     5ec:	7832      	ldrb	r2, [r6, #0]
     5ee:	4382      	bics	r2, r0
     5f0:	7032      	strb	r2, [r6, #0]
     5f2:	000e      	movs	r6, r1
     5f4:	4770      	bx	lr
     5f6:	000005de 	ldrdeq	r0, [r0], -lr
     5fa:	63050000 	movwvs	r0, #20480	; 0x5000
     5fe:	21726f78 	cmncs	r2, r8, ror pc
     602:	cf03      	ldmia	r7!, {r0, r1}
     604:	7832      	ldrb	r2, [r6, #0]
     606:	4042      	eors	r2, r0
     608:	7032      	strb	r2, [r6, #0]
     60a:	000e      	movs	r6, r1
     60c:	4770      	bx	lr
     60e:	000005f6 	strdeq	r0, [r0], -r6
     612:	63050020 	movwvs	r0, #20512	; 0x5020
     616:	40746962 	rsbsmi	r6, r4, r2, ror #18
     61a:	cf01      	ldmia	r7!, {r0}
     61c:	7836      	ldrb	r6, [r6, #0]
     61e:	4006      	ands	r6, r0
     620:	bf18      	it	ne
     622:	f04f 36ff 	movne.w	r6, #4294967295
     626:	4770      	bx	lr
     628:	0000060e 	andeq	r0, r0, lr, lsl #12
     62c:	66060000 	strvs	r0, [r6], -r0
     630:	6873616c 	ldmdavs	r3!, {r2, r3, r5, r6, r8, sp, lr}^
     634:	46300021 	ldrtmi	r0, [r0], -r1, lsr #32
     638:	cf40      	ldmia	r7!, {r6}
     63a:	4631      	mov	r1, r6
     63c:	cf40      	ldmia	r7!, {r6}
     63e:	f1b1 3fff 	cmp.w	r1, #4294967295
     642:	d016      	beq.n	672 <flashkomma_innen+0x1e>
     644:	f010 0203 	ands.w	r2, r0, #3
     648:	2a00      	cmp	r2, #0
     64a:	d113      	bne.n	674 <flashkomma_innen+0x20>
     64c:	6802      	ldr	r2, [r0, #0]
     64e:	f1b2 3fff 	cmp.w	r2, #4294967295
     652:	d10f      	bne.n	674 <flashkomma_innen+0x20>

00000654 <flashkomma_innen>:
     654:	4bcc      	ldr	r3, [pc, #816]	; (988 <divmod+0xb6>)
     656:	4298      	cmp	r0, r3
     658:	d30c      	bcc.n	674 <flashkomma_innen+0x20>
     65a:	4acc      	ldr	r2, [pc, #816]	; (98c <divmod+0xba>)
     65c:	6011      	str	r1, [r2, #0]
     65e:	4acc      	ldr	r2, [pc, #816]	; (990 <divmod+0xbe>)
     660:	6010      	str	r0, [r2, #0]
     662:	4acc      	ldr	r2, [pc, #816]	; (994 <divmod+0xc2>)
     664:	4bcc      	ldr	r3, [pc, #816]	; (998 <divmod+0xc6>)
     666:	6013      	str	r3, [r2, #0]
     668:	6813      	ldr	r3, [r2, #0]
     66a:	f013 0301 	ands.w	r3, r3, #1
     66e:	2b00      	cmp	r3, #0
     670:	d1fa      	bne.n	668 <flashkomma_innen+0x14>
     672:	4770      	bx	lr
     674:	f000 facf 	bl	c16 <dotgaensefuesschen>
     678:	6f72572a 	svcvs	0x0072572a
     67c:	6120676e 	teqvs	r0, lr, ror #14
     680:	65726464 	ldrbvs	r6, [r2, #-1124]!	; 0x464
     684:	6f207373 	svcvs	0x00207373
     688:	61642072 	smcvs	16898	; 0x4202
     68c:	66206174 			; <UNDEFINED> instruction: 0x66206174
     690:	7720726f 	strvc	r7, [r0, -pc, ror #4]!
     694:	69746972 	ldmdbvs	r4!, {r1, r4, r5, r6, r8, fp, sp, lr}^
     698:	6620676e 	strtvs	r6, [r0], -lr, ror #14
     69c:	6873616c 	ldmdavs	r3!, {r2, r3, r5, r6, r8, sp, lr}^
     6a0:	000a2120 	andeq	r2, sl, r0, lsr #2
     6a4:	f001 bd8b 	b.w	21be <quit>
     6a8:	00000628 	andeq	r0, r0, r8, lsr #12
     6ac:	68070000 	stmdavs	r7, {}	; <UNPREDICTABLE>
     6b0:	73616c66 	cmnvc	r1, #26112	; 0x6600
     6b4:	46302168 	ldrtmi	r2, [r0], -r8, ror #2

000006b6 <h_flashkomma>:
     6b6:	4630      	mov	r0, r6
     6b8:	cf40      	ldmia	r7!, {r6}
     6ba:	4631      	mov	r1, r6
     6bc:	cf40      	ldmia	r7!, {r6}
     6be:	4bb7      	ldr	r3, [pc, #732]	; (99c <divmod+0xca>)
     6c0:	4019      	ands	r1, r3
     6c2:	4299      	cmp	r1, r3
     6c4:	d0d5      	beq.n	672 <flashkomma_innen+0x1e>
     6c6:	f010 0201 	ands.w	r2, r0, #1
     6ca:	2a00      	cmp	r2, #0
     6cc:	d1d2      	bne.n	674 <flashkomma_innen+0x20>
     6ce:	8802      	ldrh	r2, [r0, #0]
     6d0:	429a      	cmp	r2, r3
     6d2:	d1cf      	bne.n	674 <flashkomma_innen+0x20>

000006d4 <h_flashkomma_innen>:
     6d4:	f010 0202 	ands.w	r2, r0, #2
     6d8:	2a00      	cmp	r2, #0
     6da:	d004      	beq.n	6e6 <hflash_gerade>
     6dc:	3802      	subs	r0, #2
     6de:	8802      	ldrh	r2, [r0, #0]
     6e0:	0409      	lsls	r1, r1, #16
     6e2:	4311      	orrs	r1, r2
     6e4:	e7b6      	b.n	654 <flashkomma_innen>

000006e6 <hflash_gerade>:
     6e6:	1c82      	adds	r2, r0, #2
     6e8:	8813      	ldrh	r3, [r2, #0]
     6ea:	041b      	lsls	r3, r3, #16
     6ec:	4319      	orrs	r1, r3
     6ee:	e7b1      	b.n	654 <flashkomma_innen>
     6f0:	000006a8 	andeq	r0, r0, r8, lsr #13
     6f4:	63070000 	movwvs	r0, #28672	; 0x7000
     6f8:	73616c66 	cmnvc	r1, #26112	; 0x6600
     6fc:	46302168 	ldrtmi	r2, [r0], -r8, ror #2

000006fe <c_flashkomma>:
     6fe:	4630      	mov	r0, r6
     700:	cf40      	ldmia	r7!, {r6}
     702:	4631      	mov	r1, r6
     704:	cf40      	ldmia	r7!, {r6}
     706:	f011 01ff 	ands.w	r1, r1, #255	; 0xff
     70a:	29ff      	cmp	r1, #255	; 0xff
     70c:	d0b1      	beq.n	672 <flashkomma_innen+0x1e>
     70e:	7802      	ldrb	r2, [r0, #0]
     710:	2aff      	cmp	r2, #255	; 0xff
     712:	d1af      	bne.n	674 <flashkomma_innen+0x20>
     714:	f010 0201 	ands.w	r2, r0, #1
     718:	2a00      	cmp	r2, #0
     71a:	d004      	beq.n	726 <cflash_gerade>
     71c:	3801      	subs	r0, #1
     71e:	7802      	ldrb	r2, [r0, #0]
     720:	0209      	lsls	r1, r1, #8
     722:	4311      	orrs	r1, r2
     724:	e7d6      	b.n	6d4 <h_flashkomma_innen>

00000726 <cflash_gerade>:
     726:	1c42      	adds	r2, r0, #1
     728:	7813      	ldrb	r3, [r2, #0]
     72a:	021b      	lsls	r3, r3, #8
     72c:	4319      	orrs	r1, r3
     72e:	e7d1      	b.n	6d4 <h_flashkomma_innen>
     730:	000006f0 	strdeq	r0, [r0], -r0	; <UNPREDICTABLE>
     734:	660e0000 	strvs	r0, [lr], -r0
     738:	6873616c 	ldmdavs	r3!, {r2, r3, r5, r6, r8, sp, lr}^
     73c:	65676170 	strbvs	r6, [r7, #-368]!	; 0x170
     740:	73617265 	cmnvc	r1, #1342177286	; 0x50000006
     744:	b40f0065 	strlt	r0, [pc], #-101	; 74c <flashpageerase+0x6>

00000746 <flashpageerase>:
     746:	b40f      	push	{r0, r1, r2, r3}
     748:	4630      	mov	r0, r6
     74a:	cf40      	ldmia	r7!, {r6}
     74c:	4b8e      	ldr	r3, [pc, #568]	; (988 <divmod+0xb6>)
     74e:	4298      	cmp	r0, r3
     750:	d30b      	bcc.n	76a <flashpageerase+0x24>
     752:	4a8f      	ldr	r2, [pc, #572]	; (990 <divmod+0xbe>)
     754:	6010      	str	r0, [r2, #0]
     756:	4a8f      	ldr	r2, [pc, #572]	; (994 <divmod+0xc2>)
     758:	4b91      	ldr	r3, [pc, #580]	; (9a0 <divmod+0xce>)
     75a:	6013      	str	r3, [r2, #0]
     75c:	6813      	ldr	r3, [r2, #0]
     75e:	f013 0302 	ands.w	r3, r3, #2
     762:	2b00      	cmp	r3, #0
     764:	d1fa      	bne.n	75c <flashpageerase+0x16>
     766:	bc0f      	pop	{r0, r1, r2, r3}
     768:	4770      	bx	lr
     76a:	f000 fa54 	bl	c16 <dotgaensefuesschen>
     76e:	6f725722 	svcvs	0x00725722
     772:	6120676e 	teqvs	r0, lr, ror #14
     776:	65726464 	ldrbvs	r6, [r2, #-1124]!	; 0x464
     77a:	66207373 			; <UNDEFINED> instruction: 0x66207373
     77e:	6520726f 	strvs	r7, [r0, #-623]!	; 0x26f
     782:	69736172 	ldmdbvs	r3!, {r1, r4, r5, r6, r8, sp, lr}^
     786:	6620676e 	strtvs	r6, [r0], -lr, ror #14
     78a:	6873616c 	ldmdavs	r3!, {r2, r3, r5, r6, r8, sp, lr}^
     78e:	000a2120 	andeq	r2, sl, r0, lsr #2
     792:	f001 bd14 	b.w	21be <quit>
     796:	00000730 	andeq	r0, r0, r0, lsr r7
     79a:	650a0000 	strvs	r0, [sl, #-0]
     79e:	65736172 	ldrbvs	r6, [r3, #-370]!	; 0x172
     7a2:	73616c66 	cmnvc	r1, #26112	; 0x6600
     7a6:	487e0068 	ldmdami	lr!, {r3, r5, r6}^

000007aa <eraseflash_intern>:
     7aa:	497f      	ldr	r1, [pc, #508]	; (9a8 <divmod+0xd6>)
     7ac:	f64f 72ff 	movw	r2, #65535	; 0xffff
     7b0:	8803      	ldrh	r3, [r0, #0]
     7b2:	4293      	cmp	r3, r2
     7b4:	d01c      	beq.n	7f0 <eraseflash_intern+0x46>
     7b6:	f847 6d04 	str.w	r6, [r7, #-4]!
     7ba:	0006      	movs	r6, r0
     7bc:	f847 6d04 	str.w	r6, [r7, #-4]!
     7c0:	f000 fa29 	bl	c16 <dotgaensefuesschen>
     7c4:	61724510 	cmnvs	r2, r0, lsl r5
     7c8:	62206573 	eorvs	r6, r0, #482344960	; 0x1cc00000
     7cc:	6b636f6c 	blvs	18dc584 <FlashDictionaryEnde+0x189c584>
     7d0:	20746120 	rsbscs	r6, r4, r0, lsr #2
     7d4:	f0000020 			; <UNDEFINED> instruction: 0xf0000020
     7d8:	fa57 f000 	asrs.w	r0, r7, r0
     7dc:	fa1c 200c 			; <UNDEFINED> instruction: 0xfa1c200c
     7e0:	6d6f7266 	sfmvs	f7, 2, [pc, #-408]!	; 650 <move_fertig+0x1ee>
     7e4:	616c4620 	cmnvs	ip, r0, lsr #12
     7e8:	000a6873 	andeq	r6, sl, r3, ror r8
     7ec:	f7ff ffab 	bl	746 <flashpageerase>
     7f0:	3002      	adds	r0, #2
     7f2:	4288      	cmp	r0, r1
     7f4:	d1dc      	bne.n	7b0 <eraseflash_intern+0x6>
     7f6:	f000 fa0e 	bl	c16 <dotgaensefuesschen>
     7fa:	6e694612 	mcrvs	6, 3, r4, cr9, cr2, {0}
     7fe:	65687369 	strbvs	r7, [r8, #-873]!	; 0x369
     802:	52202e64 	eorpl	r2, r0, #1600	; 0x640
     806:	74657365 	strbtvc	r7, [r5], #-869	; 0x365
     80a:	000a2120 	andeq	r2, sl, r0, lsr #2
     80e:	f001 be43 	b.w	2498 <Reset>
     812:	00000796 	muleq	r0, r6, r7
     816:	650e0000 	strvs	r0, [lr, #-0]
     81a:	65736172 	ldrbvs	r6, [r3, #-370]!	; 0x172
     81e:	73616c66 	cmnvc	r1, #26112	; 0x6600
     822:	6f726668 	svcvs	0x00726668
     826:	4630006d 	ldrtmi	r0, [r0], -sp, rrx
     82a:	cf40      	ldmia	r7!, {r6}
     82c:	e7bd      	b.n	7aa <eraseflash_intern>
     82e:	00000812 	andeq	r0, r0, r2, lsl r8
     832:	2b010062 	blcs	409c2 <FlashDictionaryEnde+0x9c2>
     836:	cf01      	ldmia	r7!, {r0}
     838:	1836      	adds	r6, r6, r0
     83a:	4770      	bx	lr
     83c:	0000082e 	andeq	r0, r0, lr, lsr #16
     840:	2d010062 	stccs	0, cr0, [r1, #-392]	; 0xfffffe78
     844:	cf01      	ldmia	r7!, {r0}
     846:	1b86      	subs	r6, r0, r6
     848:	4770      	bx	lr
     84a:	0000083c 	andeq	r0, r0, ip, lsr r8
     84e:	31020061 	tstcc	r2, r1, rrx
     852:	3e01002d 	cdpcc	0, 0, cr0, cr1, cr13, {1}
     856:	4770      	bx	lr
     858:	0000084a 	andeq	r0, r0, sl, asr #16
     85c:	31020061 	tstcc	r2, r1, rrx
     860:	3601002b 	strcc	r0, [r1], -fp, lsr #32
     864:	4770      	bx	lr
     866:	00000858 	andeq	r0, r0, r8, asr r8
     86a:	32020061 	andcc	r0, r2, #97	; 0x61
     86e:	3e02002d 	cdpcc	0, 0, cr0, cr2, cr13, {1}
     872:	4770      	bx	lr
     874:	00000866 	andeq	r0, r0, r6, ror #16
     878:	32020061 	andcc	r0, r2, #97	; 0x61
     87c:	3602002b 	strcc	r0, [r2], -fp, lsr #32
     880:	4770      	bx	lr
     882:	00000874 	andeq	r0, r0, r4, ror r8
     886:	6e060061 	cdpvs	0, 0, cr0, cr6, cr1, {3}
     88a:	74616765 	strbtvc	r6, [r1], #-1893	; 0x765
     88e:	42760065 	rsbsmi	r0, r6, #101	; 0x65
     892:	4770      	bx	lr
     894:	00000882 	andeq	r0, r0, r2, lsl #17
     898:	61030041 	tstvs	r3, r1, asr #32
     89c:	2e007362 	cdpcs	3, 0, cr7, cr0, cr2, {3}
     8a0:	bf48      	it	mi
     8a2:	f1d6 0600 	rsbsmi	r6, r6, #0
     8a6:	4770      	bx	lr
     8a8:	00000894 	muleq	r0, r4, r8
     8ac:	75050042 	strvc	r0, [r5, #-66]	; 0x42
     8b0:	646f6d2f 	strbtvs	r6, [pc], #-3375	; 8b8 <u_divmod+0x4>

000008b4 <u_divmod>:
     8b4:	cf01      	ldmia	r7!, {r0}
     8b6:	0031      	movs	r1, r6
     8b8:	fbb0 f6f6 	udiv	r6, r0, r6
     8bc:	4371      	muls	r1, r6
     8be:	1a40      	subs	r0, r0, r1
     8c0:	3f04      	subs	r7, #4
     8c2:	6038      	str	r0, [r7, #0]
     8c4:	4770      	bx	lr
     8c6:	000008a8 	andeq	r0, r0, r8, lsr #17
     8ca:	2f040042 	svccs	0x00040042
     8ce:	00646f6d 	rsbeq	r6, r4, sp, ror #30

000008d2 <divmod>:
     8d2:	cf01      	ldmia	r7!, {r0}
     8d4:	0031      	movs	r1, r6
     8d6:	fb90 f6f6 	sdiv	r6, r0, r6
     8da:	4371      	muls	r1, r6
     8dc:	1a40      	subs	r0, r0, r1
     8de:	3f04      	subs	r7, #4
     8e0:	6038      	str	r0, [r7, #0]
     8e2:	4770      	bx	lr
     8e4:	000008c6 	andeq	r0, r0, r6, asr #17
     8e8:	2f010062 	svccs	0x00010062
     8ec:	cf01      	ldmia	r7!, {r0}
     8ee:	fb90 f6f6 	sdiv	r6, r0, r6
     8f2:	4770      	bx	lr
     8f4:	000008e4 	andeq	r0, r0, r4, ror #17
     8f8:	2a010062 	bcs	40a88 <FlashDictionaryEnde+0xa88>
     8fc:	cf01      	ldmia	r7!, {r0}
     8fe:	4346      	muls	r6, r0
     900:	4770      	bx	lr
     902:	000008f4 	strdeq	r0, [r0], -r4
     906:	32020061 	andcc	r0, r2, #97	; 0x61
     90a:	0076002a 	rsbseq	r0, r6, sl, lsr #32
     90e:	4770      	bx	lr
     910:	00000902 	andeq	r0, r0, r2, lsl #18
     914:	32020061 	andcc	r0, r2, #97	; 0x61
     918:	1076002f 	rsbsne	r0, r6, pc, lsr #32
     91c:	4770      	bx	lr
     91e:	00000910 	andeq	r0, r0, r0, lsl r9
     922:	65040061 	strvs	r0, [r4, #-97]	; 0x61
     926:	006e6576 	rsbeq	r6, lr, r6, ror r5
     92a:	f016 0101 	ands.w	r1, r6, #1
     92e:	1876      	adds	r6, r6, r1
     930:	4770      	bx	lr
     932:	0000091e 	andeq	r0, r0, lr, lsl r9
     936:	62040040 	andvs	r0, r4, #64	; 0x40
     93a:	00657361 	rsbeq	r7, r5, r1, ror #6
     93e:	f847 6d04 	str.w	r6, [r7, #-4]!
     942:	4e1a      	ldr	r6, [pc, #104]	; (9ac <divmod+0xda>)
     944:	4770      	bx	lr
     946:	00000932 	andeq	r0, r0, r2, lsr r9
     94a:	62060000 	andvs	r0, r6, #0
     94e:	72616e69 	rsbvc	r6, r1, #1680	; 0x690
     952:	48150079 	ldmdami	r5, {r0, r3, r4, r5, r6}
     956:	2102      	movs	r1, #2
     958:	6001      	str	r1, [r0, #0]
     95a:	4770      	bx	lr
     95c:	00000946 	andeq	r0, r0, r6, asr #18
     960:	64070000 	strvs	r0, [r7], #-0
     964:	6d696365 	stclvs	3, cr6, [r9, #-404]!	; 0xfffffe6c
     968:	48106c61 	ldmdami	r0, {r0, r5, r6, sl, fp, sp, lr}
     96c:	210a      	movs	r1, #10
     96e:	6001      	str	r1, [r0, #0]
     970:	4770      	bx	lr
     972:	0000095c 	andeq	r0, r0, ip, asr r9
     976:	68030000 	stmdavs	r3, {}	; <UNPREDICTABLE>
     97a:	480b7865 	stmdami	fp, {r0, r2, r5, r6, fp, ip, sp, lr}
     97e:	2110      	movs	r1, #16
     980:	6001      	str	r1, [r0, #0]
     982:	4770      	bx	lr
     984:	20000238 	andcs	r0, r0, r8, lsr r2
     988:	00004000 	andeq	r4, r0, r0
     98c:	400fd004 	andmi	sp, pc, r4
     990:	400fd000 	andmi	sp, pc, r0
     994:	400fd008 	andmi	sp, pc, r8
     998:	a4420001 	strbge	r0, [r2], #-1
     99c:	0000ffff 	strdeq	pc, [r0], -pc	; <UNPREDICTABLE>
     9a0:	a4420002 	strbge	r0, [r2], #-2
     9a4:	00004000 	andeq	r4, r0, r0
     9a8:	00040000 	andeq	r0, r4, r0
     9ac:	20000010 	andcs	r0, r0, r0, lsl r0

000009b0 <uart_init>:
     9b0:	2101      	movs	r1, #1
     9b2:	482c      	ldr	r0, [pc, #176]	; (a64 <key+0x42>)
     9b4:	6001      	str	r1, [r0, #0]
     9b6:	213f      	movs	r1, #63	; 0x3f
     9b8:	482b      	ldr	r0, [pc, #172]	; (a68 <key+0x46>)
     9ba:	6001      	str	r1, [r0, #0]
     9bc:	2103      	movs	r1, #3
     9be:	482b      	ldr	r0, [pc, #172]	; (a6c <key+0x4a>)
     9c0:	6001      	str	r1, [r0, #0]
     9c2:	482b      	ldr	r0, [pc, #172]	; (a70 <key+0x4e>)
     9c4:	6001      	str	r1, [r0, #0]
     9c6:	2100      	movs	r1, #0
     9c8:	482a      	ldr	r0, [pc, #168]	; (a74 <key+0x52>)
     9ca:	6001      	str	r1, [r0, #0]
     9cc:	2108      	movs	r1, #8
     9ce:	482a      	ldr	r0, [pc, #168]	; (a78 <key+0x56>)
     9d0:	6001      	str	r1, [r0, #0]
     9d2:	212c      	movs	r1, #44	; 0x2c
     9d4:	4829      	ldr	r0, [pc, #164]	; (a7c <key+0x5a>)
     9d6:	6001      	str	r1, [r0, #0]
     9d8:	2170      	movs	r1, #112	; 0x70
     9da:	4829      	ldr	r0, [pc, #164]	; (a80 <key+0x5e>)
     9dc:	6001      	str	r1, [r0, #0]
     9de:	2105      	movs	r1, #5
     9e0:	4828      	ldr	r0, [pc, #160]	; (a84 <key+0x62>)
     9e2:	6001      	str	r1, [r0, #0]
     9e4:	2100      	movs	r1, #0
     9e6:	4828      	ldr	r0, [pc, #160]	; (a88 <key+0x66>)
     9e8:	6001      	str	r1, [r0, #0]
     9ea:	f240 3101 	movw	r1, #769	; 0x301
     9ee:	4821      	ldr	r0, [pc, #132]	; (a74 <key+0x52>)
     9f0:	6001      	str	r1, [r0, #0]
     9f2:	4770      	bx	lr
     9f4:	00000972 	andeq	r0, r0, r2, ror r9
     9f8:	65040000 	strvs	r0, [r4, #-0]
     9fc:	0074696d 	rsbseq	r6, r4, sp, ror #18

00000a00 <emit>:
     a00:	b403      	push	{r0, r1}
     a02:	4821      	ldr	r0, [pc, #132]	; (a88 <key+0x66>)
     a04:	6801      	ldr	r1, [r0, #0]
     a06:	f011 0120 	ands.w	r1, r1, #32
     a0a:	d1fb      	bne.n	a04 <emit+0x4>
     a0c:	481f      	ldr	r0, [pc, #124]	; (a8c <key+0x6a>)
     a0e:	4631      	mov	r1, r6
     a10:	cf40      	ldmia	r7!, {r6}
     a12:	6001      	str	r1, [r0, #0]
     a14:	bc03      	pop	{r0, r1}
     a16:	4770      	bx	lr
     a18:	000009f4 	strdeq	r0, [r0], -r4
     a1c:	6b030000 	blvs	c0a24 <FlashDictionaryEnde+0x80a24>
     a20:	b4037965 	strlt	r7, [r3], #-2405	; 0x965

00000a22 <key>:
     a22:	b403      	push	{r0, r1}
     a24:	4818      	ldr	r0, [pc, #96]	; (a88 <key+0x66>)
     a26:	6801      	ldr	r1, [r0, #0]
     a28:	f011 0110 	ands.w	r1, r1, #16
     a2c:	d1fb      	bne.n	a26 <key+0x4>
     a2e:	4817      	ldr	r0, [pc, #92]	; (a8c <key+0x6a>)
     a30:	f847 6d04 	str.w	r6, [r7, #-4]!
     a34:	6806      	ldr	r6, [r0, #0]
     a36:	b2f6      	uxtb	r6, r6
     a38:	bc03      	pop	{r0, r1}
     a3a:	4770      	bx	lr
     a3c:	00000a18 	andeq	r0, r0, r8, lsl sl
     a40:	3f040000 	svccc	0x00040000
     a44:	0079656b 	rsbseq	r6, r9, fp, ror #10
     a48:	480f      	ldr	r0, [pc, #60]	; (a88 <key+0x66>)
     a4a:	6801      	ldr	r1, [r0, #0]
     a4c:	f011 0110 	ands.w	r1, r1, #16
     a50:	d104      	bne.n	a5c <key+0x3a>
     a52:	f847 6d04 	str.w	r6, [r7, #-4]!
     a56:	f05f 36ff 	movs.w	r6, #4294967295
     a5a:	4770      	bx	lr
     a5c:	f847 6d04 	str.w	r6, [r7, #-4]!
     a60:	2600      	movs	r6, #0
     a62:	4770      	bx	lr
     a64:	400fe618 	andmi	lr, pc, r8, lsl r6	; <UNPREDICTABLE>
     a68:	400fe608 	andmi	lr, pc, r8, lsl #12
     a6c:	40004420 	andmi	r4, r0, r0, lsr #8
     a70:	4000451c 	andmi	r4, r0, ip, lsl r5
     a74:	4000c030 	andmi	ip, r0, r0, lsr r0
     a78:	4000c024 	andmi	ip, r0, r4, lsr #32
     a7c:	4000c028 	andmi	ip, r0, r8, lsr #32
     a80:	4000c02c 	andmi	ip, r0, ip, lsr #32
     a84:	4000cfc8 	andmi	ip, r0, r8, asr #31
     a88:	4000c018 	andmi	ip, r0, r8, lsl r0
     a8c:	4000c000 	andmi	ip, r0, r0
     a90:	00000a3c 	andeq	r0, r0, ip, lsr sl
     a94:	71050000 	mrsvc	r0, (UNDEF: 5)
     a98:	79726575 	ldmdbvc	r2!, {r0, r2, r4, r5, r6, r8, sl, sp, lr}^

00000a9c <query>:
     a9c:	b50f      	push	{r0, r1, r2, r3, lr}
     a9e:	48e6      	ldr	r0, [pc, #920]	; (e38 <words+0xaa>)
     aa0:	2100      	movs	r1, #0
     aa2:	7001      	strb	r1, [r0, #0]
     aa4:	49e5      	ldr	r1, [pc, #916]	; (e3c <words+0xae>)
     aa6:	2200      	movs	r2, #0
     aa8:	f7ff ffbb 	bl	a22 <key>
     aac:	4630      	mov	r0, r6
     aae:	cf40      	ldmia	r7!, {r6}
     ab0:	2820      	cmp	r0, #32
     ab2:	d218      	bcs.n	ae6 <query+0x4a>
     ab4:	280a      	cmp	r0, #10
     ab6:	d023      	beq.n	b00 <query+0x64>
     ab8:	280d      	cmp	r0, #13
     aba:	d021      	beq.n	b00 <query+0x64>
     abc:	2808      	cmp	r0, #8
     abe:	d1f3      	bne.n	aa8 <query+0xc>
     ac0:	2a00      	cmp	r2, #0
     ac2:	d0f1      	beq.n	aa8 <query+0xc>
     ac4:	f000 f8a7 	bl	c16 <dotgaensefuesschen>
     ac8:	08200803 	stmdaeq	r0!, {r0, r1, fp}
     acc:	2a00      	cmp	r2, #0
     ace:	d0eb      	beq.n	aa8 <query+0xc>
     ad0:	000b      	movs	r3, r1
     ad2:	189b      	adds	r3, r3, r2
     ad4:	7818      	ldrb	r0, [r3, #0]
     ad6:	3a01      	subs	r2, #1
     ad8:	2380      	movs	r3, #128	; 0x80
     ada:	4003      	ands	r3, r0
     adc:	d0e4      	beq.n	aa8 <query+0xc>
     ade:	2340      	movs	r3, #64	; 0x40
     ae0:	4003      	ands	r3, r0
     ae2:	d0f3      	beq.n	acc <query+0x30>
     ae4:	e7e0      	b.n	aa8 <query+0xc>
     ae6:	f1b2 0fc7 	cmp.w	r2, #199	; 0xc7
     aea:	d2dd      	bcs.n	aa8 <query+0xc>
     aec:	f847 6d04 	str.w	r6, [r7, #-4]!
     af0:	0006      	movs	r6, r0
     af2:	f7ff ff85 	bl	a00 <emit>
     af6:	3201      	adds	r2, #1
     af8:	000b      	movs	r3, r1
     afa:	189b      	adds	r3, r3, r2
     afc:	7018      	strb	r0, [r3, #0]
     afe:	e7d3      	b.n	aa8 <query+0xc>
     b00:	700a      	strb	r2, [r1, #0]
     b02:	f000 f841 	bl	b88 <space>
     b06:	bd0f      	pop	{r0, r1, r2, r3, pc}
     b08:	00000a90 	muleq	r0, r0, sl
     b0c:	63070000 	movwvs	r0, #28672	; 0x7000
     b10:	61706d6f 	cmnvs	r0, pc, ror #26
     b14:	b50f6572 	strlt	r6, [pc, #-1394]	; 5aa <move_fertig+0x148>

00000b16 <compare>:
     b16:	b50f      	push	{r0, r1, r2, r3, lr}
     b18:	4630      	mov	r0, r6
     b1a:	cf40      	ldmia	r7!, {r6}
     b1c:	7831      	ldrb	r1, [r6, #0]
     b1e:	7802      	ldrb	r2, [r0, #0]
     b20:	4291      	cmp	r1, r2
     b22:	d116      	bne.n	b52 <compare+0x3c>
     b24:	e010      	b.n	b48 <compare+0x32>
     b26:	3601      	adds	r6, #1
     b28:	3001      	adds	r0, #1
     b2a:	7832      	ldrb	r2, [r6, #0]
     b2c:	7803      	ldrb	r3, [r0, #0]
     b2e:	2a41      	cmp	r2, #65	; 0x41
     b30:	d302      	bcc.n	b38 <compare+0x22>
     b32:	2a5b      	cmp	r2, #91	; 0x5b
     b34:	bf38      	it	cc
     b36:	3220      	addcc	r2, #32
     b38:	2b41      	cmp	r3, #65	; 0x41
     b3a:	d302      	bcc.n	b42 <compare+0x2c>
     b3c:	2b5b      	cmp	r3, #91	; 0x5b
     b3e:	bf38      	it	cc
     b40:	3320      	addcc	r3, #32
     b42:	429a      	cmp	r2, r3
     b44:	d105      	bne.n	b52 <compare+0x3c>
     b46:	3901      	subs	r1, #1
     b48:	2900      	cmp	r1, #0
     b4a:	d1ec      	bne.n	b26 <compare+0x10>
     b4c:	f05f 36ff 	movs.w	r6, #4294967295
     b50:	e000      	b.n	b54 <compare+0x3e>
     b52:	2600      	movs	r6, #0
     b54:	bd0f      	pop	{r0, r1, r2, r3, pc}
     b56:	00000b08 	andeq	r0, r0, r8, lsl #22
     b5a:	63020000 	movwvs	r0, #8192	; 0x2000
     b5e:	b5000072 	strlt	r0, [r0, #-114]	; 0x72
     b62:	f000 f858 	bl	c16 <dotgaensefuesschen>
     b66:	bd000a01 	vstrlt	s0, [r0, #-4]
     b6a:	00000b56 	andeq	r0, r0, r6, asr fp
     b6e:	62020000 	andvs	r0, r2, #0
     b72:	f847006c 			; <UNDEFINED> instruction: 0xf847006c
     b76:	6d04      	ldr	r4, [r0, #80]	; 0x50
     b78:	2620      	movs	r6, #32
     b7a:	4770      	bx	lr
     b7c:	00000b6a 	andeq	r0, r0, sl, ror #22
     b80:	73050000 	movwvc	r0, #20480	; 0x5000
     b84:	65636170 	strbvs	r6, [r3, #-368]!	; 0x170

00000b88 <space>:
     b88:	f847 6d04 	str.w	r6, [r7, #-4]!
     b8c:	2620      	movs	r6, #32
     b8e:	e737      	b.n	a00 <emit>
     b90:	00000b7c 	andeq	r0, r0, ip, ror fp
     b94:	5b060050 	blpl	180cdc <FlashDictionaryEnde+0x140cdc>
     b98:	72616863 	rsbvc	r6, r1, #6488064	; 0x630000
     b9c:	e005005d 	and	r0, r5, sp, asr r0
     ba0:	00000b90 	muleq	r0, r0, fp
     ba4:	63040000 	movwvs	r0, #16384	; 0x4000
     ba8:	00726168 	rsbseq	r6, r2, r8, ror #2

00000bac <holechar>:
     bac:	b500      	push	{lr}
     bae:	f001 f91c 	bl	1dea <token>
     bb2:	3601      	adds	r6, #1
     bb4:	7836      	ldrb	r6, [r6, #0]
     bb6:	bd00      	pop	{pc}
     bb8:	00000ba0 	andeq	r0, r0, r0, lsr #23
     bbc:	28010050 	stmdacs	r1, {r4, r6}
     bc0:	f847 6d04 	str.w	r6, [r7, #-4]!
     bc4:	2629      	movs	r6, #41	; 0x29
     bc6:	e006      	b.n	bd6 <holechar+0x2a>
     bc8:	00000bb8 			; <UNDEFINED> instruction: 0x00000bb8
     bcc:	5c010050 	stcpl	0, cr0, [r1], {80}	; 0x50
     bd0:	f847 6d04 	str.w	r6, [r7, #-4]!
     bd4:	2600      	movs	r6, #0
     bd6:	b500      	push	{lr}
     bd8:	f001 f912 	bl	1e00 <parse>
     bdc:	cf40      	ldmia	r7!, {r6}
     bde:	bd00      	pop	{pc}
     be0:	00000bc8 	andeq	r0, r0, r8, asr #23
     be4:	2e020010 	mcrcs	0, 0, r0, cr2, cr0, {0}
     be8:	48950022 	ldmmi	r5, {r1, r5}
     bec:	b500      	push	{lr}
     bee:	f847 6d04 	str.w	r6, [r7, #-4]!
     bf2:	0006      	movs	r6, r0
     bf4:	f000 f99f 	bl	f36 <callkomma>
     bf8:	f847 6d04 	str.w	r6, [r7, #-4]!
     bfc:	2622      	movs	r6, #34	; 0x22
     bfe:	f001 f8ff 	bl	1e00 <parse>
     c02:	f000 fcef 	bl	15e4 <stringkomma>
     c06:	bd00      	pop	{pc}
     c08:	00000be0 	andeq	r0, r0, r0, ror #23
     c0c:	73020010 	movwvc	r0, #8208	; 0x2010
     c10:	488c0022 	stmmi	ip, {r1, r5}
     c14:	e7ea      	b.n	bec <holechar+0x40>

00000c16 <dotgaensefuesschen>:
     c16:	b40e      	push	{r1, r2, r3}
     c18:	4672      	mov	r2, lr
     c1a:	3a01      	subs	r2, #1
     c1c:	f847 6d04 	str.w	r6, [r7, #-4]!
     c20:	0016      	movs	r6, r2
     c22:	7813      	ldrb	r3, [r2, #0]
     c24:	3301      	adds	r3, #1
     c26:	f013 0101 	ands.w	r1, r3, #1
     c2a:	185b      	adds	r3, r3, r1
     c2c:	eb1e 0e03 	adds.w	lr, lr, r3
     c30:	bc0e      	pop	{r1, r2, r3}
     c32:	e014      	b.n	c5e <type>

00000c34 <dotfuesschen>:
     c34:	b40e      	push	{r1, r2, r3}
     c36:	4672      	mov	r2, lr
     c38:	3a01      	subs	r2, #1
     c3a:	f847 6d04 	str.w	r6, [r7, #-4]!
     c3e:	0016      	movs	r6, r2
     c40:	7813      	ldrb	r3, [r2, #0]
     c42:	3301      	adds	r3, #1
     c44:	f013 0101 	ands.w	r1, r3, #1
     c48:	185b      	adds	r3, r3, r1
     c4a:	eb1e 0e03 	adds.w	lr, lr, r3
     c4e:	bc0e      	pop	{r1, r2, r3}
     c50:	4770      	bx	lr
     c52:	00000c08 	andeq	r0, r0, r8, lsl #24
     c56:	74040000 	strvc	r0, [r4], #-0
     c5a:	00657079 	rsbeq	r7, r5, r9, ror r0

00000c5e <type>:
     c5e:	b503      	push	{r0, r1, lr}
     c60:	4631      	mov	r1, r6
     c62:	cf40      	ldmia	r7!, {r6}
     c64:	7808      	ldrb	r0, [r1, #0]
     c66:	2800      	cmp	r0, #0
     c68:	d007      	beq.n	c7a <type+0x1c>
     c6a:	3101      	adds	r1, #1
     c6c:	f847 6d04 	str.w	r6, [r7, #-4]!
     c70:	780e      	ldrb	r6, [r1, #0]
     c72:	f7ff fec5 	bl	a00 <emit>
     c76:	3801      	subs	r0, #1
     c78:	d1f7      	bne.n	c6a <type+0xc>
     c7a:	bd03      	pop	{r0, r1, pc}
     c7c:	00000c52 	andeq	r0, r0, r2, asr ip
     c80:	68040000 	stmdavs	r4, {}	; <UNPREDICTABLE>
     c84:	002e7865 	eoreq	r7, lr, r5, ror #16

00000c88 <hexdot>:
     c88:	b503      	push	{r0, r1, lr}
     c8a:	4631      	mov	r1, r6
     c8c:	cf40      	ldmia	r7!, {r6}
     c8e:	2020      	movs	r0, #32
     c90:	3804      	subs	r0, #4
     c92:	f847 6d04 	str.w	r6, [r7, #-4]!
     c96:	fa31 f600 	lsrs.w	r6, r1, r0
     c9a:	f016 060f 	ands.w	r6, r6, #15
     c9e:	2e09      	cmp	r6, #9
     ca0:	bf8c      	ite	hi
     ca2:	3637      	addhi	r6, #55	; 0x37
     ca4:	3630      	addls	r6, #48	; 0x30
     ca6:	f7ff feab 	bl	a00 <emit>
     caa:	2800      	cmp	r0, #0
     cac:	d1f0      	bne.n	c90 <hexdot+0x8>
     cae:	f7ff ff6b 	bl	b88 <space>
     cb2:	bd03      	pop	{r0, r1, pc}
     cb4:	00000c7c 	andeq	r0, r0, ip, ror ip
     cb8:	2e020000 	cdpcs	0, 0, cr0, cr2, cr0, {0}
     cbc:	b50f0073 	strlt	r0, [pc, #-115]	; c51 <dotfuesschen+0x1d>

00000cbe <dots>:
     cbe:	b50f      	push	{r0, r1, r2, r3, lr}
     cc0:	4961      	ldr	r1, [pc, #388]	; (e48 <words+0xba>)
     cc2:	1bc9      	subs	r1, r1, r7
     cc4:	0889      	lsrs	r1, r1, #2
     cc6:	4a61      	ldr	r2, [pc, #388]	; (e4c <words+0xbe>)
     cc8:	6810      	ldr	r0, [r2, #0]
     cca:	b403      	push	{r0, r1}
     ccc:	200a      	movs	r0, #10
     cce:	6010      	str	r0, [r2, #0]
     cd0:	f7ff ffa1 	bl	c16 <dotgaensefuesschen>
     cd4:	61745308 	cmnvs	r4, r8, lsl #6
     cd8:	203a6b63 	eorscs	r6, sl, r3, ror #22
     cdc:	f847005b 			; <UNDEFINED> instruction: 0xf847005b
     ce0:	6d04      	ldr	r4, [r0, #80]	; 0x50
     ce2:	000e      	movs	r6, r1
     ce4:	f001 f997 	bl	2016 <dot>
     ce8:	f7ff ff95 	bl	c16 <dotgaensefuesschen>
     cec:	00205d02 	eoreq	r5, r0, r2, lsl #26
     cf0:	bc03      	pop	{r0, r1}
     cf2:	4a56      	ldr	r2, [pc, #344]	; (e4c <words+0xbe>)
     cf4:	6010      	str	r0, [r2, #0]
     cf6:	2900      	cmp	r1, #0
     cf8:	d00b      	beq.n	d12 <dots+0x54>
     cfa:	4a55      	ldr	r2, [pc, #340]	; (e50 <words+0xc2>)
     cfc:	6810      	ldr	r0, [r2, #0]
     cfe:	b406      	push	{r1, r2}
     d00:	f847 6d04 	str.w	r6, [r7, #-4]!
     d04:	0006      	movs	r6, r0
     d06:	f001 f986 	bl	2016 <dot>
     d0a:	bc06      	pop	{r1, r2}
     d0c:	3a04      	subs	r2, #4
     d0e:	3901      	subs	r1, #1
     d10:	d1f4      	bne.n	cfc <dots+0x3e>
     d12:	f7ff ff80 	bl	c16 <dotgaensefuesschen>
     d16:	4f542006 	svcmi	0x00542006
     d1a:	00203a53 	eoreq	r3, r0, r3, asr sl
     d1e:	f847 6d04 	str.w	r6, [r7, #-4]!
     d22:	0036      	movs	r6, r6
     d24:	f001 f977 	bl	2016 <dot>
     d28:	f7ff ff75 	bl	c16 <dotgaensefuesschen>
     d2c:	3e2a2004 	cdpcc	0, 2, cr2, cr10, cr4, {0}
     d30:	bd0f000a 	stclt	0, cr0, [pc, #-40]	; d10 <dots+0x52>
     d34:	00000cb4 			; <UNDEFINED> instruction: 0x00000cb4
     d38:	64040000 	strvs	r0, [r4], #-0
     d3c:	00706d75 	rsbseq	r6, r0, r5, ror sp
     d40:	b500      	push	{lr}
     d42:	4630      	mov	r0, r6
     d44:	cf40      	ldmia	r7!, {r6}
     d46:	2120      	movs	r1, #32
     d48:	f7ff ff65 	bl	c16 <dotgaensefuesschen>
     d4c:	75642007 	strbvc	r2, [r4, #-7]!
     d50:	0a3e706d 	beq	f9cf0c <FlashDictionaryEnde+0xf5cf0c>
     d54:	f847 6d04 	str.w	r6, [r7, #-4]!
     d58:	0006      	movs	r6, r0
     d5a:	f7ff ff95 	bl	c88 <hexdot>
     d5e:	f7ff ff5a 	bl	c16 <dotgaensefuesschen>
     d62:	00203a02 	eoreq	r3, r0, r2, lsl #20
     d66:	8802      	ldrh	r2, [r0, #0]
     d68:	f847 6d04 	str.w	r6, [r7, #-4]!
     d6c:	0016      	movs	r6, r2
     d6e:	f7ff ff8b 	bl	c88 <hexdot>
     d72:	f7ff ff50 	bl	c16 <dotgaensefuesschen>
     d76:	0a3e2003 	beq	f88d8a <FlashDictionaryEnde+0xf48d8a>
     d7a:	3002      	adds	r0, #2
     d7c:	3901      	subs	r1, #1
     d7e:	d1e9      	bne.n	d54 <dots+0x96>
     d80:	bd00      	pop	{pc}
     d82:	00000d34 	andeq	r0, r0, r4, lsr sp
     d86:	77050000 	strvc	r0, [r5, -r0]
     d8a:	7364726f 	cmnvc	r4, #-268435450	; 0xf0000006

00000d8e <words>:
     d8e:	b500      	push	{lr}
     d90:	f7ff ff41 	bl	c16 <dotgaensefuesschen>
     d94:	726f7706 	rsbvc	r7, pc, #1572864	; 0x180000
     d98:	000a7364 	andeq	r7, sl, r4, ror #6
     d9c:	f000 fd2e 	bl	17fc <dictionarystart>
     da0:	4630      	mov	r0, r6
     da2:	cf40      	ldmia	r7!, {r6}
     da4:	7981      	ldrb	r1, [r0, #6]
     da6:	29ff      	cmp	r1, #255	; 0xff
     da8:	d045      	beq.n	e36 <words+0xa8>
     daa:	f7ff ff34 	bl	c16 <dotgaensefuesschen>
     dae:	64644109 	strbtvs	r4, [r4], #-265	; 0x109
     db2:	73736572 	cmnvc	r3, #478150656	; 0x1c800000
     db6:	f847203a 			; <UNDEFINED> instruction: 0xf847203a
     dba:	6d04      	ldr	r4, [r0, #80]	; 0x50
     dbc:	0006      	movs	r6, r0
     dbe:	f7ff ff63 	bl	c88 <hexdot>
     dc2:	f7ff ff28 	bl	c16 <dotgaensefuesschen>
     dc6:	6e694c06 	cdpvs	12, 6, cr4, cr9, cr6, {0}
     dca:	00203a6b 	eoreq	r3, r0, fp, ror #20
     dce:	6802      	ldr	r2, [r0, #0]
     dd0:	3004      	adds	r0, #4
     dd2:	f847 6d04 	str.w	r6, [r7, #-4]!
     dd6:	0016      	movs	r6, r2
     dd8:	f7ff ff56 	bl	c88 <hexdot>
     ddc:	8801      	ldrh	r1, [r0, #0]
     dde:	3002      	adds	r0, #2
     de0:	f7ff ff19 	bl	c16 <dotgaensefuesschen>
     de4:	616c4607 	cmnvs	ip, r7, lsl #12
     de8:	203a7367 	eorscs	r7, sl, r7, ror #6
     dec:	f847 6d04 	str.w	r6, [r7, #-4]!
     df0:	000e      	movs	r6, r1
     df2:	f7ff ff49 	bl	c88 <hexdot>
     df6:	f847 6d04 	str.w	r6, [r7, #-4]!
     dfa:	0006      	movs	r6, r0
     dfc:	f000 fd0b 	bl	1816 <skipstring>
     e00:	f7ff ff09 	bl	c16 <dotgaensefuesschen>
     e04:	646f4306 	strbtvs	r4, [pc], #-774	; e0c <words+0x7e>
     e08:	00203a65 	eoreq	r3, r0, r5, ror #20
     e0c:	f847 6d04 	str.w	r6, [r7, #-4]!
     e10:	0006      	movs	r6, r0
     e12:	f7ff ff39 	bl	c88 <hexdot>
     e16:	f7ff fefe 	bl	c16 <dotgaensefuesschen>
     e1a:	6d614e06 	stclvs	14, cr4, [r1, #-24]!	; 0xffffffe8
     e1e:	00203a65 	eoreq	r3, r0, r5, ror #20
     e22:	f7ff ff1c 	bl	c5e <type>
     e26:	f7ff fef6 	bl	c16 <dotgaensefuesschen>
     e2a:	f1b20a01 			; <UNDEFINED> instruction: 0xf1b20a01
     e2e:	3fff      	subs	r7, #255	; 0xff
     e30:	d001      	beq.n	e36 <words+0xa8>
     e32:	0010      	movs	r0, r2
     e34:	e7b6      	b.n	da4 <words+0x16>
     e36:	bd00      	pop	{pc}
     e38:	20000000 	andcs	r0, r0, r0
     e3c:	20000070 	andcs	r0, r0, r0, ror r0
     e40:	00000c16 	andeq	r0, r0, r6, lsl ip
     e44:	00000c34 	andeq	r0, r0, r4, lsr ip
     e48:	20000238 	andcs	r0, r0, r8, lsr r2
     e4c:	20000010 	andcs	r0, r0, r0, lsl r0
     e50:	20000234 	andcs	r0, r0, r4, lsr r2

00000e54 <movwkomma>:
     e54:	f847 6d04 	str.w	r6, [r7, #-4]!
     e58:	f8df 651c 	ldr.w	r6, [pc, #1308]	; 1378 <setze_faltbarflag+0x88>
     e5c:	f8df 151c 	ldr.w	r1, [pc, #1308]	; 137c <setze_faltbarflag+0x8c>
     e60:	ea10 0201 	ands.w	r2, r0, r1
     e64:	0112      	lsls	r2, r2, #4
     e66:	4316      	orrs	r6, r2
     e68:	f8df 1514 	ldr.w	r1, [pc, #1300]	; 1380 <setze_faltbarflag+0x90>
     e6c:	ea10 0201 	ands.w	r2, r0, r1
     e70:	03d2      	lsls	r2, r2, #15
     e72:	4316      	orrs	r6, r2
     e74:	f8df 150c 	ldr.w	r1, [pc, #1292]	; 1384 <setze_faltbarflag+0x94>
     e78:	ea10 0201 	ands.w	r2, r0, r1
     e7c:	0112      	lsls	r2, r2, #4
     e7e:	4316      	orrs	r6, r2
     e80:	f8df 1504 	ldr.w	r1, [pc, #1284]	; 1388 <setze_faltbarflag+0x98>
     e84:	ea10 0201 	ands.w	r2, r0, r1
     e88:	4316      	orrs	r6, r2
     e8a:	431e      	orrs	r6, r3
     e8c:	e39a      	b.n	15c4 <reversekomma>

00000e8e <movtkomma>:
     e8e:	f847 6d04 	str.w	r6, [r7, #-4]!
     e92:	f8df 64f8 	ldr.w	r6, [pc, #1272]	; 138c <setze_faltbarflag+0x9c>
     e96:	f8df 14f8 	ldr.w	r1, [pc, #1272]	; 1390 <setze_faltbarflag+0xa0>
     e9a:	ea10 0201 	ands.w	r2, r0, r1
     e9e:	0b12      	lsrs	r2, r2, #12
     ea0:	4316      	orrs	r6, r2
     ea2:	f8df 14f0 	ldr.w	r1, [pc, #1264]	; 1394 <setze_faltbarflag+0xa4>
     ea6:	ea10 0201 	ands.w	r2, r0, r1
     eaa:	0852      	lsrs	r2, r2, #1
     eac:	4316      	orrs	r6, r2
     eae:	f8df 14e8 	ldr.w	r1, [pc, #1256]	; 1398 <setze_faltbarflag+0xa8>
     eb2:	ea10 0201 	ands.w	r2, r0, r1
     eb6:	0b12      	lsrs	r2, r2, #12
     eb8:	4316      	orrs	r6, r2
     eba:	f8df 14e0 	ldr.w	r1, [pc, #1248]	; 139c <setze_faltbarflag+0xac>
     ebe:	ea10 0201 	ands.w	r2, r0, r1
     ec2:	0c12      	lsrs	r2, r2, #16
     ec4:	4316      	orrs	r6, r2
     ec6:	431e      	orrs	r6, r3
     ec8:	e37c      	b.n	15c4 <reversekomma>
     eca:	00000d82 	andeq	r0, r0, r2, lsl #27
     ece:	6d090000 	stcvs	0, cr0, [r9, #-0]
     ed2:	6d77766f 	ldclvs	6, cr7, [r7, #-444]!	; 0xfffffe44
     ed6:	2c74766f 	ldclcs	6, cr7, [r4], #-444	; 0xfffffe44

00000eda <movwmovtkomma>:
     eda:	b50f      	push	{r0, r1, r2, r3, lr}
     edc:	4633      	mov	r3, r6
     ede:	cf40      	ldmia	r7!, {r6}
     ee0:	021b      	lsls	r3, r3, #8
     ee2:	4630      	mov	r0, r6
     ee4:	cf40      	ldmia	r7!, {r6}
     ee6:	f7ff ffb5 	bl	e54 <movwkomma>
     eea:	f8df 14b4 	ldr.w	r1, [pc, #1204]	; 13a0 <setze_faltbarflag+0xb0>
     eee:	4008      	ands	r0, r1
     ef0:	2800      	cmp	r0, #0
     ef2:	d001      	beq.n	ef8 <movwmovtkomma+0x1e>
     ef4:	f7ff ffcb 	bl	e8e <movtkomma>
     ef8:	bd0f      	pop	{r0, r1, r2, r3, pc}

00000efa <callkommalang>:
     efa:	b50f      	push	{r0, r1, r2, r3, lr}
     efc:	3601      	adds	r6, #1
     efe:	4630      	mov	r0, r6
     f00:	cf40      	ldmia	r7!, {r6}
     f02:	2300      	movs	r3, #0
     f04:	f7ff ffa6 	bl	e54 <movwkomma>
     f08:	f7ff ffc1 	bl	e8e <movtkomma>
     f0c:	e006      	b.n	f1c <callkommakurz_intern>

00000f0e <callkommakurz>:
     f0e:	b50f      	push	{r0, r1, r2, r3, lr}
     f10:	3601      	adds	r6, #1
     f12:	f847 6d04 	str.w	r6, [r7, #-4]!
     f16:	2600      	movs	r6, #0
     f18:	f7ff ffdf 	bl	eda <movwmovtkomma>

00000f1c <callkommakurz_intern>:
     f1c:	f847 6d04 	str.w	r6, [r7, #-4]!
     f20:	f45f 468f 	movs.w	r6, #18304	; 0x4780
     f24:	f000 fb26 	bl	1574 <hkomma>
     f28:	bd0f      	pop	{r0, r1, r2, r3, pc}
     f2a:	00000eca 	andeq	r0, r0, sl, asr #29
     f2e:	63050000 	movwvs	r0, #20480	; 0x5000
     f32:	2c6c6c61 	stclcs	12, cr6, [ip], #-388	; 0xfffffe7c

00000f36 <callkomma>:
     f36:	b50f      	push	{r0, r1, r2, r3, lr}
     f38:	0033      	movs	r3, r6
     f3a:	f000 fd0a 	bl	1952 <here>
     f3e:	4630      	mov	r0, r6
     f40:	cf40      	ldmia	r7!, {r6}
     f42:	1a1b      	subs	r3, r3, r0
     f44:	3b04      	subs	r3, #4
     f46:	f8df 145c 	ldr.w	r1, [pc, #1116]	; 13a4 <setze_faltbarflag+0xb4>
     f4a:	4019      	ands	r1, r3
     f4c:	2900      	cmp	r1, #0
     f4e:	d006      	beq.n	f5e <callkomma+0x28>
     f50:	f8df 2454 	ldr.w	r2, [pc, #1108]	; 13a8 <setze_faltbarflag+0xb8>
     f54:	4291      	cmp	r1, r2
     f56:	d002      	beq.n	f5e <callkomma+0x28>
     f58:	e8bd 400f 	ldmia.w	sp!, {r0, r1, r2, r3, lr}
     f5c:	e7d7      	b.n	f0e <callkommakurz>
     f5e:	cf40      	ldmia	r7!, {r6}
     f60:	085b      	lsrs	r3, r3, #1
     f62:	f8df 0448 	ldr.w	r0, [pc, #1096]	; 13ac <setze_faltbarflag+0xbc>
     f66:	f8df 1448 	ldr.w	r1, [pc, #1096]	; 13b0 <setze_faltbarflag+0xc0>
     f6a:	4019      	ands	r1, r3
     f6c:	4308      	orrs	r0, r1
     f6e:	0adb      	lsrs	r3, r3, #11
     f70:	f8df 1440 	ldr.w	r1, [pc, #1088]	; 13b4 <setze_faltbarflag+0xc4>
     f74:	4019      	ands	r1, r3
     f76:	0409      	lsls	r1, r1, #16
     f78:	4308      	orrs	r0, r1
     f7a:	0a9b      	lsrs	r3, r3, #10
     f7c:	f013 0101 	ands.w	r1, r3, #1
     f80:	0689      	lsls	r1, r1, #26
     f82:	4308      	orrs	r0, r1
     f84:	f847 6d04 	str.w	r6, [r7, #-4]!
     f88:	0006      	movs	r6, r0
     f8a:	f000 fb1b 	bl	15c4 <reversekomma>
     f8e:	bd0f      	pop	{r0, r1, r2, r3, pc}
     f90:	00000f2a 	andeq	r0, r0, sl, lsr #30
     f94:	6c080000 	stcvs	0, cr0, [r8], {-0}
     f98:	72657469 	rsbvc	r7, r5, #1761607680	; 0x69000000
     f9c:	002c6c61 	eoreq	r6, ip, r1, ror #24

00000fa0 <literalkomma>:
     fa0:	b508      	push	{r3, lr}
     fa2:	f847 6d04 	str.w	r6, [r7, #-4]!
     fa6:	f64f 0647 	movw	r6, #63559	; 0xf847
     faa:	f000 fae3 	bl	1574 <hkomma>
     fae:	f847 6d04 	str.w	r6, [r7, #-4]!
     fb2:	f646 5604 	movw	r6, #27908	; 0x6d04
     fb6:	f000 fadd 	bl	1574 <hkomma>
     fba:	2eff      	cmp	r6, #255	; 0xff
     fbc:	d804      	bhi.n	fc8 <literalkomma+0x28>
     fbe:	f456 5618 	orrs.w	r6, r6, #9728	; 0x2600
     fc2:	f000 fad7 	bl	1574 <hkomma>
     fc6:	bd08      	pop	{r3, pc}
     fc8:	f036 03ff 	bics.w	r3, r6, #255	; 0xff
     fcc:	f513 7f80 	cmn.w	r3, #256	; 0x100
     fd0:	d10d      	bne.n	fee <literalkomma+0x4e>
     fd2:	43f6      	mvns	r6, r6
     fd4:	f016 06ff 	ands.w	r6, r6, #255	; 0xff
     fd8:	f456 5618 	orrs.w	r6, r6, #9728	; 0x2600
     fdc:	f000 faca 	bl	1574 <hkomma>
     fe0:	f847 6d04 	str.w	r6, [r7, #-4]!
     fe4:	f244 36f6 	movw	r6, #17398	; 0x43f6
     fe8:	f000 fac4 	bl	1574 <hkomma>
     fec:	bd08      	pop	{r3, pc}
     fee:	f847 6d04 	str.w	r6, [r7, #-4]!
     ff2:	2606      	movs	r6, #6
     ff4:	f7ff ff71 	bl	eda <movwmovtkomma>
     ff8:	bd08      	pop	{r3, pc}
     ffa:	00000f90 	muleq	r0, r0, pc	; <UNPREDICTABLE>
     ffe:	64050020 	strvs	r0, [r5], #-32
    1002:	3e73656f 	cdpcc	5, 7, cr6, cr3, cr15, {3}

00001006 <does>:
    1006:	f241 0019 	movw	r0, #4121	; 0x1019
    100a:	4780      	blx	r0
    100c:	f847 6d04 	str.w	r6, [r7, #-4]!
    1010:	ea5f 060e 	movs.w	r6, lr
    1014:	3e01      	subs	r6, #1
    1016:	4770      	bx	lr

00001018 <dodoes>:
    1018:	f847 6d04 	str.w	r6, [r7, #-4]!
    101c:	ea5f 060e 	movs.w	r6, lr
    1020:	3e01      	subs	r6, #1
    1022:	f000 f8cc 	bl	11be <fadenende_einsprungadresse>
    1026:	4ae4      	ldr	r2, [pc, #912]	; (13b8 <setze_faltbarflag+0xc8>)
    1028:	6813      	ldr	r3, [r2, #0]
    102a:	4631      	mov	r1, r6
    102c:	cf40      	ldmia	r7!, {r6}
    102e:	3102      	adds	r1, #2
    1030:	6011      	str	r1, [r2, #0]
    1032:	f7ff ff62 	bl	efa <callkommalang>
    1036:	6013      	str	r3, [r2, #0]
    1038:	f000 f9d3 	bl	13e2 <smudge>
    103c:	bd00      	pop	{pc}
    103e:	00000ffa 	strdeq	r0, [r0], -sl
    1042:	3c070000 	stccc	0, cr0, [r7], {-0}
    1046:	6c697562 	cfstr64vs	mvdx7, [r9], #-392	; 0xfffffe78
    104a:	b5007364 	strlt	r7, [r0, #-868]	; 0x364
    104e:	f000 fb5d 	bl	170c <create>
    1052:	f847 6d04 	str.w	r6, [r7, #-4]!
    1056:	f45f 4635 	movs.w	r6, #46336	; 0xb500
    105a:	f000 fa8b 	bl	1574 <hkomma>
    105e:	f847 6d04 	str.w	r6, [r7, #-4]!
    1062:	260a      	movs	r6, #10
    1064:	f000 fadc 	bl	1620 <allot>
    1068:	bd00      	pop	{pc}
    106a:	0000103e 	andeq	r1, r0, lr, lsr r0
    106e:	5b030050 	blpl	c11b6 <FlashDictionaryEnde+0x811b6>
    1072:	e0035d27 	and	r5, r3, r7, lsr #26
    1076:	0000106a 	andeq	r1, r0, sl, rrx
    107a:	27010000 	strcs	r0, [r1, -r0]

0000107e <tick>:
    107e:	b500      	push	{lr}
    1080:	f000 feb3 	bl	1dea <token>
    1084:	4630      	mov	r0, r6
    1086:	cf40      	ldmia	r7!, {r6}
    1088:	7801      	ldrb	r1, [r0, #0]
    108a:	2900      	cmp	r1, #0
    108c:	d10c      	bne.n	10a8 <tick+0x2a>
    108e:	f7ff fdc2 	bl	c16 <dotgaensefuesschen>
    1092:	20272010 	eorcs	r2, r7, r0, lsl r0
    1096:	6465656e 	strbtvs	r6, [r5], #-1390	; 0x56e
    109a:	616e2073 	smcvs	57859	; 0xe203
    109e:	2120656d 	teqcs	r0, sp, ror #10
    10a2:	f001000a 			; <UNDEFINED> instruction: 0xf001000a
    10a6:	b88b      			; <UNDEFINED> instruction: 0xb88b
    10a8:	f847 6d04 	str.w	r6, [r7, #-4]!
    10ac:	0006      	movs	r6, r0
    10ae:	f000 fbc1 	bl	1834 <find>
    10b2:	cf40      	ldmia	r7!, {r6}
    10b4:	2e00      	cmp	r6, #0
    10b6:	d110      	bne.n	10da <nicht_gefunden+0x22>

000010b8 <nicht_gefunden>:
    10b8:	48c0      	ldr	r0, [pc, #768]	; (13bc <setze_faltbarflag+0xcc>)
    10ba:	f847 6d04 	str.w	r6, [r7, #-4]!
    10be:	0006      	movs	r6, r0
    10c0:	f7ff fdcd 	bl	c5e <type>
    10c4:	f7ff fda7 	bl	c16 <dotgaensefuesschen>
    10c8:	6f6e200c 	svcvs	0x006e200c
    10cc:	6f662074 	svcvs	0x00662074
    10d0:	2e646e75 	mcrcs	14, 3, r6, cr4, cr5, {3}
    10d4:	f001000a 			; <UNDEFINED> instruction: 0xf001000a
    10d8:	b872      			; <UNDEFINED> instruction: 0xb872
    10da:	bd00      	pop	{pc}
    10dc:	00001076 	andeq	r1, r0, r6, ror r0
    10e0:	70080010 	andvc	r0, r8, r0, lsl r0
    10e4:	7074736f 	rsbsvc	r7, r4, pc, ror #6
    10e8:	00656e6f 	rsbeq	r6, r5, pc, ror #28
    10ec:	b500      	push	{lr}
    10ee:	f000 fe7c 	bl	1dea <token>
    10f2:	f000 fb9f 	bl	1834 <find>
    10f6:	4630      	mov	r0, r6
    10f8:	cf40      	ldmia	r7!, {r6}
    10fa:	2e00      	cmp	r6, #0
    10fc:	d0dc      	beq.n	10b8 <nicht_gefunden>
    10fe:	f000 0110 	and.w	r1, r0, #16
    1102:	2910      	cmp	r1, #16
    1104:	d00e      	beq.n	1124 <nicht_gefunden+0x6c>
    1106:	f000 0120 	and.w	r1, r0, #32
    110a:	2920      	cmp	r1, #32
    110c:	d105      	bne.n	111a <nicht_gefunden+0x62>
    110e:	f7ff ff47 	bl	fa0 <literalkomma>
    1112:	f847 6d04 	str.w	r6, [r7, #-4]!
    1116:	4eaa      	ldr	r6, [pc, #680]	; (13c0 <setze_faltbarflag+0xd0>)
    1118:	e004      	b.n	1124 <nicht_gefunden+0x6c>
    111a:	f7ff ff41 	bl	fa0 <literalkomma>
    111e:	f847 6d04 	str.w	r6, [r7, #-4]!
    1122:	4ea8      	ldr	r6, [pc, #672]	; (13c4 <setze_faltbarflag+0xd4>)
    1124:	f7ff ff07 	bl	f36 <callkomma>
    1128:	bd00      	pop	{pc}
    112a:	000010dc 	ldrdeq	r1, [r0], -ip
    112e:	69070000 	stmdbvs	r7, {}	; <UNPREDICTABLE>
    1132:	6e696c6e 	cdpvs	12, 6, cr6, cr9, cr14, {3}
    1136:	b5002c65 	strlt	r2, [r0, #-3173]	; 0xc65

00001138 <inlinekomma>:
    1138:	b500      	push	{lr}
    113a:	f45f 4135 	movs.w	r1, #46336	; 0xb500
    113e:	f45f 423d 	movs.w	r2, #48384	; 0xbd00
    1142:	f244 7370 	movw	r3, #18288	; 0x4770
    1146:	8830      	ldrh	r0, [r6, #0]
    1148:	4288      	cmp	r0, r1
    114a:	d008      	beq.n	115e <inlinekomma+0x26>
    114c:	4290      	cmp	r0, r2
    114e:	d008      	beq.n	1162 <inlinekomma+0x2a>
    1150:	4298      	cmp	r0, r3
    1152:	d006      	beq.n	1162 <inlinekomma+0x2a>
    1154:	f847 6d04 	str.w	r6, [r7, #-4]!
    1158:	0006      	movs	r6, r0
    115a:	f000 fa0b 	bl	1574 <hkomma>
    115e:	3602      	adds	r6, #2
    1160:	e7f1      	b.n	1146 <inlinekomma+0xe>
    1162:	cf40      	ldmia	r7!, {r6}
    1164:	bd00      	pop	{pc}

00001166 <suchedefinitionsende>:
    1166:	b40e      	push	{r1, r2, r3}
    1168:	f45f 423d 	movs.w	r2, #48384	; 0xbd00
    116c:	f244 7370 	movw	r3, #18288	; 0x4770
    1170:	8801      	ldrh	r1, [r0, #0]
    1172:	3002      	adds	r0, #2
    1174:	4291      	cmp	r1, r2
    1176:	d001      	beq.n	117c <suchedefinitionsende+0x16>
    1178:	4299      	cmp	r1, r3
    117a:	d1f9      	bne.n	1170 <suchedefinitionsende+0xa>
    117c:	bc0e      	pop	{r1, r2, r3}
    117e:	4770      	bx	lr
    1180:	0000112a 	andeq	r1, r0, sl, lsr #2
    1184:	72040000 	andvc	r0, r4, #0
    1188:	002c7465 	eoreq	r7, ip, r5, ror #8

0000118c <retkomma>:
    118c:	f847 6d04 	str.w	r6, [r7, #-4]!
    1190:	f45f 463d 	movs.w	r6, #48384	; 0xbd00
    1194:	e1ee      	b.n	1574 <hkomma>
    1196:	00001180 	andeq	r1, r0, r0, lsl #3
    119a:	65040030 	strvs	r0, [r4, #-48]	; 0x30
    119e:	00746978 	rsbseq	r6, r4, r8, ror r9
    11a2:	e7f3      	b.n	118c <retkomma>
    11a4:	00001196 	muleq	r0, r6, r1
    11a8:	72070030 	andvc	r0, r7, #48	; 0x30
    11ac:	72756365 	rsbsvc	r6, r5, #-1811939327	; 0x94000001
    11b0:	b5006573 	strlt	r6, [r0, #-1395]	; 0x573
    11b4:	f000 f803 	bl	11be <fadenende_einsprungadresse>
    11b8:	f7ff febd 	bl	f36 <callkomma>
    11bc:	bd00      	pop	{pc}

000011be <fadenende_einsprungadresse>:
    11be:	b50f      	push	{r0, r1, r2, r3, lr}
    11c0:	4881      	ldr	r0, [pc, #516]	; (13c8 <setze_faltbarflag+0xd8>)
    11c2:	6800      	ldr	r0, [r0, #0]
    11c4:	3006      	adds	r0, #6
    11c6:	7801      	ldrb	r1, [r0, #0]
    11c8:	3101      	adds	r1, #1
    11ca:	f011 0201 	ands.w	r2, r1, #1
    11ce:	1889      	adds	r1, r1, r2
    11d0:	1840      	adds	r0, r0, r1
    11d2:	f847 6d04 	str.w	r6, [r7, #-4]!
    11d6:	0006      	movs	r6, r0
    11d8:	bd0f      	pop	{r0, r1, r2, r3, pc}
    11da:	000011a4 	andeq	r1, r0, r4, lsr #3
    11de:	73050040 	movwvc	r0, #20544	; 0x5040
    11e2:	65746174 	ldrbvs	r6, [r4, #-372]!	; 0x174
    11e6:	f847 6d04 	str.w	r6, [r7, #-4]!
    11ea:	4e78      	ldr	r6, [pc, #480]	; (13cc <setze_faltbarflag+0xdc>)
    11ec:	4770      	bx	lr
    11ee:	000011da 	ldrdeq	r1, [r0], -sl
    11f2:	5d010000 	stcpl	0, cr0, [r1, #-0]
    11f6:	4875      	ldr	r0, [pc, #468]	; (13cc <setze_faltbarflag+0xdc>)
    11f8:	f05f 31ff 	movs.w	r1, #4294967295
    11fc:	6001      	str	r1, [r0, #0]
    11fe:	4770      	bx	lr
    1200:	000011ee 	andeq	r1, r0, lr, ror #3
    1204:	5b010010 	blpl	4124c <FlashDictionaryEnde+0x124c>
    1208:	4870      	ldr	r0, [pc, #448]	; (13cc <setze_faltbarflag+0xdc>)
    120a:	2100      	movs	r1, #0
    120c:	6001      	str	r1, [r0, #0]
    120e:	4770      	bx	lr
    1210:	00001200 	andeq	r1, r0, r0, lsl #4
    1214:	3a010000 	bcc	4121c <FlashDictionaryEnde+0x121c>
    1218:	b500      	push	{lr}
    121a:	486d      	ldr	r0, [pc, #436]	; (13d0 <setze_faltbarflag+0xe0>)
    121c:	6007      	str	r7, [r0, #0]
    121e:	f000 fa75 	bl	170c <create>
    1222:	f847 6d04 	str.w	r6, [r7, #-4]!
    1226:	f45f 4635 	movs.w	r6, #46336	; 0xb500
    122a:	f000 f9a3 	bl	1574 <hkomma>
    122e:	4867      	ldr	r0, [pc, #412]	; (13cc <setze_faltbarflag+0xdc>)
    1230:	f05f 31ff 	movs.w	r1, #4294967295
    1234:	6001      	str	r1, [r0, #0]
    1236:	bd00      	pop	{pc}
    1238:	00001210 	andeq	r1, r0, r0, lsl r2
    123c:	3b010030 	blcc	41304 <FlashDictionaryEnde+0x1304>
    1240:	b500      	push	{lr}
    1242:	4863      	ldr	r0, [pc, #396]	; (13d0 <setze_faltbarflag+0xe0>)
    1244:	6801      	ldr	r1, [r0, #0]
    1246:	42b9      	cmp	r1, r7
    1248:	d00e      	beq.n	1268 <fadenende_einsprungadresse+0xaa>
    124a:	f7ff fce4 	bl	c16 <dotgaensefuesschen>
    124e:	74532015 	ldrbvc	r2, [r3], #-21
    1252:	206b6361 	rsbcs	r6, fp, r1, ror #6
    1256:	20746f6e 	rsbscs	r6, r4, lr, ror #30
    125a:	616c6162 	cmnvs	ip, r2, ror #2
    125e:	6465636e 	strbtvs	r6, [r5], #-878	; 0x36e
    1262:	f0000a2e 			; <UNDEFINED> instruction: 0xf0000a2e
    1266:	bfab      	itete	ge
    1268:	f847 6d04 	strge.w	r6, [r7, #-4]!
    126c:	f45f 463d 	movslt.w	r6, #48384	; 0xbd00
    1270:	f000 f980 	blge	1574 <hkomma>	; unpredictable branch in IT block

    1274:	f000 f8b5 	bllt	13e2 <smudge>
    1278:	4854      	ldr	r0, [pc, #336]	; (13cc <setze_faltbarflag+0xdc>)
    127a:	2100      	movs	r1, #0
    127c:	6001      	str	r1, [r0, #0]
    127e:	bd00      	pop	{pc}
    1280:	00001238 	andeq	r1, r0, r8, lsr r2
    1284:	65070000 	strvs	r0, [r7, #-0]
    1288:	75636578 	strbvc	r6, [r3, #-1400]!	; 0x578
    128c:	46306574 			; <UNDEFINED> instruction: 0x46306574

0000128e <execute>:
    128e:	4630      	mov	r0, r6
    1290:	cf40      	ldmia	r7!, {r6}
    1292:	3001      	adds	r0, #1
    1294:	4687      	mov	pc, r0
    1296:	00001280 	andeq	r1, r0, r0, lsl #5
    129a:	69090010 	stmdbvs	r9, {r4}
    129e:	64656d6d 	strbtvs	r6, [r5], #-3437	; 0xd6d
    12a2:	65746169 	ldrbvs	r6, [r4, #-361]!	; 0x169
    12a6:	f847 6d04 	str.w	r6, [r7, #-4]!
    12aa:	2610      	movs	r6, #16
    12ac:	e0c5      	b.n	143a <setflags>
    12ae:	00001296 	muleq	r0, r6, r2
    12b2:	69060010 	stmdbvs	r6, {r4}
    12b6:	6e696c6e 	cdpvs	12, 6, cr6, cr9, cr14, {3}
    12ba:	f8470065 			; <UNDEFINED> instruction: 0xf8470065
    12be:	6d04      	ldr	r4, [r0, #80]	; 0x50
    12c0:	2620      	movs	r6, #32
    12c2:	e0ba      	b.n	143a <setflags>
    12c4:	000012ae 	andeq	r1, r0, lr, lsr #5
    12c8:	630b0010 	movwvs	r0, #45072	; 0xb010
    12cc:	69706d6f 	ldmdbvs	r0!, {r0, r1, r2, r3, r5, r6, r8, sl, fp, sp, lr}^
    12d0:	6e6f656c 	cdpvs	5, 6, cr6, cr15, cr12, {3}
    12d4:	f847796c 			; <UNDEFINED> instruction: 0xf847796c
    12d8:	6d04      	ldr	r4, [r0, #80]	; 0x50
    12da:	2630      	movs	r6, #48	; 0x30
    12dc:	e0ad      	b.n	143a <setflags>
    12de:	000012c4 	andeq	r1, r0, r4, asr #5
    12e2:	300a0010 	andcc	r0, sl, r0, lsl r0
    12e6:	6c6f662d 	stclvs	6, cr6, [pc], #-180	; 1238 <fadenende_einsprungadresse+0x7a>
    12ea:	6c626164 	stfvse	f6, [r2], #-400	; 0xfffffe70
    12ee:	f8470065 			; <UNDEFINED> instruction: 0xf8470065

000012f0 <setze_faltbarflag>:
    12f0:	f847 6d04 	str.w	r6, [r7, #-4]!
    12f4:	2640      	movs	r6, #64	; 0x40
    12f6:	e0a0      	b.n	143a <setflags>
    12f8:	000012de 	ldrdeq	r1, [r0], -lr
    12fc:	310a0010 	tstcc	sl, r0, lsl r0
    1300:	6c6f662d 	stclvs	6, cr6, [pc], #-180	; 1254 <fadenende_einsprungadresse+0x96>
    1304:	6c626164 	stfvse	f6, [r2], #-400	; 0xfffffe70
    1308:	f8470065 			; <UNDEFINED> instruction: 0xf8470065
    130c:	6d04      	ldr	r4, [r0, #80]	; 0x50
    130e:	2641      	movs	r6, #65	; 0x41
    1310:	e093      	b.n	143a <setflags>
    1312:	000012f8 	strdeq	r1, [r0], -r8
    1316:	320a0010 	andcc	r0, sl, #16
    131a:	6c6f662d 	stclvs	6, cr6, [pc], #-180	; 126c <fadenende_einsprungadresse+0xae>
    131e:	6c626164 	stfvse	f6, [r2], #-400	; 0xfffffe70
    1322:	f8470065 			; <UNDEFINED> instruction: 0xf8470065
    1326:	6d04      	ldr	r4, [r0, #80]	; 0x50
    1328:	2642      	movs	r6, #66	; 0x42
    132a:	e086      	b.n	143a <setflags>
    132c:	00001312 	andeq	r1, r0, r2, lsl r3
    1330:	330a0010 	movwcc	r0, #40976	; 0xa010
    1334:	6c6f662d 	stclvs	6, cr6, [pc], #-180	; 1288 <fadenende_einsprungadresse+0xca>
    1338:	6c626164 	stfvse	f6, [r2], #-400	; 0xfffffe70
    133c:	f8470065 			; <UNDEFINED> instruction: 0xf8470065
    1340:	6d04      	ldr	r4, [r0, #80]	; 0x50
    1342:	2643      	movs	r6, #67	; 0x43
    1344:	e079      	b.n	143a <setflags>
    1346:	0000132c 	andeq	r1, r0, ip, lsr #6
    134a:	63080000 	movwvs	r0, #32768	; 0x8000
    134e:	74736e6f 	ldrbtvc	r6, [r3], #-3695	; 0xe6f
    1352:	00746e61 	rsbseq	r6, r4, r1, ror #28
    1356:	b500      	push	{lr}
    1358:	f000 f9d8 	bl	170c <create>
    135c:	f7ff fe20 	bl	fa0 <literalkomma>
    1360:	f847 6d04 	str.w	r6, [r7, #-4]!
    1364:	f244 7670 	movw	r6, #18288	; 0x4770
    1368:	f000 f904 	bl	1574 <hkomma>
    136c:	f7ff ffc0 	bl	12f0 <setze_faltbarflag>
    1370:	f000 f837 	bl	13e2 <smudge>
    1374:	bd00      	pop	{pc}
    1376:	00000000 	andeq	r0, r0, r0
    137a:	f000f240 			; <UNDEFINED> instruction: 0xf000f240
    137e:	08000000 	stmdaeq	r0, {}	; <UNPREDICTABLE>
    1382:	07000000 	streq	r0, [r0, -r0]
    1386:	00ff0000 	rscseq	r0, pc, r0
    138a:	00000000 	andeq	r0, r0, r0
    138e:	0000f2c0 	andeq	pc, r0, r0, asr #5
    1392:	0000f000 	andeq	pc, r0, r0
    1396:	00000800 	andeq	r0, r0, r0, lsl #16
    139a:	00000700 	andeq	r0, r0, r0, lsl #14
    139e:	000000ff 	strdeq	r0, [r0], -pc	; <UNPREDICTABLE>
    13a2:	0001ffff 	strdeq	pc, [r1], -pc	; <UNPREDICTABLE>
    13a6:	0000ffc0 	andeq	pc, r0, r0, asr #31
    13aa:	f800ffc0 			; <UNDEFINED> instruction: 0xf800ffc0
    13ae:	07fff000 	ldrbeq	pc, [pc, r0]!	; <UNPREDICTABLE>
    13b2:	03ff0000 	mvnseq	r0, #0
    13b6:	00040000 	andeq	r0, r4, r0
    13ba:	03382000 	teqeq	r8, #0
    13be:	11382000 	teqne	r8, r0
    13c2:	0f360000 	svceq	0x00360000
    13c6:	00080000 	andeq	r0, r8, r0
    13ca:	000c2000 	andeq	r2, ip, r0
    13ce:	001c2000 	andseq	r2, ip, r0
    13d2:	13462000 	movtne	r2, #24576	; 0x6000
    13d6:	00000000 	andeq	r0, r0, r0
    13da:	756d7306 	strbvc	r7, [sp, #-774]!	; 0x306
    13de:	00656764 	rsbeq	r6, r5, r4, ror #14

000013e2 <smudge>:
    13e2:	4844      	ldr	r0, [pc, #272]	; (14f4 <variable_ram+0x30>)
    13e4:	6801      	ldr	r1, [r0, #0]
    13e6:	4a44      	ldr	r2, [pc, #272]	; (14f8 <variable_ram+0x34>)
    13e8:	4291      	cmp	r1, r2
    13ea:	f080 801a 	bcs.w	1422 <smudge_ram>
    13ee:	b500      	push	{lr}
    13f0:	3902      	subs	r1, #2
    13f2:	880a      	ldrh	r2, [r1, #0]
    13f4:	4b41      	ldr	r3, [pc, #260]	; (14fc <variable_ram+0x38>)
    13f6:	429a      	cmp	r2, r3
    13f8:	d104      	bne.n	1404 <smudge+0x22>
    13fa:	f847 6d04 	str.w	r6, [r7, #-4]!
    13fe:	2600      	movs	r6, #0
    1400:	f000 f8b8 	bl	1574 <hkomma>
    1404:	483e      	ldr	r0, [pc, #248]	; (1500 <variable_ram+0x3c>)
    1406:	6800      	ldr	r0, [r0, #0]
    1408:	f847 6d04 	str.w	r6, [r7, #-4]!
    140c:	0006      	movs	r6, r0
    140e:	493d      	ldr	r1, [pc, #244]	; (1504 <variable_ram+0x40>)
    1410:	6809      	ldr	r1, [r1, #0]
    1412:	3104      	adds	r1, #4
    1414:	4a37      	ldr	r2, [pc, #220]	; (14f4 <variable_ram+0x30>)
    1416:	6813      	ldr	r3, [r2, #0]
    1418:	6011      	str	r1, [r2, #0]
    141a:	f000 f8ab 	bl	1574 <hkomma>
    141e:	6013      	str	r3, [r2, #0]
    1420:	bd00      	pop	{pc}

00001422 <smudge_ram>:
    1422:	f847 6d04 	str.w	r6, [r7, #-4]!
    1426:	2600      	movs	r6, #0
    1428:	e007      	b.n	143a <setflags>
    142a:	000013d4 	ldrdeq	r1, [r0], -r4
    142e:	73080000 	movwvc	r0, #32768	; 0x8000
    1432:	6c667465 	cfstrdvs	mvd7, [r6], #-404	; 0xfffffe6c
    1436:	00736761 	rsbseq	r6, r3, r1, ror #14

0000143a <setflags>:
    143a:	b500      	push	{lr}
    143c:	482d      	ldr	r0, [pc, #180]	; (14f4 <variable_ram+0x30>)
    143e:	6801      	ldr	r1, [r0, #0]
    1440:	4a2d      	ldr	r2, [pc, #180]	; (14f8 <variable_ram+0x34>)
    1442:	4291      	cmp	r1, r2
    1444:	f080 8006 	bcs.w	1454 <setflags_ram>
    1448:	482d      	ldr	r0, [pc, #180]	; (1500 <variable_ram+0x3c>)
    144a:	6801      	ldr	r1, [r0, #0]
    144c:	4331      	orrs	r1, r6
    144e:	6001      	str	r1, [r0, #0]
    1450:	cf40      	ldmia	r7!, {r6}
    1452:	bd00      	pop	{pc}

00001454 <setflags_ram>:
    1454:	4632      	mov	r2, r6
    1456:	cf40      	ldmia	r7!, {r6}
    1458:	482a      	ldr	r0, [pc, #168]	; (1504 <variable_ram+0x40>)
    145a:	6800      	ldr	r0, [r0, #0]
    145c:	3004      	adds	r0, #4
    145e:	8801      	ldrh	r1, [r0, #0]
    1460:	4b26      	ldr	r3, [pc, #152]	; (14fc <variable_ram+0x38>)
    1462:	4299      	cmp	r1, r3
    1464:	bf0c      	ite	eq
    1466:	4611      	moveq	r1, r2
    1468:	4311      	orrne	r1, r2
    146a:	8001      	strh	r1, [r0, #0]
    146c:	bd00      	pop	{pc}
    146e:	0000142a 	andeq	r1, r0, sl, lsr #8
    1472:	76080000 	strvc	r0, [r8], -r0
    1476:	61697261 	cmnvs	r9, r1, ror #4
    147a:	00656c62 	rsbeq	r6, r5, r2, ror #24
    147e:	b500      	push	{lr}
    1480:	f000 f944 	bl	170c <create>
    1484:	481b      	ldr	r0, [pc, #108]	; (14f4 <variable_ram+0x30>)
    1486:	6801      	ldr	r1, [r0, #0]
    1488:	4a1b      	ldr	r2, [pc, #108]	; (14f8 <variable_ram+0x34>)
    148a:	4291      	cmp	r1, r2
    148c:	f080 801a 	bcs.w	14c4 <variable_ram>
    1490:	481d      	ldr	r0, [pc, #116]	; (1508 <variable_ram+0x44>)
    1492:	6801      	ldr	r1, [r0, #0]
    1494:	3904      	subs	r1, #4
    1496:	6001      	str	r1, [r0, #0]
    1498:	600e      	str	r6, [r1, #0]
    149a:	f847 6d04 	str.w	r6, [r7, #-4]!
    149e:	000e      	movs	r6, r1
    14a0:	f7ff fd7e 	bl	fa0 <literalkomma>
    14a4:	f847 6d04 	str.w	r6, [r7, #-4]!
    14a8:	f244 7670 	movw	r6, #18288	; 0x4770
    14ac:	f000 f862 	bl	1574 <hkomma>
    14b0:	f000 f87a 	bl	15a8 <komma>
    14b4:	f847 6d04 	str.w	r6, [r7, #-4]!
    14b8:	2681      	movs	r6, #129	; 0x81
    14ba:	f7ff ffbe 	bl	143a <setflags>
    14be:	f7ff ff90 	bl	13e2 <smudge>
    14c2:	bd00      	pop	{pc}

000014c4 <variable_ram>:
    14c4:	f847 6d04 	str.w	r6, [r7, #-4]!
    14c8:	4e10      	ldr	r6, [pc, #64]	; (150c <variable_ram+0x48>)
    14ca:	f000 f87b 	bl	15c4 <reversekomma>
    14ce:	f847 6d04 	str.w	r6, [r7, #-4]!
    14d2:	4e0f      	ldr	r6, [pc, #60]	; (1510 <variable_ram+0x4c>)
    14d4:	f000 f876 	bl	15c4 <reversekomma>
    14d8:	f847 6d04 	str.w	r6, [r7, #-4]!
    14dc:	f244 7670 	movw	r6, #18288	; 0x4770
    14e0:	f000 f848 	bl	1574 <hkomma>
    14e4:	f000 f860 	bl	15a8 <komma>
    14e8:	f7ff ff02 	bl	12f0 <setze_faltbarflag>
    14ec:	f7ff ff79 	bl	13e2 <smudge>
    14f0:	bd00      	pop	{pc}
    14f2:	00040000 	andeq	r0, r4, r0
    14f6:	00002000 	andeq	r2, r0, r0
    14fa:	ffff2000 			; <UNDEFINED> instruction: 0xffff2000
    14fe:	00280000 	eoreq	r0, r8, r0
    1502:	00082000 	andeq	r2, r8, r0
    1506:	002c2000 	eoreq	r2, ip, r0
    150a:	603e2000 	eorsvs	r2, lr, r0
    150e:	36023f04 	strcc	r3, [r2], -r4, lsl #30
    1512:	146e467e 	strbtne	r4, [lr], #-1662	; 0x67e
    1516:	00000000 	andeq	r0, r0, r0
    151a:	696c6106 	stmdbvs	ip!, {r1, r2, r8, sp, lr}^
    151e:	002c6e67 	eoreq	r6, ip, r7, ror #28

00001522 <alignkomma>:
    1522:	48da      	ldr	r0, [pc, #872]	; (188c <find+0x58>)
    1524:	6801      	ldr	r1, [r0, #0]
    1526:	f011 0101 	ands.w	r1, r1, #1
    152a:	d003      	beq.n	1534 <alignkomma+0x12>
    152c:	f847 6d04 	str.w	r6, [r7, #-4]!
    1530:	2600      	movs	r6, #0
    1532:	e005      	b.n	1540 <ckomma>
    1534:	4770      	bx	lr
    1536:	00001514 	andeq	r1, r0, r4, lsl r5
    153a:	63020000 	movwvs	r0, #8192	; 0x2000
    153e:	b500002c 	strlt	r0, [r0, #-44]	; 0x2c

00001540 <ckomma>:
    1540:	b500      	push	{lr}
    1542:	48d2      	ldr	r0, [pc, #840]	; (188c <find+0x58>)
    1544:	6801      	ldr	r1, [r0, #0]
    1546:	4ad2      	ldr	r2, [pc, #840]	; (1890 <find+0x5c>)
    1548:	4291      	cmp	r1, r2
    154a:	d205      	bcs.n	1558 <ckomma_ram>
    154c:	f847 6d04 	str.w	r6, [r7, #-4]!
    1550:	000e      	movs	r6, r1
    1552:	f7ff f8d4 	bl	6fe <c_flashkomma>
    1556:	e002      	b.n	155e <ckomma_fertig>

00001558 <ckomma_ram>:
    1558:	4632      	mov	r2, r6
    155a:	cf40      	ldmia	r7!, {r6}
    155c:	700a      	strb	r2, [r1, #0]

0000155e <ckomma_fertig>:
    155e:	f847 6d04 	str.w	r6, [r7, #-4]!
    1562:	2601      	movs	r6, #1
    1564:	f000 f85c 	bl	1620 <allot>
    1568:	bd00      	pop	{pc}
    156a:	00001536 	andeq	r1, r0, r6, lsr r5
    156e:	68020000 	stmdavs	r2, {}	; <UNPREDICTABLE>
    1572:	b50f002c 	strlt	r0, [pc, #-44]	; 154e <ckomma+0xe>

00001574 <hkomma>:
    1574:	b50f      	push	{r0, r1, r2, r3, lr}
    1576:	48c5      	ldr	r0, [pc, #788]	; (188c <find+0x58>)
    1578:	6801      	ldr	r1, [r0, #0]
    157a:	4ac5      	ldr	r2, [pc, #788]	; (1890 <find+0x5c>)
    157c:	4291      	cmp	r1, r2
    157e:	f080 8006 	bcs.w	158e <hkomma_ram>
    1582:	f847 6d04 	str.w	r6, [r7, #-4]!
    1586:	000e      	movs	r6, r1
    1588:	f7ff f895 	bl	6b6 <h_flashkomma>
    158c:	e002      	b.n	1594 <hkomma_fertig>

0000158e <hkomma_ram>:
    158e:	4632      	mov	r2, r6
    1590:	cf40      	ldmia	r7!, {r6}
    1592:	800a      	strh	r2, [r1, #0]

00001594 <hkomma_fertig>:
    1594:	f847 6d04 	str.w	r6, [r7, #-4]!
    1598:	2602      	movs	r6, #2
    159a:	f000 f841 	bl	1620 <allot>
    159e:	bd0f      	pop	{r0, r1, r2, r3, pc}
    15a0:	0000156a 	andeq	r1, r0, sl, ror #10
    15a4:	2c010000 	stccs	0, cr0, [r1], {-0}

000015a8 <komma>:
    15a8:	b500      	push	{lr}
    15aa:	f847 6d04 	str.w	r6, [r7, #-4]!
    15ae:	f7ff ffe1 	bl	1574 <hkomma>
    15b2:	0c36      	lsrs	r6, r6, #16
    15b4:	f7ff ffde 	bl	1574 <hkomma>
    15b8:	bd00      	pop	{pc}
    15ba:	000015a0 	andeq	r1, r0, r0, lsr #11
    15be:	3e030000 	cdpcc	0, 0, cr0, cr3, cr0, {0}
    15c2:	b5002c3c 	strlt	r2, [r0, #-3132]	; 0xc3c

000015c4 <reversekomma>:
    15c4:	b500      	push	{lr}
    15c6:	f847 6d04 	str.w	r6, [r7, #-4]!
    15ca:	0c36      	lsrs	r6, r6, #16
    15cc:	f7ff ffd2 	bl	1574 <hkomma>
    15d0:	f7ff ffd0 	bl	1574 <hkomma>
    15d4:	bd00      	pop	{pc}
    15d6:	000015ba 			; <UNDEFINED> instruction: 0x000015ba
    15da:	73070000 	movwvc	r0, #28672	; 0x7000
    15de:	6e697274 	mcrvs	2, 3, r7, cr9, cr4, {3}
    15e2:	b5072c67 	strlt	r2, [r7, #-3175]	; 0xc67

000015e4 <stringkomma>:
    15e4:	b507      	push	{r0, r1, r2, lr}
    15e6:	4630      	mov	r0, r6
    15e8:	cf40      	ldmia	r7!, {r6}
    15ea:	7801      	ldrb	r1, [r0, #0]
    15ec:	3101      	adds	r1, #1
    15ee:	2902      	cmp	r1, #2
    15f0:	d309      	bcc.n	1606 <stringkomma+0x22>
    15f2:	8802      	ldrh	r2, [r0, #0]
    15f4:	f847 6d04 	str.w	r6, [r7, #-4]!
    15f8:	0016      	movs	r6, r2
    15fa:	f7ff ffbb 	bl	1574 <hkomma>
    15fe:	3002      	adds	r0, #2
    1600:	3902      	subs	r1, #2
    1602:	d006      	beq.n	1612 <stringkomma+0x2e>
    1604:	e7f3      	b.n	15ee <stringkomma+0xa>
    1606:	7802      	ldrb	r2, [r0, #0]
    1608:	f847 6d04 	str.w	r6, [r7, #-4]!
    160c:	0016      	movs	r6, r2
    160e:	f7ff ffb1 	bl	1574 <hkomma>
    1612:	bd07      	pop	{r0, r1, r2, pc}
    1614:	000015d6 	ldrdeq	r1, [r0], -r6
    1618:	61050000 	mrsvs	r0, (UNDEF: 5)
    161c:	746f6c6c 	strbtvc	r6, [pc], #-3180	; 1624 <allot+0x4>

00001620 <allot>:
    1620:	489a      	ldr	r0, [pc, #616]	; (188c <find+0x58>)
    1622:	6801      	ldr	r1, [r0, #0]
    1624:	4a9a      	ldr	r2, [pc, #616]	; (1890 <find+0x5c>)
    1626:	4291      	cmp	r1, r2
    1628:	d20f      	bcs.n	164a <allot_ram>
    162a:	4632      	mov	r2, r6
    162c:	cf40      	ldmia	r7!, {r6}
    162e:	1889      	adds	r1, r1, r2
    1630:	4a98      	ldr	r2, [pc, #608]	; (1894 <find+0x60>)
    1632:	4291      	cmp	r1, r2
    1634:	d319      	bcc.n	166a <allot_ok>
    1636:	f7ff faee 	bl	c16 <dotgaensefuesschen>
    163a:	616c460b 	cmnvs	ip, fp, lsl #12
    163e:	66206873 			; <UNDEFINED> instruction: 0x66206873
    1642:	0a6c6c75 	beq	1b1c81e <FlashDictionaryEnde+0x1adc81e>
    1646:	f000 bdba 	b.w	21be <quit>

0000164a <allot_ram>:
    164a:	4632      	mov	r2, r6
    164c:	cf40      	ldmia	r7!, {r6}
    164e:	1889      	adds	r1, r1, r2
    1650:	4a91      	ldr	r2, [pc, #580]	; (1898 <find+0x64>)
    1652:	6812      	ldr	r2, [r2, #0]
    1654:	4291      	cmp	r1, r2
    1656:	d308      	bcc.n	166a <allot_ok>
    1658:	f7ff fadd 	bl	c16 <dotgaensefuesschen>
    165c:	6d615209 	sfmvs	f5, 2, [r1, #-36]!	; 0xffffffdc
    1660:	6c756620 	ldclvs	6, cr6, [r5], #-128	; 0xffffff80
    1664:	f0000a6c 			; <UNDEFINED> instruction: 0xf0000a6c
    1668:	bdaa      	pop	{r1, r3, r5, r7, pc}

0000166a <allot_ok>:
    166a:	6001      	str	r1, [r0, #0]
    166c:	4770      	bx	lr
    166e:	00001614 	andeq	r1, r0, r4, lsl r6
    1672:	630c0000 	movwvs	r0, #49152	; 0xc000
    1676:	69706d6f 	ldmdbvs	r0!, {r0, r1, r2, r3, r5, r6, r8, sl, fp, sp, lr}^
    167a:	6f74656c 	svcvs	0x0074656c
    167e:	006d6172 	rsbeq	r6, sp, r2, ror r1
    1682:	4882      	ldr	r0, [pc, #520]	; (188c <find+0x58>)
    1684:	6800      	ldr	r0, [r0, #0]
    1686:	4982      	ldr	r1, [pc, #520]	; (1890 <find+0x5c>)
    1688:	4288      	cmp	r0, r1
    168a:	d311      	bcc.n	16b0 <Zweitpointertausch>
    168c:	4770      	bx	lr
    168e:	0000166e 	andeq	r1, r0, lr, ror #12
    1692:	630e0000 	movwvs	r0, #57344	; 0xe000
    1696:	69706d6f 	ldmdbvs	r0!, {r0, r1, r2, r3, r5, r6, r8, sl, fp, sp, lr}^
    169a:	6f74656c 	svcvs	0x0074656c
    169e:	73616c66 	cmnvc	r1, #26112	; 0x6600
    16a2:	48790068 	ldmdami	r9!, {r3, r5, r6}^
    16a6:	6800      	ldr	r0, [r0, #0]
    16a8:	4979      	ldr	r1, [pc, #484]	; (1890 <find+0x5c>)
    16aa:	4288      	cmp	r0, r1
    16ac:	d200      	bcs.n	16b0 <Zweitpointertausch>
    16ae:	4770      	bx	lr

000016b0 <Zweitpointertausch>:
    16b0:	487a      	ldr	r0, [pc, #488]	; (189c <find+0x68>)
    16b2:	497b      	ldr	r1, [pc, #492]	; (18a0 <find+0x6c>)
    16b4:	6802      	ldr	r2, [r0, #0]
    16b6:	680b      	ldr	r3, [r1, #0]
    16b8:	600a      	str	r2, [r1, #0]
    16ba:	6003      	str	r3, [r0, #0]
    16bc:	4873      	ldr	r0, [pc, #460]	; (188c <find+0x58>)
    16be:	4979      	ldr	r1, [pc, #484]	; (18a4 <find+0x70>)
    16c0:	6802      	ldr	r2, [r0, #0]
    16c2:	680b      	ldr	r3, [r1, #0]
    16c4:	600a      	str	r2, [r1, #0]
    16c6:	6003      	str	r3, [r0, #0]
    16c8:	4873      	ldr	r0, [pc, #460]	; (1898 <find+0x64>)
    16ca:	6800      	ldr	r0, [r0, #0]
    16cc:	4283      	cmp	r3, r0
    16ce:	d315      	bcc.n	16fc <Zweitpointertausch+0x4c>
    16d0:	b500      	push	{lr}
    16d2:	f7ff faa0 	bl	c16 <dotgaensefuesschen>
    16d6:	61562023 	cmpvs	r6, r3, lsr #32
    16da:	62616972 	rsbvs	r6, r1, #1867776	; 0x1c8000
    16de:	2073656c 	rsbscs	r6, r3, ip, ror #10
    16e2:	6c6c6f63 	stclvs	15, cr6, [ip], #-396	; 0xfffffe74
    16e6:	20656469 	rsbcs	r6, r5, r9, ror #8
    16ea:	68746977 	ldmdavs	r4!, {r0, r1, r2, r4, r5, r6, r8, fp, sp, lr}^
    16ee:	63696420 	cmnvs	r9, #536870912	; 0x20000000
    16f2:	6e6f6974 	mcrvs	9, 3, r6, cr15, cr4, {3}
    16f6:	0a797261 	beq	1e5e082 <FlashDictionaryEnde+0x1e1e082>
    16fa:	bd00      	pop	{pc}
    16fc:	4770      	bx	lr
    16fe:	0000168e 	andeq	r1, r0, lr, lsl #13
    1702:	63060000 	movwvs	r0, #24576	; 0x6000
    1706:	74616572 	strbtvc	r6, [r1], #-1394	; 0x572
    170a:	b5000065 	strlt	r0, [r0, #-101]	; 0x65

0000170c <create>:
    170c:	b500      	push	{lr}
    170e:	f000 fb6c 	bl	1dea <token>
    1712:	4630      	mov	r0, r6
    1714:	cf40      	ldmia	r7!, {r6}
    1716:	7801      	ldrb	r1, [r0, #0]
    1718:	2900      	cmp	r1, #0
    171a:	d10e      	bne.n	173a <create+0x2e>
    171c:	f7ff fa7b 	bl	c16 <dotgaensefuesschen>
    1720:	72432015 	subvc	r2, r3, #21
    1724:	65746165 	ldrbvs	r6, [r4, #-357]!	; 0x165
    1728:	65656e20 	strbvs	r6, [r5, #-3616]!	; 0xe20
    172c:	6e207364 	cdpvs	3, 2, cr7, cr0, cr4, {3}
    1730:	20656d61 	rsbcs	r6, r5, r1, ror #26
    1734:	f0000a21 			; <UNDEFINED> instruction: 0xf0000a21
    1738:	bd42      	pop	{r1, r6, pc}
    173a:	f847 6d04 	str.w	r6, [r7, #-4]!
    173e:	0006      	movs	r6, r0
    1740:	f847 6d04 	str.w	r6, [r7, #-4]!
    1744:	f000 f876 	bl	1834 <find>
    1748:	cf40      	ldmia	r7!, {r6}
    174a:	4630      	mov	r0, r6
    174c:	cf40      	ldmia	r7!, {r6}
    174e:	2800      	cmp	r0, #0
    1750:	d00e      	beq.n	1770 <create+0x64>
    1752:	f7ff fa60 	bl	c16 <dotgaensefuesschen>
    1756:	64655209 	strbtvs	r5, [r5], #-521	; 0x209
    175a:	6e696665 	cdpvs	6, 6, cr6, cr9, cr5, {3}
    175e:	f8472065 			; <UNDEFINED> instruction: 0xf8472065
    1762:	6d04      	ldr	r4, [r0, #80]	; 0x50
    1764:	f7ff fa7b 	bl	c5e <type>
    1768:	f7ff fa55 	bl	c16 <dotgaensefuesschen>
    176c:	000a2e02 	andeq	r2, sl, r2, lsl #28
    1770:	f7ff fed7 	bl	1522 <alignkomma>
    1774:	f000 f8ed 	bl	1952 <here>
    1778:	4844      	ldr	r0, [pc, #272]	; (188c <find+0x58>)
    177a:	6800      	ldr	r0, [r0, #0]
    177c:	4944      	ldr	r1, [pc, #272]	; (1890 <find+0x5c>)
    177e:	4288      	cmp	r0, r1
    1780:	f080 801e 	bcs.w	17c0 <create_ram>
    1784:	4848      	ldr	r0, [pc, #288]	; (18a8 <find+0x74>)
    1786:	2100      	movs	r1, #0
    1788:	6001      	str	r1, [r0, #0]
    178a:	f847 6d04 	str.w	r6, [r7, #-4]!
    178e:	2606      	movs	r6, #6
    1790:	f7ff ff46 	bl	1620 <allot>
    1794:	6839      	ldr	r1, [r7, #0]
    1796:	603e      	str	r6, [r7, #0]
    1798:	460e      	mov	r6, r1
    179a:	f7ff ff23 	bl	15e4 <stringkomma>
    179e:	483f      	ldr	r0, [pc, #252]	; (189c <find+0x68>)
    17a0:	6801      	ldr	r1, [r0, #0]
    17a2:	680a      	ldr	r2, [r1, #0]
    17a4:	f1b2 3fff 	cmp.w	r2, #4294967295
    17a8:	d107      	bne.n	17ba <create+0xae>
    17aa:	4a38      	ldr	r2, [pc, #224]	; (188c <find+0x58>)
    17ac:	6813      	ldr	r3, [r2, #0]
    17ae:	6011      	str	r1, [r2, #0]
    17b0:	f847 6d04 	str.w	r6, [r7, #-4]!
    17b4:	f7ff fef8 	bl	15a8 <komma>
    17b8:	6013      	str	r3, [r2, #0]
    17ba:	6006      	str	r6, [r0, #0]
    17bc:	cf40      	ldmia	r7!, {r6}
    17be:	bd00      	pop	{pc}

000017c0 <create_ram>:
    17c0:	4836      	ldr	r0, [pc, #216]	; (189c <find+0x68>)
    17c2:	f847 6d04 	str.w	r6, [r7, #-4]!
    17c6:	6806      	ldr	r6, [r0, #0]
    17c8:	f7ff feee 	bl	15a8 <komma>
    17cc:	f847 6d04 	str.w	r6, [r7, #-4]!
    17d0:	f05f 36ff 	movs.w	r6, #4294967295
    17d4:	f7ff fece 	bl	1574 <hkomma>
    17d8:	4830      	ldr	r0, [pc, #192]	; (189c <find+0x68>)
    17da:	4631      	mov	r1, r6
    17dc:	cf40      	ldmia	r7!, {r6}
    17de:	6001      	str	r1, [r0, #0]
    17e0:	f7ff ff00 	bl	15e4 <stringkomma>
    17e4:	bd00      	pop	{pc}
    17e6:	000016fe 	strdeq	r1, [r0], -lr
    17ea:	440f0000 	strmi	r0, [pc], #-0	; 17f2 <create_ram+0x32>
    17ee:	69746369 	ldmdbvs	r4!, {r0, r3, r5, r6, r8, r9, sp, lr}^
    17f2:	72616e6f 	rsbvc	r6, r1, #1776	; 0x6f0
    17f6:	61747379 	cmnvs	r4, r9, ror r3
    17fa:	48237472 	stmdami	r3!, {r1, r4, r5, r6, sl, ip, sp, lr}

000017fc <dictionarystart>:
    17fc:	4823      	ldr	r0, [pc, #140]	; (188c <find+0x58>)
    17fe:	6800      	ldr	r0, [r0, #0]
    1800:	4b26      	ldr	r3, [pc, #152]	; (189c <find+0x68>)
    1802:	681b      	ldr	r3, [r3, #0]
    1804:	4922      	ldr	r1, [pc, #136]	; (1890 <find+0x5c>)
    1806:	f847 6d04 	str.w	r6, [r7, #-4]!
    180a:	4288      	cmp	r0, r1
    180c:	d201      	bcs.n	1812 <dictionarystart+0x16>
    180e:	4e27      	ldr	r6, [pc, #156]	; (18ac <find+0x78>)
    1810:	4770      	bx	lr
    1812:	001e      	movs	r6, r3
    1814:	4770      	bx	lr

00001816 <skipstring>:
    1816:	b406      	push	{r1, r2}
    1818:	7801      	ldrb	r1, [r0, #0]
    181a:	3101      	adds	r1, #1
    181c:	f011 0201 	ands.w	r2, r1, #1
    1820:	1889      	adds	r1, r1, r2
    1822:	1840      	adds	r0, r0, r1
    1824:	bc06      	pop	{r1, r2}
    1826:	4770      	bx	lr
    1828:	000017e6 	andeq	r1, r0, r6, ror #15
    182c:	66040000 	strvs	r0, [r4], -r0
    1830:	00646e69 	rsbeq	r6, r4, r9, ror #28

00001834 <find>:
    1834:	b51f      	push	{r0, r1, r2, r3, r4, lr}
    1836:	0034      	movs	r4, r6
    1838:	f7ff ffe0 	bl	17fc <dictionarystart>
    183c:	4630      	mov	r0, r6
    183e:	cf40      	ldmia	r7!, {r6}
    1840:	2600      	movs	r6, #0
    1842:	2300      	movs	r3, #0
    1844:	7981      	ldrb	r1, [r0, #6]
    1846:	29ff      	cmp	r1, #255	; 0xff
    1848:	d01c      	beq.n	1884 <find+0x50>
    184a:	8881      	ldrh	r1, [r0, #4]
    184c:	4a18      	ldr	r2, [pc, #96]	; (18b0 <find+0x7c>)
    184e:	4291      	cmp	r1, r2
    1850:	6802      	ldr	r2, [r0, #0]
    1852:	d012      	beq.n	187a <find+0x46>
    1854:	3006      	adds	r0, #6
    1856:	f847 6d04 	str.w	r6, [r7, #-4]!
    185a:	0006      	movs	r6, r0
    185c:	f847 6d04 	str.w	r6, [r7, #-4]!
    1860:	0026      	movs	r6, r4
    1862:	f7ff f958 	bl	b16 <compare>
    1866:	2e00      	cmp	r6, #0
    1868:	cf40      	ldmia	r7!, {r6}
    186a:	d006      	beq.n	187a <find+0x46>
    186c:	f7ff ffd3 	bl	1816 <skipstring>
    1870:	0006      	movs	r6, r0
    1872:	000b      	movs	r3, r1
    1874:	4806      	ldr	r0, [pc, #24]	; (1890 <find+0x5c>)
    1876:	4286      	cmp	r6, r0
    1878:	d204      	bcs.n	1884 <find+0x50>
    187a:	f1b2 3fff 	cmp.w	r2, #4294967295
    187e:	d001      	beq.n	1884 <find+0x50>
    1880:	0010      	movs	r0, r2
    1882:	e7df      	b.n	1844 <find+0x10>
    1884:	f847 6d04 	str.w	r6, [r7, #-4]!
    1888:	001e      	movs	r6, r3
    188a:	bd1f      	pop	{r0, r1, r2, r3, r4, pc}
    188c:	20000004 	andcs	r0, r0, r4
    1890:	20000000 	andcs	r0, r0, r0
    1894:	00040000 	andeq	r0, r4, r0
    1898:	2000002c 	andcs	r0, r0, ip, lsr #32
    189c:	20000008 	andcs	r0, r0, r8
    18a0:	20000024 	andcs	r0, r0, r4, lsr #32
    18a4:	20000020 	andcs	r0, r0, r0, lsr #32
    18a8:	20000028 	andcs	r0, r0, r8, lsr #32
    18ac:	00002472 	andeq	r2, r0, r2, ror r4
    18b0:	0000ffff 	strdeq	pc, [r0], -pc	; <UNPREDICTABLE>
    18b4:	00001828 	andeq	r1, r0, r8, lsr #16
    18b8:	63060000 	movwvs	r0, #24576	; 0x6000
    18bc:	706d756a 	rsbvc	r7, sp, sl, ror #10
    18c0:	4632002c 	ldrtmi	r0, [r2], -ip, lsr #32

000018c2 <cjumpgenerator>:
    18c2:	4632      	mov	r2, r6
    18c4:	cf40      	ldmia	r7!, {r6}
    18c6:	4631      	mov	r1, r6
    18c8:	cf40      	ldmia	r7!, {r6}
    18ca:	1b8b      	subs	r3, r1, r6
    18cc:	3b04      	subs	r3, #4
    18ce:	499e      	ldr	r1, [pc, #632]	; (1b48 <struktur_if+0x96>)
    18d0:	4019      	ands	r1, r3
    18d2:	2900      	cmp	r1, #0
    18d4:	d00d      	beq.n	18f2 <jump_too_far+0x16>
    18d6:	489d      	ldr	r0, [pc, #628]	; (1b4c <struktur_if+0x9a>)
    18d8:	4281      	cmp	r1, r0
    18da:	d00a      	beq.n	18f2 <jump_too_far+0x16>

000018dc <jump_too_far>:
    18dc:	f7ff f99b 	bl	c16 <dotgaensefuesschen>
    18e0:	6d754a0d 	vldmdbvs	r5!, {s9-s21}
    18e4:	6f742070 	svcvs	0x00742070
    18e8:	6166206f 	cmnvs	r6, pc, rrx
    18ec:	f0000a72 			; <UNDEFINED> instruction: 0xf0000a72
    18f0:	bc66      	pop	{r1, r2, r5, r6}
    18f2:	105b      	asrs	r3, r3, #1
    18f4:	21ff      	movs	r1, #255	; 0xff
    18f6:	400b      	ands	r3, r1
    18f8:	4313      	orrs	r3, r2
    18fa:	0030      	movs	r0, r6
    18fc:	001e      	movs	r6, r3

000018fe <sprungbefehl_einfuegen>:
    18fe:	b500      	push	{lr}
    1900:	4a93      	ldr	r2, [pc, #588]	; (1b50 <struktur_if+0x9e>)
    1902:	6813      	ldr	r3, [r2, #0]
    1904:	6010      	str	r0, [r2, #0]
    1906:	f7ff fe35 	bl	1574 <hkomma>
    190a:	6013      	str	r3, [r2, #0]
    190c:	bd00      	pop	{pc}
    190e:	000018b4 			; <UNDEFINED> instruction: 0x000018b4
    1912:	6a050000 	bvs	14191a <FlashDictionaryEnde+0x10191a>
    1916:	2c706d75 	ldclcs	13, cr6, [r0], #-468	; 0xfffffe2c

0000191a <jumpgenerator>:
    191a:	4631      	mov	r1, r6
    191c:	cf40      	ldmia	r7!, {r6}
    191e:	4630      	mov	r0, r6
    1920:	cf40      	ldmia	r7!, {r6}
    1922:	1a0b      	subs	r3, r1, r0
    1924:	3b04      	subs	r3, #4
    1926:	498b      	ldr	r1, [pc, #556]	; (1b54 <struktur_if+0xa2>)
    1928:	4019      	ands	r1, r3
    192a:	2900      	cmp	r1, #0
    192c:	d002      	beq.n	1934 <jumpgenerator+0x1a>
    192e:	4a8a      	ldr	r2, [pc, #552]	; (1b58 <struktur_if+0xa6>)
    1930:	4291      	cmp	r1, r2
    1932:	d1d3      	bne.n	18dc <jump_too_far>
    1934:	105b      	asrs	r3, r3, #1
    1936:	4a89      	ldr	r2, [pc, #548]	; (1b5c <struktur_if+0xaa>)
    1938:	4013      	ands	r3, r2
    193a:	f453 4360 	orrs.w	r3, r3, #57344	; 0xe000
    193e:	f847 6d04 	str.w	r6, [r7, #-4]!
    1942:	001e      	movs	r6, r3
    1944:	e7db      	b.n	18fe <sprungbefehl_einfuegen>
    1946:	0000190e 	andeq	r1, r0, lr, lsl #18
    194a:	68040000 	stmdavs	r4, {}	; <UNPREDICTABLE>
    194e:	00657265 	rsbeq	r7, r5, r5, ror #4

00001952 <here>:
    1952:	f847 6d04 	str.w	r6, [r7, #-4]!
    1956:	4e7e      	ldr	r6, [pc, #504]	; (1b50 <struktur_if+0x9e>)
    1958:	6836      	ldr	r6, [r6, #0]
    195a:	4770      	bx	lr

0000195c <nullprobekomma>:
    195c:	b500      	push	{lr}
    195e:	f847 6d04 	str.w	r6, [r7, #-4]!
    1962:	f45f 5638 	movs.w	r6, #11776	; 0x2e00
    1966:	f7ff fe05 	bl	1574 <hkomma>
    196a:	f847 6d04 	str.w	r6, [r7, #-4]!
    196e:	f64c 7640 	movw	r6, #53056	; 0xcf40
    1972:	f7ff fdff 	bl	1574 <hkomma>
    1976:	bd00      	pop	{pc}

00001978 <branch_r>:
    1978:	f7ff bfeb 	b.w	1952 <here>

0000197c <r_branch_jne>:
    197c:	b500      	push	{lr}
    197e:	f000 f83a 	bl	19f6 <branch_v>
    1982:	6839      	ldr	r1, [r7, #0]
    1984:	603e      	str	r6, [r7, #0]
    1986:	460e      	mov	r6, r1
    1988:	f847 6d04 	str.w	r6, [r7, #-4]!
    198c:	f45f 4651 	movs.w	r6, #53504	; 0xd100
    1990:	f7ff ff97 	bl	18c2 <cjumpgenerator>
    1994:	bd00      	pop	{pc}

00001996 <r_branch_jvc>:
    1996:	b500      	push	{lr}
    1998:	f000 f82d 	bl	19f6 <branch_v>
    199c:	6839      	ldr	r1, [r7, #0]
    199e:	603e      	str	r6, [r7, #0]
    19a0:	460e      	mov	r6, r1
    19a2:	f847 6d04 	str.w	r6, [r7, #-4]!
    19a6:	f45f 4657 	movs.w	r6, #55040	; 0xd700
    19aa:	f7ff ff8a 	bl	18c2 <cjumpgenerator>
    19ae:	bd00      	pop	{pc}

000019b0 <r_nullbranch>:
    19b0:	b500      	push	{lr}
    19b2:	f7ff ffd3 	bl	195c <nullprobekomma>
    19b6:	f000 f81e 	bl	19f6 <branch_v>
    19ba:	6839      	ldr	r1, [r7, #0]
    19bc:	603e      	str	r6, [r7, #0]
    19be:	460e      	mov	r6, r1
    19c0:	f847 6d04 	str.w	r6, [r7, #-4]!
    19c4:	f45f 4650 	movs.w	r6, #53248	; 0xd000
    19c8:	f7ff ff7b 	bl	18c2 <cjumpgenerator>
    19cc:	bd00      	pop	{pc}

000019ce <r_branch>:
    19ce:	b500      	push	{lr}
    19d0:	f000 f811 	bl	19f6 <branch_v>
    19d4:	6839      	ldr	r1, [r7, #0]
    19d6:	603e      	str	r6, [r7, #0]
    19d8:	460e      	mov	r6, r1
    19da:	f7ff ff9e 	bl	191a <jumpgenerator>
    19de:	bd00      	pop	{pc}

000019e0 <nullbranch_v>:
    19e0:	b500      	push	{lr}
    19e2:	f7ff ffbb 	bl	195c <nullprobekomma>
    19e6:	f7ff ffb4 	bl	1952 <here>
    19ea:	f847 6d04 	str.w	r6, [r7, #-4]!
    19ee:	2602      	movs	r6, #2
    19f0:	f7ff fe16 	bl	1620 <allot>
    19f4:	bd00      	pop	{pc}

000019f6 <branch_v>:
    19f6:	b500      	push	{lr}
    19f8:	f7ff ffab 	bl	1952 <here>
    19fc:	f847 6d04 	str.w	r6, [r7, #-4]!
    1a00:	2602      	movs	r6, #2
    1a02:	f7ff fe0d 	bl	1620 <allot>
    1a06:	bd00      	pop	{pc}

00001a08 <v_branch>:
    1a08:	b500      	push	{lr}
    1a0a:	f7ff ffa2 	bl	1952 <here>
    1a0e:	f7ff ff84 	bl	191a <jumpgenerator>
    1a12:	bd00      	pop	{pc}

00001a14 <v_nullbranch>:
    1a14:	b500      	push	{lr}
    1a16:	f7ff ff9c 	bl	1952 <here>
    1a1a:	f847 6d04 	str.w	r6, [r7, #-4]!
    1a1e:	f45f 4650 	movs.w	r6, #53248	; 0xd000
    1a22:	f7ff ff4e 	bl	18c2 <cjumpgenerator>
    1a26:	bd00      	pop	{pc}

00001a28 <v_casebranch>:
    1a28:	b500      	push	{lr}
    1a2a:	f7ff ff92 	bl	1952 <here>
    1a2e:	f847 6d04 	str.w	r6, [r7, #-4]!
    1a32:	f45f 4651 	movs.w	r6, #53504	; 0xd100
    1a36:	f7ff ff44 	bl	18c2 <cjumpgenerator>
    1a3a:	bd00      	pop	{pc}
    1a3c:	00001946 	andeq	r1, r0, r6, asr #18
    1a40:	74040030 	strvc	r0, [r4], #-48	; 0x30
    1a44:	006e6568 	rsbeq	r6, lr, r8, ror #10
    1a48:	2e05      	cmp	r6, #5
    1a4a:	d102      	bne.n	1a52 <v_casebranch+0x2a>
    1a4c:	cf40      	ldmia	r7!, {r6}
    1a4e:	f7ff bfdb 	b.w	1a08 <v_branch>
    1a52:	2e02      	cmp	r6, #2
    1a54:	d102      	bne.n	1a5c <strukturen_passen_nicht>
    1a56:	cf40      	ldmia	r7!, {r6}
    1a58:	f7ff bfdc 	b.w	1a14 <v_nullbranch>

00001a5c <strukturen_passen_nicht>:
    1a5c:	f7ff f8db 	bl	c16 <dotgaensefuesschen>
    1a60:	72745317 	rsbsvc	r5, r4, #1543503872	; 0x5c000000
    1a64:	75746375 	ldrbvc	r6, [r4, #-885]!	; 0x375
    1a68:	20736572 	rsbscs	r6, r3, r2, ror r5
    1a6c:	276e6f64 	strbcs	r6, [lr, -r4, ror #30]!
    1a70:	616d2074 	smcvs	53764	; 0xd204
    1a74:	0a686374 	beq	1a1a84c <FlashDictionaryEnde+0x19da84c>
    1a78:	f000 bba1 	b.w	21be <quit>
    1a7c:	00001a3c 	andeq	r1, r0, ip, lsr sl
    1a80:	65040030 	strvs	r0, [r4, #-48]	; 0x30
    1a84:	0065736c 	rsbeq	r7, r5, ip, ror #6
    1a88:	b500      	push	{lr}
    1a8a:	2e02      	cmp	r6, #2
    1a8c:	f47f afe6 	bne.w	1a5c <strukturen_passen_nicht>
    1a90:	cf40      	ldmia	r7!, {r6}
    1a92:	f7ff ffb0 	bl	19f6 <branch_v>
    1a96:	6839      	ldr	r1, [r7, #0]
    1a98:	603e      	str	r6, [r7, #0]
    1a9a:	460e      	mov	r6, r1
    1a9c:	f7ff ffba 	bl	1a14 <v_nullbranch>
    1aa0:	f847 6d04 	str.w	r6, [r7, #-4]!
    1aa4:	2605      	movs	r6, #5
    1aa6:	bd00      	pop	{pc}
    1aa8:	00001a7c 	andeq	r1, r0, ip, ror sl
    1aac:	69020030 	stmdbvs	r2, {r4, r5}
    1ab0:	b5000066 	strlt	r0, [r0, #-102]	; 0x66

00001ab2 <struktur_if>:
    1ab2:	b500      	push	{lr}
    1ab4:	f7ff ff94 	bl	19e0 <nullbranch_v>
    1ab8:	f847 6d04 	str.w	r6, [r7, #-4]!
    1abc:	2602      	movs	r6, #2
    1abe:	bd00      	pop	{pc}
    1ac0:	00001aa8 	andeq	r1, r0, r8, lsr #21
    1ac4:	72060030 	andvc	r0, r6, #48	; 0x30
    1ac8:	61657065 	cmnvs	r5, r5, rrx
    1acc:	2e040074 	mcrcs	0, 0, r0, cr4, cr4, {3}
    1ad0:	d1c4      	bne.n	1a5c <strukturen_passen_nicht>
    1ad2:	cf40      	ldmia	r7!, {r6}
    1ad4:	6839      	ldr	r1, [r7, #0]
    1ad6:	603e      	str	r6, [r7, #0]
    1ad8:	460e      	mov	r6, r1
    1ada:	b500      	push	{lr}
    1adc:	f7ff ff77 	bl	19ce <r_branch>
    1ae0:	f7ff ff98 	bl	1a14 <v_nullbranch>
    1ae4:	bd00      	pop	{pc}
    1ae6:	00001ac0 	andeq	r1, r0, r0, asr #21
    1aea:	77050030 	smladxvc	r5, r0, r0, r0
    1aee:	656c6968 	strbvs	r6, [ip, #-2408]!	; 0x968
    1af2:	2e01      	cmp	r6, #1
    1af4:	d1b2      	bne.n	1a5c <strukturen_passen_nicht>
    1af6:	cf40      	ldmia	r7!, {r6}
    1af8:	b500      	push	{lr}
    1afa:	f7ff ffda 	bl	1ab2 <struktur_if>
    1afe:	3602      	adds	r6, #2
    1b00:	bd00      	pop	{pc}
    1b02:	00001ae6 	andeq	r1, r0, r6, ror #21
    1b06:	75050030 	strvc	r0, [r5, #-48]	; 0x30
    1b0a:	6c69746e 	cfstrdvs	mvd7, [r9], #-440	; 0xfffffe48
    1b0e:	2e01      	cmp	r6, #1
    1b10:	d1a4      	bne.n	1a5c <strukturen_passen_nicht>
    1b12:	cf40      	ldmia	r7!, {r6}
    1b14:	f7ff bf4c 	b.w	19b0 <r_nullbranch>
    1b18:	00001b02 	andeq	r1, r0, r2, lsl #22
    1b1c:	61050030 	tstvs	r5, r0, lsr r0
    1b20:	6e696167 	powvsez	f6, f1, f7
    1b24:	2e01      	cmp	r6, #1
    1b26:	d199      	bne.n	1a5c <strukturen_passen_nicht>
    1b28:	cf40      	ldmia	r7!, {r6}
    1b2a:	f7ff bf50 	b.w	19ce <r_branch>
    1b2e:	00001b18 	andeq	r1, r0, r8, lsl fp
    1b32:	62050030 	andvs	r0, r5, #48	; 0x30
    1b36:	6e696765 	cdpvs	7, 6, cr6, cr9, cr5, {3}
    1b3a:	b500      	push	{lr}
    1b3c:	f7ff ff1c 	bl	1978 <branch_r>
    1b40:	f847 6d04 	str.w	r6, [r7, #-4]!
    1b44:	2601      	movs	r6, #1
    1b46:	bd00      	pop	{pc}
    1b48:	ffffff01 			; <UNDEFINED> instruction: 0xffffff01
    1b4c:	ffffff00 			; <UNDEFINED> instruction: 0xffffff00
    1b50:	20000004 	andcs	r0, r0, r4
    1b54:	fffff801 			; <UNDEFINED> instruction: 0xfffff801
    1b58:	fffff800 			; <UNDEFINED> instruction: 0xfffff800
    1b5c:	000007ff 	strdeq	r0, [r0], -pc	; <UNPREDICTABLE>
    1b60:	00001b2e 	andeq	r1, r0, lr, lsr #22
    1b64:	6b010020 	blvs	41bec <FlashDictionaryEnde+0x1bec>
    1b68:	f847 6d04 	str.w	r6, [r7, #-4]!
    1b6c:	f85d 6c08 	ldr.w	r6, [sp, #-8]
    1b70:	4770      	bx	lr
    1b72:	00001b60 	andeq	r1, r0, r0, ror #22
    1b76:	6a010020 	bvs	41bfe <FlashDictionaryEnde+0x1bfe>
    1b7a:	f847 6d04 	str.w	r6, [r7, #-4]!
    1b7e:	9e00      	ldr	r6, [sp, #0]
    1b80:	4770      	bx	lr
    1b82:	00001b72 	andeq	r1, r0, r2, ror fp
    1b86:	69010020 	stmdbvs	r1, {r5}
    1b8a:	f847 6d04 	str.w	r6, [r7, #-4]!
    1b8e:	0026      	movs	r6, r4
    1b90:	4770      	bx	lr
    1b92:	00001b82 	andeq	r1, r0, r2, lsl #23
    1b96:	6c050030 	stcvs	0, cr0, [r5], {48}	; 0x30
    1b9a:	65766165 	ldrbvs	r6, [r6, #-357]!	; 0x165
    1b9e:	b500      	push	{lr}
    1ba0:	48a8      	ldr	r0, [pc, #672]	; (1e44 <parse+0x44>)
    1ba2:	6801      	ldr	r1, [r0, #0]
    1ba4:	003b      	movs	r3, r7
    1ba6:	3f04      	subs	r7, #4
    1ba8:	681a      	ldr	r2, [r3, #0]
    1baa:	3b04      	subs	r3, #4
    1bac:	601a      	str	r2, [r3, #0]
    1bae:	3304      	adds	r3, #4
    1bb0:	3304      	adds	r3, #4
    1bb2:	428b      	cmp	r3, r1
    1bb4:	d1f8      	bne.n	1ba8 <struktur_if+0xf6>
    1bb6:	b403      	push	{r0, r1}
    1bb8:	f7ff ff1d 	bl	19f6 <branch_v>
    1bbc:	bc03      	pop	{r0, r1}
    1bbe:	4633      	mov	r3, r6
    1bc0:	cf40      	ldmia	r7!, {r6}
    1bc2:	3904      	subs	r1, #4
    1bc4:	600b      	str	r3, [r1, #0]
    1bc6:	6001      	str	r1, [r0, #0]
    1bc8:	3904      	subs	r1, #4
    1bca:	680a      	ldr	r2, [r1, #0]
    1bcc:	3201      	adds	r2, #1
    1bce:	600a      	str	r2, [r1, #0]
    1bd0:	bd00      	pop	{pc}
    1bd2:	00001b92 	muleq	r0, r2, fp
    1bd6:	75060020 	strvc	r0, [r6, #-32]
    1bda:	6f6f6c6e 	svcvs	0x006f6c6e
    1bde:	bc300070 	ldclt	0, cr0, [r0], #-448	; 0xfffffe40

00001be0 <unloop>:
    1be0:	bc30      	pop	{r4, r5}
    1be2:	4770      	bx	lr
    1be4:	00001bd2 	ldrdeq	r1, [r0], -r2
    1be8:	2b050030 	blcs	141cb0 <FlashDictionaryEnde+0x101cb0>
    1bec:	706f6f6c 	rsbvc	r6, pc, ip, ror #30
    1bf0:	2e03      	cmp	r6, #3
    1bf2:	f47f af33 	bne.w	1a5c <strukturen_passen_nicht>
    1bf6:	cf40      	ldmia	r7!, {r6}
    1bf8:	b500      	push	{lr}
    1bfa:	f847 6d04 	str.w	r6, [r7, #-4]!
    1bfe:	4e92      	ldr	r6, [pc, #584]	; (1e48 <parse+0x48>)
    1c00:	f7ff fa9a 	bl	1138 <inlinekomma>
    1c04:	f7ff fec7 	bl	1996 <r_branch_jvc>
    1c08:	e01a      	b.n	1c40 <loop_intern>

00001c0a <struktur_plusloop>:
    1c0a:	f114 4400 	adds.w	r4, r4, #2147483648	; 0x80000000
    1c0e:	1b64      	subs	r4, r4, r5
    1c10:	19a4      	adds	r4, r4, r6
    1c12:	cf40      	ldmia	r7!, {r6}
    1c14:	442c      	add	r4, r5
    1c16:	f1a4 4400 	sub.w	r4, r4, #2147483648	; 0x80000000
    1c1a:	4770      	bx	lr
    1c1c:	00001be4 	andeq	r1, r0, r4, ror #23
    1c20:	6c040030 	stcvs	0, cr0, [r4], {48}	; 0x30
    1c24:	00706f6f 	rsbseq	r6, r0, pc, ror #30
    1c28:	2e03      	cmp	r6, #3
    1c2a:	f47f af17 	bne.w	1a5c <strukturen_passen_nicht>
    1c2e:	cf40      	ldmia	r7!, {r6}
    1c30:	b500      	push	{lr}
    1c32:	f847 6d04 	str.w	r6, [r7, #-4]!
    1c36:	4e85      	ldr	r6, [pc, #532]	; (1e4c <parse+0x4c>)
    1c38:	f7ff fa7e 	bl	1138 <inlinekomma>
    1c3c:	f7ff fe9e 	bl	197c <r_branch_jne>

00001c40 <loop_intern>:
    1c40:	f000 f8b9 	bl	1db6 <spruenge_einpflegen>
    1c44:	487f      	ldr	r0, [pc, #508]	; (1e44 <parse+0x44>)
    1c46:	4631      	mov	r1, r6
    1c48:	cf40      	ldmia	r7!, {r6}
    1c4a:	6001      	str	r1, [r0, #0]
    1c4c:	f847 6d04 	str.w	r6, [r7, #-4]!
    1c50:	4e7f      	ldr	r6, [pc, #508]	; (1e50 <parse+0x50>)
    1c52:	f7ff fa71 	bl	1138 <inlinekomma>
    1c56:	bd00      	pop	{pc}

00001c58 <struktur_loop>:
    1c58:	3401      	adds	r4, #1
    1c5a:	42ac      	cmp	r4, r5
    1c5c:	4770      	bx	lr
    1c5e:	00001c1c 	andeq	r1, r0, ip, lsl ip
    1c62:	64020030 	strvs	r0, [r2], #-48	; 0x30
    1c66:	b500006f 	strlt	r0, [r0, #-111]	; 0x6f
    1c6a:	f847 6d04 	str.w	r6, [r7, #-4]!
    1c6e:	4e79      	ldr	r6, [pc, #484]	; (1e54 <parse+0x54>)
    1c70:	f7ff fa62 	bl	1138 <inlinekomma>
    1c74:	4873      	ldr	r0, [pc, #460]	; (1e44 <parse+0x44>)
    1c76:	6801      	ldr	r1, [r0, #0]
    1c78:	f847 6d04 	str.w	r6, [r7, #-4]!
    1c7c:	000e      	movs	r6, r1
    1c7e:	f847 6d04 	str.w	r6, [r7, #-4]!
    1c82:	2600      	movs	r6, #0
    1c84:	6007      	str	r7, [r0, #0]

00001c86 <do_intern>:
    1c86:	f7ff fe77 	bl	1978 <branch_r>
    1c8a:	f847 6d04 	str.w	r6, [r7, #-4]!
    1c8e:	2603      	movs	r6, #3
    1c90:	bd00      	pop	{pc}

00001c92 <struktur_do>:
    1c92:	b430      	push	{r4, r5}
    1c94:	4634      	mov	r4, r6
    1c96:	cf40      	ldmia	r7!, {r6}
    1c98:	4635      	mov	r5, r6
    1c9a:	cf40      	ldmia	r7!, {r6}
    1c9c:	4770      	bx	lr
    1c9e:	00001c5e 	andeq	r1, r0, lr, asr ip
    1ca2:	3f030030 	svccc	0x00030030
    1ca6:	b5006f64 	strlt	r6, [r0, #-3940]	; 0xf64
    1caa:	f847 6d04 	str.w	r6, [r7, #-4]!
    1cae:	4e6a      	ldr	r6, [pc, #424]	; (1e58 <parse+0x58>)
    1cb0:	f7ff fa42 	bl	1138 <inlinekomma>
    1cb4:	4863      	ldr	r0, [pc, #396]	; (1e44 <parse+0x44>)
    1cb6:	6801      	ldr	r1, [r0, #0]
    1cb8:	f847 6d04 	str.w	r6, [r7, #-4]!
    1cbc:	000e      	movs	r6, r1
    1cbe:	f7ff fe9a 	bl	19f6 <branch_v>
    1cc2:	3601      	adds	r6, #1
    1cc4:	f847 6d04 	str.w	r6, [r7, #-4]!
    1cc8:	2601      	movs	r6, #1
    1cca:	485e      	ldr	r0, [pc, #376]	; (1e44 <parse+0x44>)
    1ccc:	6007      	str	r7, [r0, #0]
    1cce:	e7da      	b.n	1c86 <do_intern>

00001cd0 <struktur_qdo>:
    1cd0:	b430      	push	{r4, r5}
    1cd2:	4634      	mov	r4, r6
    1cd4:	cf40      	ldmia	r7!, {r6}
    1cd6:	4635      	mov	r5, r6
    1cd8:	cf40      	ldmia	r7!, {r6}
    1cda:	42ac      	cmp	r4, r5
    1cdc:	4770      	bx	lr
    1cde:	00001c9e 	muleq	r0, lr, ip
    1ce2:	63040030 	movwvs	r0, #16432	; 0x4030
    1ce6:	00657361 	rsbeq	r7, r5, r1, ror #6

00001cea <case>:
    1cea:	f847 6d04 	str.w	r6, [r7, #-4]!
    1cee:	2600      	movs	r6, #0
    1cf0:	f847 6d04 	str.w	r6, [r7, #-4]!
    1cf4:	2608      	movs	r6, #8
    1cf6:	4770      	bx	lr
    1cf8:	00001cde 	ldrdeq	r1, [r0], -lr
    1cfc:	3f030030 	svccc	0x00030030
    1d00:	4856666f 	ldmdami	r6, {r0, r1, r2, r3, r5, r6, r9, sl, sp, lr}^
    1d04:	e009      	b.n	1d1a <of_inneneinsprung>

00001d06 <struktur_qof>:
    1d06:	3e01      	subs	r6, #1
    1d08:	41b6      	sbcs	r6, r6
    1d0a:	cf40      	ldmia	r7!, {r6}
    1d0c:	4770      	bx	lr
    1d0e:	00001cf8 	strdeq	r1, [r0], -r8
    1d12:	6f020030 	svcvs	0x00020030
    1d16:	48510066 	ldmdami	r1, {r1, r2, r5, r6}^

00001d1a <of_inneneinsprung>:
    1d1a:	2e08      	cmp	r6, #8
    1d1c:	f47f ae9e 	bne.w	1a5c <strukturen_passen_nicht>
    1d20:	cf40      	ldmia	r7!, {r6}
    1d22:	b500      	push	{lr}
    1d24:	f847 6d04 	str.w	r6, [r7, #-4]!
    1d28:	0006      	movs	r6, r0
    1d2a:	f7ff fa05 	bl	1138 <inlinekomma>
    1d2e:	f7ff fe62 	bl	19f6 <branch_v>
    1d32:	6839      	ldr	r1, [r7, #0]
    1d34:	603e      	str	r6, [r7, #0]
    1d36:	460e      	mov	r6, r1
    1d38:	3601      	adds	r6, #1
    1d3a:	f847 6d04 	str.w	r6, [r7, #-4]!
    1d3e:	2609      	movs	r6, #9
    1d40:	f847 6d04 	str.w	r6, [r7, #-4]!
    1d44:	f64c 7640 	movw	r6, #53056	; 0xcf40
    1d48:	f7ff fc14 	bl	1574 <hkomma>
    1d4c:	bd00      	pop	{pc}

00001d4e <struktur_of>:
    1d4e:	4630      	mov	r0, r6
    1d50:	cf40      	ldmia	r7!, {r6}
    1d52:	42b0      	cmp	r0, r6
    1d54:	4770      	bx	lr
    1d56:	00001d0e 	andeq	r1, r0, lr, lsl #26
    1d5a:	65050030 	strvs	r0, [r5, #-48]	; 0x30
    1d5e:	666f646e 	strbtvs	r6, [pc], -lr, ror #8

00001d62 <strukturendof>:
    1d62:	2e09      	cmp	r6, #9
    1d64:	f47f ae7a 	bne.w	1a5c <strukturen_passen_nicht>
    1d68:	cf40      	ldmia	r7!, {r6}
    1d6a:	b500      	push	{lr}
    1d6c:	b440      	push	{r6}
    1d6e:	cf40      	ldmia	r7!, {r6}
    1d70:	f7ff fe41 	bl	19f6 <branch_v>
    1d74:	6839      	ldr	r1, [r7, #0]
    1d76:	603e      	str	r6, [r7, #0]
    1d78:	460e      	mov	r6, r1
    1d7a:	f7ff fe55 	bl	1a28 <v_casebranch>
    1d7e:	f847 6d04 	str.w	r6, [r7, #-4]!
    1d82:	bc40      	pop	{r6}
    1d84:	f847 6d04 	str.w	r6, [r7, #-4]!
    1d88:	2608      	movs	r6, #8
    1d8a:	bd00      	pop	{pc}
    1d8c:	00001d56 	andeq	r1, r0, r6, asr sp
    1d90:	65070030 	strvs	r0, [r7, #-48]	; 0x30
    1d94:	6163646e 	cmnvs	r3, lr, ror #8
    1d98:	2e086573 	cfrshl64cs	mvdx8, mvdx3, r6

00001d9a <strukturendcase>:
    1d9a:	2e08      	cmp	r6, #8
    1d9c:	f47f ae5e 	bne.w	1a5c <strukturen_passen_nicht>
    1da0:	cf40      	ldmia	r7!, {r6}
    1da2:	b500      	push	{lr}
    1da4:	f847 6d04 	str.w	r6, [r7, #-4]!
    1da8:	f64c 7640 	movw	r6, #53056	; 0xcf40
    1dac:	f7ff fbe2 	bl	1574 <hkomma>
    1db0:	f000 f801 	bl	1db6 <spruenge_einpflegen>
    1db4:	bd00      	pop	{pc}

00001db6 <spruenge_einpflegen>:
    1db6:	b500      	push	{lr}
    1db8:	4630      	mov	r0, r6
    1dba:	cf40      	ldmia	r7!, {r6}
    1dbc:	2800      	cmp	r0, #0
    1dbe:	d00d      	beq.n	1ddc <spruenge_einpflegen+0x26>
    1dc0:	b403      	push	{r0, r1}
    1dc2:	f016 0101 	ands.w	r1, r6, #1
    1dc6:	2900      	cmp	r1, #0
    1dc8:	d003      	beq.n	1dd2 <spruenge_einpflegen+0x1c>
    1dca:	3e01      	subs	r6, #1
    1dcc:	f7ff fe22 	bl	1a14 <v_nullbranch>
    1dd0:	e001      	b.n	1dd6 <spruenge_einpflegen+0x20>
    1dd2:	f7ff fe19 	bl	1a08 <v_branch>
    1dd6:	bc03      	pop	{r0, r1}
    1dd8:	3801      	subs	r0, #1
    1dda:	e7ef      	b.n	1dbc <spruenge_einpflegen+0x6>
    1ddc:	bd00      	pop	{pc}
    1dde:	00001d8c 	andeq	r1, r0, ip, lsl #27
    1de2:	74050000 	strvc	r0, [r5], #-0
    1de6:	6e656b6f 	vnmulvs.f64	d22, d5, d31

00001dea <token>:
    1dea:	2020      	movs	r0, #32
    1dec:	f847 6d04 	str.w	r6, [r7, #-4]!
    1df0:	0006      	movs	r6, r0
    1df2:	e005      	b.n	1e00 <parse>
    1df4:	00001dde 	ldrdeq	r1, [r0], -lr
    1df8:	70050000 	andvc	r0, r5, r0
    1dfc:	65737261 	ldrbvs	r7, [r3, #-609]!	; 0x261

00001e00 <parse>:
    1e00:	b530      	push	{r4, r5, lr}
    1e02:	4818      	ldr	r0, [pc, #96]	; (1e64 <parse+0x64>)
    1e04:	7801      	ldrb	r1, [r0, #0]
    1e06:	4a18      	ldr	r2, [pc, #96]	; (1e68 <parse+0x68>)
    1e08:	7812      	ldrb	r2, [r2, #0]
    1e0a:	4b18      	ldr	r3, [pc, #96]	; (1e6c <parse+0x6c>)
    1e0c:	2400      	movs	r4, #0
    1e0e:	1880      	adds	r0, r0, r2
    1e10:	2e20      	cmp	r6, #32
    1e12:	d107      	bne.n	1e24 <parse+0x24>
    1e14:	4291      	cmp	r1, r2
    1e16:	d010      	beq.n	1e3a <parse+0x3a>
    1e18:	3001      	adds	r0, #1
    1e1a:	3201      	adds	r2, #1
    1e1c:	7805      	ldrb	r5, [r0, #0]
    1e1e:	42b5      	cmp	r5, r6
    1e20:	d0f8      	beq.n	1e14 <parse+0x14>
    1e22:	e006      	b.n	1e32 <parse+0x32>
    1e24:	4291      	cmp	r1, r2
    1e26:	d008      	beq.n	1e3a <parse+0x3a>
    1e28:	3001      	adds	r0, #1
    1e2a:	3201      	adds	r2, #1
    1e2c:	7805      	ldrb	r5, [r0, #0]
    1e2e:	42b5      	cmp	r5, r6
    1e30:	d003      	beq.n	1e3a <parse+0x3a>
    1e32:	3301      	adds	r3, #1
    1e34:	3401      	adds	r4, #1
    1e36:	701d      	strb	r5, [r3, #0]
    1e38:	e7f4      	b.n	1e24 <parse+0x24>
    1e3a:	480b      	ldr	r0, [pc, #44]	; (1e68 <parse+0x68>)
    1e3c:	7002      	strb	r2, [r0, #0]
    1e3e:	4e0b      	ldr	r6, [pc, #44]	; (1e6c <parse+0x6c>)
    1e40:	7034      	strb	r4, [r6, #0]
    1e42:	bd30      	pop	{r4, r5, pc}
    1e44:	20000018 	andcs	r0, r0, r8, lsl r0
    1e48:	00001c0a 	andeq	r1, r0, sl, lsl #24
    1e4c:	00001c58 	andeq	r1, r0, r8, asr ip
    1e50:	00001be0 	andeq	r1, r0, r0, ror #23
    1e54:	00001c92 	muleq	r0, r2, ip
    1e58:	00001cd0 	ldrdeq	r1, [r0], -r0
    1e5c:	00001d06 	andeq	r1, r0, r6, lsl #26
    1e60:	00001d4e 	andeq	r1, r0, lr, asr #26
    1e64:	20000070 	andcs	r0, r0, r0, ror r0
    1e68:	20000000 	andcs	r0, r0, r0
    1e6c:	20000338 	andcs	r0, r0, r8, lsr r3
    1e70:	00001df4 	strdeq	r1, [r0], -r4
    1e74:	64050000 	strvs	r0, [r5], #-0
    1e78:	74696769 	strbtvc	r6, [r9], #-1897	; 0x769

00001e7c <digit>:
    1e7c:	f8df 3718 	ldr.w	r3, [pc, #1816]	; 2598 <init_name+0x8>
    1e80:	681b      	ldr	r3, [r3, #0]

00001e82 <digit_base_r3>:
    1e82:	3e30      	subs	r6, #48	; 0x30
    1e84:	d30b      	bcc.n	1e9e <digit_base_r3+0x1c>
    1e86:	2e0a      	cmp	r6, #10
    1e88:	d30b      	bcc.n	1ea2 <digit_base_r3+0x20>
    1e8a:	3e07      	subs	r6, #7
    1e8c:	2e0a      	cmp	r6, #10
    1e8e:	d306      	bcc.n	1e9e <digit_base_r3+0x1c>
    1e90:	2e24      	cmp	r6, #36	; 0x24
    1e92:	d306      	bcc.n	1ea2 <digit_base_r3+0x20>
    1e94:	3e20      	subs	r6, #32
    1e96:	2e0a      	cmp	r6, #10
    1e98:	d301      	bcc.n	1e9e <digit_base_r3+0x1c>
    1e9a:	2e24      	cmp	r6, #36	; 0x24
    1e9c:	d301      	bcc.n	1ea2 <digit_base_r3+0x20>
    1e9e:	2600      	movs	r6, #0
    1ea0:	4770      	bx	lr
    1ea2:	429e      	cmp	r6, r3
    1ea4:	d2fb      	bcs.n	1e9e <digit_base_r3+0x1c>
    1ea6:	f847 6d04 	str.w	r6, [r7, #-4]!
    1eaa:	f05f 36ff 	movs.w	r6, #4294967295
    1eae:	4770      	bx	lr
    1eb0:	00001e70 	andeq	r1, r0, r0, ror lr
    1eb4:	6e060000 	cdpvs	0, 0, cr0, cr6, cr0, {0}
    1eb8:	65626d75 	strbvs	r6, [r2, #-3445]!	; 0xd75
    1ebc:	b51f0072 	ldrlt	r0, [pc, #-114]	; 1e52 <parse+0x52>

00001ebe <number>:
    1ebe:	b51f      	push	{r0, r1, r2, r3, r4, lr}
    1ec0:	0030      	movs	r0, r6
    1ec2:	7801      	ldrb	r1, [r0, #0]
    1ec4:	2600      	movs	r6, #0
    1ec6:	2201      	movs	r2, #1
    1ec8:	f8df 36cc 	ldr.w	r3, [pc, #1740]	; 2598 <init_name+0x8>
    1ecc:	681b      	ldr	r3, [r3, #0]
    1ece:	2900      	cmp	r1, #0
    1ed0:	d020      	beq.n	1f14 <number+0x56>
    1ed2:	3001      	adds	r0, #1
    1ed4:	3901      	subs	r1, #1
    1ed6:	7804      	ldrb	r4, [r0, #0]
    1ed8:	2c2d      	cmp	r4, #45	; 0x2d
    1eda:	bf04      	itt	eq
    1edc:	f04f 32ff 	moveq.w	r2, #4294967295
    1ee0:	e7f5      	beq.n	1ece <number+0x10>
    1ee2:	2c23      	cmp	r4, #35	; 0x23
    1ee4:	bf04      	itt	eq
    1ee6:	230a      	moveq	r3, #10
    1ee8:	e7f1      	beq.n	1ece <number+0x10>
    1eea:	2c24      	cmp	r4, #36	; 0x24
    1eec:	bf04      	itt	eq
    1eee:	2310      	moveq	r3, #16
    1ef0:	e7ed      	beq.n	1ece <number+0x10>
    1ef2:	2c25      	cmp	r4, #37	; 0x25
    1ef4:	bf04      	itt	eq
    1ef6:	2302      	moveq	r3, #2
    1ef8:	e7e9      	beq.n	1ece <number+0x10>
    1efa:	f847 6d04 	str.w	r6, [r7, #-4]!
    1efe:	0026      	movs	r6, r4
    1f00:	f7ff ffbf 	bl	1e82 <digit_base_r3>
    1f04:	2e00      	cmp	r6, #0
    1f06:	cf40      	ldmia	r7!, {r6}
    1f08:	d009      	beq.n	1f1e <number+0x60>
    1f0a:	4634      	mov	r4, r6
    1f0c:	cf40      	ldmia	r7!, {r6}
    1f0e:	fb06 4603 	mla	r6, r6, r3, r4
    1f12:	e7dc      	b.n	1ece <number+0x10>
    1f14:	4356      	muls	r6, r2
    1f16:	f847 6d04 	str.w	r6, [r7, #-4]!
    1f1a:	2601      	movs	r6, #1
    1f1c:	bd1f      	pop	{r0, r1, r2, r3, r4, pc}
    1f1e:	2600      	movs	r6, #0
    1f20:	bd1f      	pop	{r0, r1, r2, r3, r4, pc}
    1f22:	00001eb0 			; <UNDEFINED> instruction: 0x00001eb0
    1f26:	2e060000 	cdpcs	0, 0, cr0, cr6, cr0, {0}
    1f2a:	69676964 	stmdbvs	r7!, {r2, r5, r6, r8, fp, sp, lr}^
    1f2e:	2e0a0074 	mcrcs	0, 0, r0, cr10, cr4, {3}

00001f30 <digitausgeben>:
    1f30:	2e0a      	cmp	r6, #10
    1f32:	bf3c      	itt	cc
    1f34:	3630      	addcc	r6, #48	; 0x30
    1f36:	e003      	bcc.n	1f40 <digitausgeben+0x10>
    1f38:	2e24      	cmp	r6, #36	; 0x24
    1f3a:	bf34      	ite	cc
    1f3c:	3637      	addcc	r6, #55	; 0x37
    1f3e:	2623      	movcs	r6, #35	; 0x23
    1f40:	4770      	bx	lr
    1f42:	00001f22 	andeq	r1, r0, r2, lsr #30
    1f46:	68040000 	stmdavs	r4, {}	; <UNPREDICTABLE>
    1f4a:	00646c6f 	rsbeq	r6, r4, pc, ror #24

00001f4e <hold>:
    1f4e:	4633      	mov	r3, r6
    1f50:	cf40      	ldmia	r7!, {r6}
    1f52:	f8df 0648 	ldr.w	r0, [pc, #1608]	; 259c <init_name+0xc>
    1f56:	7801      	ldrb	r1, [r0, #0]
    1f58:	f1b1 0f3f 	cmp.w	r1, #63	; 0x3f
    1f5c:	d20d      	bcs.n	1f7a <hold+0x2c>
    1f5e:	3101      	adds	r1, #1
    1f60:	7001      	strb	r1, [r0, #0]
    1f62:	1840      	adds	r0, r0, r1
    1f64:	2901      	cmp	r1, #1
    1f66:	d007      	beq.n	1f78 <hold+0x2a>
    1f68:	3801      	subs	r0, #1
    1f6a:	7802      	ldrb	r2, [r0, #0]
    1f6c:	3001      	adds	r0, #1
    1f6e:	7002      	strb	r2, [r0, #0]
    1f70:	3801      	subs	r0, #1
    1f72:	3901      	subs	r1, #1
    1f74:	2901      	cmp	r1, #1
    1f76:	d1f7      	bne.n	1f68 <hold+0x1a>
    1f78:	7003      	strb	r3, [r0, #0]
    1f7a:	4770      	bx	lr
    1f7c:	00001f42 	andeq	r1, r0, r2, asr #30
    1f80:	73040000 	movwvc	r0, #16384	; 0x4000
    1f84:	006e6769 	rsbeq	r6, lr, r9, ror #14

00001f88 <vorzeichen>:
    1f88:	2e00      	cmp	r6, #0
    1f8a:	d401      	bmi.n	1f90 <vorzeichen+0x8>
    1f8c:	cf40      	ldmia	r7!, {r6}
    1f8e:	4770      	bx	lr
    1f90:	262d      	movs	r6, #45	; 0x2d
    1f92:	e7dc      	b.n	1f4e <hold>
    1f94:	00001f7c 	andeq	r1, r0, ip, ror pc
    1f98:	23020000 	movwcs	r0, #8192	; 0x2000
    1f9c:	f8df003e 			; <UNDEFINED> instruction: 0xf8df003e

00001f9e <zifferstringende>:
    1f9e:	f8df 65fc 	ldr.w	r6, [pc, #1532]	; 259c <init_name+0xc>
    1fa2:	4770      	bx	lr
    1fa4:	00001f94 	muleq	r0, r4, pc	; <UNPREDICTABLE>
    1fa8:	23020000 	movwcs	r0, #8192	; 0x2000
    1fac:	b5000053 	strlt	r0, [r0, #-83]	; 0x53

00001fae <alleziffern>:
    1fae:	b500      	push	{lr}
    1fb0:	f000 f807 	bl	1fc2 <ziffer>
    1fb4:	2e00      	cmp	r6, #0
    1fb6:	d1fb      	bne.n	1fb0 <alleziffern+0x2>
    1fb8:	bd00      	pop	{pc}
    1fba:	00001fa4 	andeq	r1, r0, r4, lsr #31
    1fbe:	23010000 	movwcs	r0, #4096	; 0x1000

00001fc2 <ziffer>:
    1fc2:	b500      	push	{lr}
    1fc4:	f847 6d04 	str.w	r6, [r7, #-4]!
    1fc8:	f8df 65cc 	ldr.w	r6, [pc, #1484]	; 2598 <init_name+0x8>
    1fcc:	6836      	ldr	r6, [r6, #0]
    1fce:	f7fe fc71 	bl	8b4 <u_divmod>
    1fd2:	6839      	ldr	r1, [r7, #0]
    1fd4:	603e      	str	r6, [r7, #0]
    1fd6:	460e      	mov	r6, r1
    1fd8:	f7ff ffaa 	bl	1f30 <digitausgeben>
    1fdc:	f7ff ffb7 	bl	1f4e <hold>
    1fe0:	bd00      	pop	{pc}
    1fe2:	00001fba 			; <UNDEFINED> instruction: 0x00001fba
    1fe6:	3c020000 	stccc	0, cr0, [r2], {-0}
    1fea:	f8df0023 			; <UNDEFINED> instruction: 0xf8df0023

00001fec <zifferstringanfang>:
    1fec:	f8df 05ac 	ldr.w	r0, [pc, #1452]	; 259c <init_name+0xc>
    1ff0:	2100      	movs	r1, #0
    1ff2:	7001      	strb	r1, [r0, #0]
    1ff4:	4770      	bx	lr
    1ff6:	00001fe2 	andeq	r1, r0, r2, ror #31
    1ffa:	75020000 	strvc	r0, [r2, #-0]
    1ffe:	b500002e 	strlt	r0, [r0, #-46]	; 0x2e

00002000 <udot>:
    2000:	b500      	push	{lr}
    2002:	f7ff fff3 	bl	1fec <zifferstringanfang>
    2006:	f7ff ffd2 	bl	1fae <alleziffern>
    200a:	f000 f814 	bl	2036 <dot_inneneinsprung>
    200e:	00001ff6 	strdeq	r1, [r0], -r6
    2012:	2e010000 	cdpcs	0, 0, cr0, cr1, cr0, {0}

00002016 <dot>:
    2016:	b500      	push	{lr}
    2018:	f847 6d04 	str.w	r6, [r7, #-4]!
    201c:	2e00      	cmp	r6, #0
    201e:	bf48      	it	mi
    2020:	f1d6 0600 	rsbsmi	r6, r6, #0
    2024:	f7ff ffe2 	bl	1fec <zifferstringanfang>
    2028:	f7ff ffc1 	bl	1fae <alleziffern>
    202c:	6839      	ldr	r1, [r7, #0]
    202e:	603e      	str	r6, [r7, #0]
    2030:	460e      	mov	r6, r1
    2032:	f7ff ffa9 	bl	1f88 <vorzeichen>

00002036 <dot_inneneinsprung>:
    2036:	f7ff ffb2 	bl	1f9e <zifferstringende>
    203a:	f7fe fe10 	bl	c5e <type>
    203e:	f7fe fda3 	bl	b88 <space>
    2042:	bd00      	pop	{pc}
    2044:	0000200e 	andeq	r2, r0, lr
    2048:	69090000 	stmdbvs	r9, {}	; <UNPREDICTABLE>
    204c:	7265746e 	rsbvc	r7, r5, #1845493760	; 0x6e000000
    2050:	74657270 	strbtvc	r7, [r5], #-624	; 0x270

00002054 <interpret>:
    2054:	b530      	push	{r4, r5, lr}
    2056:	f8df 0548 	ldr.w	r0, [pc, #1352]	; 25a0 <init_name+0x10>
    205a:	4287      	cmp	r7, r0
    205c:	d90b      	bls.n	2076 <interpret+0x22>
    205e:	f7fe fdda 	bl	c16 <dotgaensefuesschen>
    2062:	61745310 	cmnvs	r4, r0, lsl r3
    2066:	75206b63 	strvc	r6, [r0, #-2915]!	; 0xb63
    206a:	7265646e 	rsbvc	r6, r5, #1845493760	; 0x6e000000
    206e:	776f6c66 	strbvc	r6, [pc, -r6, ror #24]!
    2072:	e0a3000a 	adc	r0, r3, sl
    2076:	f8df 052c 	ldr.w	r0, [pc, #1324]	; 25a4 <init_name+0x14>
    207a:	4287      	cmp	r7, r0
    207c:	d20a      	bcs.n	2094 <interpret+0x40>
    207e:	f7fe fdca 	bl	c16 <dotgaensefuesschen>
    2082:	6174530f 	cmnvs	r4, pc, lsl #6
    2086:	6f206b63 	svcvs	0x00206b63
    208a:	66726576 			; <UNDEFINED> instruction: 0x66726576
    208e:	0a776f6c 	beq	1ddde46 <FlashDictionaryEnde+0x1d9de46>
    2092:	e094      	b.n	21be <quit>
    2094:	f7ff fea9 	bl	1dea <token>
    2098:	4630      	mov	r0, r6
    209a:	cf40      	ldmia	r7!, {r6}
    209c:	7801      	ldrb	r1, [r0, #0]
    209e:	2900      	cmp	r1, #0
    20a0:	d100      	bne.n	20a4 <interpret+0x50>
    20a2:	bd30      	pop	{r4, r5, pc}
    20a4:	f8df 4500 	ldr.w	r4, [pc, #1280]	; 25a8 <init_name+0x18>
    20a8:	6825      	ldr	r5, [r4, #0]
    20aa:	2d00      	cmp	r5, #0
    20ac:	d101      	bne.n	20b2 <interpret+0x5e>
    20ae:	003d      	movs	r5, r7
    20b0:	6025      	str	r5, [r4, #0]
    20b2:	f847 6d04 	str.w	r6, [r7, #-4]!
    20b6:	0006      	movs	r6, r0
    20b8:	f7ff fbbc 	bl	1834 <find>
    20bc:	4631      	mov	r1, r6
    20be:	cf40      	ldmia	r7!, {r6}
    20c0:	4632      	mov	r2, r6
    20c2:	cf40      	ldmia	r7!, {r6}
    20c4:	2a00      	cmp	r2, #0
    20c6:	d117      	bne.n	20f8 <interpret+0xa4>
    20c8:	f847 6d04 	str.w	r6, [r7, #-4]!
    20cc:	0006      	movs	r6, r0
    20ce:	f7ff fef6 	bl	1ebe <number>
    20d2:	4632      	mov	r2, r6
    20d4:	cf40      	ldmia	r7!, {r6}
    20d6:	2a00      	cmp	r2, #0
    20d8:	d1bd      	bne.n	2056 <interpret+0x2>
    20da:	f847 6d04 	str.w	r6, [r7, #-4]!
    20de:	0006      	movs	r6, r0
    20e0:	f7fe fdbd 	bl	c5e <type>
    20e4:	f7fe fd97 	bl	c16 <dotgaensefuesschen>
    20e8:	6f6e200c 	svcvs	0x006e200c
    20ec:	6f662074 	svcvs	0x00662074
    20f0:	2e646e75 	mcrcs	14, 3, r6, cr4, cr5, {3}
    20f4:	e062000a 	rsb	r0, r2, sl
    20f8:	f8df 34b0 	ldr.w	r3, [pc, #1200]	; 25ac <init_name+0x1c>
    20fc:	681b      	ldr	r3, [r3, #0]
    20fe:	2b00      	cmp	r3, #0
    2100:	d11e      	bne.n	2140 <.ausfuehren+0xe>
    2102:	2500      	movs	r5, #0
    2104:	6025      	str	r5, [r4, #0]
    2106:	f011 0330 	ands.w	r3, r1, #48	; 0x30
    210a:	2b30      	cmp	r3, #48	; 0x30
    210c:	d111      	bne.n	2132 <.ausfuehren>
    210e:	f847 6d04 	str.w	r6, [r7, #-4]!
    2112:	0006      	movs	r6, r0
    2114:	f7fe fda3 	bl	c5e <type>
    2118:	f7fe fd7d 	bl	c16 <dotgaensefuesschen>
    211c:	73692012 	cmnvc	r9, #18
    2120:	6d6f6320 	stclvs	3, cr6, [pc, #-128]!	; 20a8 <interpret+0x54>
    2124:	656c6970 	strbvs	r6, [ip, #-2416]!	; 0x970
    2128:	6c6e6f2d 	stclvs	15, cr6, [lr], #-180	; 0xffffff4c
    212c:	000a2e79 	andeq	r2, sl, r9, ror lr
    2130:	e045      	b.n	21be <quit>

00002132 <.ausfuehren>:
    2132:	f847 6d04 	str.w	r6, [r7, #-4]!
    2136:	0016      	movs	r6, r2
    2138:	f7ff f8a9 	bl	128e <execute>
    213c:	f7ff ff8b 	bl	2056 <interpret+0x2>
    2140:	2080      	movs	r0, #128	; 0x80
    2142:	4008      	ands	r0, r1
    2144:	2880      	cmp	r0, #128	; 0x80
    2146:	d009      	beq.n	215c <.interpret_faltoptimierung>
    2148:	1beb      	subs	r3, r5, r7
    214a:	089b      	lsrs	r3, r3, #2
    214c:	2040      	movs	r0, #64	; 0x40
    214e:	4008      	ands	r0, r1
    2150:	2840      	cmp	r0, #64	; 0x40
    2152:	d109      	bne.n	2168 <.konstantenschleife>
    2154:	200f      	movs	r0, #15
    2156:	4008      	ands	r0, r1
    2158:	4283      	cmp	r3, r0
    215a:	d305      	bcc.n	2168 <.konstantenschleife>

0000215c <.interpret_faltoptimierung>:
    215c:	f847 6d04 	str.w	r6, [r7, #-4]!
    2160:	0016      	movs	r6, r2
    2162:	f7ff f894 	bl	128e <execute>
    2166:	e776      	b.n	2056 <interpret+0x2>

00002168 <.konstantenschleife>:
    2168:	2b00      	cmp	r3, #0
    216a:	d00c      	beq.n	2186 <.konstanteninnenschleife+0x1a>

0000216c <.konstanteninnenschleife>:
    216c:	3b01      	subs	r3, #1
    216e:	f847 6d04 	str.w	r6, [r7, #-4]!
    2172:	001e      	movs	r6, r3
    2174:	f857 6026 	ldr.w	r6, [r7, r6, lsl #2]
    2178:	f7fe ff12 	bl	fa0 <literalkomma>
    217c:	2b00      	cmp	r3, #0
    217e:	d1f5      	bne.n	216c <.konstanteninnenschleife>
    2180:	3d04      	subs	r5, #4
    2182:	002f      	movs	r7, r5
    2184:	cf40      	ldmia	r7!, {r6}
    2186:	2500      	movs	r5, #0
    2188:	6025      	str	r5, [r4, #0]
    218a:	f847 6d04 	str.w	r6, [r7, #-4]!
    218e:	0016      	movs	r6, r2
    2190:	f011 0210 	ands.w	r2, r1, #16
    2194:	2a10      	cmp	r2, #16
    2196:	d102      	bne.n	219e <.konstanteninnenschleife+0x32>
    2198:	f7ff f879 	bl	128e <execute>
    219c:	e75b      	b.n	2056 <interpret+0x2>
    219e:	f011 0220 	ands.w	r2, r1, #32
    21a2:	2a20      	cmp	r2, #32
    21a4:	d102      	bne.n	21ac <.konstanteninnenschleife+0x40>
    21a6:	f7fe ffc7 	bl	1138 <inlinekomma>
    21aa:	e754      	b.n	2056 <interpret+0x2>
    21ac:	f7fe fec3 	bl	f36 <callkomma>
    21b0:	e751      	b.n	2056 <interpret+0x2>
    21b2:	00002044 	andeq	r2, r0, r4, asr #32
    21b6:	71040000 	mrsvc	r0, (UNDEF: 4)
    21ba:	00746975 	rsbseq	r6, r4, r5, ror r9

000021be <quit>:
    21be:	f8df d3f0 	ldr.w	sp, [pc, #1008]	; 25b0 <init_name+0x20>
    21c2:	4ff7      	ldr	r7, [pc, #988]	; (25a0 <init_name+0x10>)
    21c4:	48f4      	ldr	r0, [pc, #976]	; (2598 <init_name+0x8>)
    21c6:	210a      	movs	r1, #10
    21c8:	6001      	str	r1, [r0, #0]
    21ca:	48f8      	ldr	r0, [pc, #992]	; (25ac <init_name+0x1c>)
    21cc:	2100      	movs	r1, #0
    21ce:	6001      	str	r1, [r0, #0]
    21d0:	48f5      	ldr	r0, [pc, #980]	; (25a8 <init_name+0x18>)
    21d2:	2100      	movs	r1, #0
    21d4:	6001      	str	r1, [r0, #0]

000021d6 <quit_innenschleife>:
    21d6:	f7fe fc61 	bl	a9c <query>
    21da:	f7ff ff3b 	bl	2054 <interpret>
    21de:	f7fe fd1a 	bl	c16 <dotgaensefuesschen>
    21e2:	6b6f2005 	blvs	1bca1fe <FlashDictionaryEnde+0x1b8a1fe>
    21e6:	e7f50a2e 	ldrb	r0, [r5, lr, lsr #20]!
    21ea:	000021b2 			; <UNDEFINED> instruction: 0x000021b2
    21ee:	65040020 	strvs	r0, [r4, #-32]
    21f2:	00746e69 	rsbseq	r6, r4, r9, ror #28
    21f6:	b662      	cpsie	i
    21f8:	4770      	bx	lr
    21fa:	000021ea 	andeq	r2, r0, sl, ror #3
    21fe:	64040020 	strvs	r0, [r4], #-32
    2202:	00746e69 	rsbseq	r6, r4, r9, ror #28
    2206:	b672      	cpsid	i
    2208:	4770      	bx	lr
    220a:	000021fa 	strdeq	r2, [r0], -sl
    220e:	6e030000 	cdpvs	0, 0, cr0, cr3, cr0, {0}
    2212:	4770706f 	ldrbmi	r7, [r0, -pc, rrx]!

00002214 <nop_vektor>:
    2214:	4770      	bx	lr
    2216:	0000220a 	andeq	r2, r0, sl, lsl #4
    221a:	690b0081 	stmdbvs	fp, {r0, r7}
    221e:	732d7172 	teqvc	sp, #-2147483620	; 0x8000001c
    2222:	69747379 	ldmdbvs	r4!, {r0, r3, r4, r5, r6, r8, r9, ip, sp, lr}^
    2226:	f8476b63 			; <UNDEFINED> instruction: 0xf8476b63
    222a:	6d04      	ldr	r4, [r0, #80]	; 0x50
    222c:	4ee1      	ldr	r6, [pc, #900]	; (25b4 <init_name+0x24>)
    222e:	4770      	bx	lr
    2230:	00002214 	andeq	r2, r0, r4, lsl r2

00002234 <irq_vektor_systick>:
    2234:	48df      	ldr	r0, [pc, #892]	; (25b4 <init_name+0x24>)
    2236:	6800      	ldr	r0, [r0, #0]
    2238:	3001      	adds	r0, #1
    223a:	4687      	mov	pc, r0
    223c:	00002216 	andeq	r2, r0, r6, lsl r2
    2240:	69090081 	stmdbvs	r9, {r0, r7}
    2244:	702d7172 	eorvc	r7, sp, r2, ror r1
    2248:	6174726f 	cmnvs	r4, pc, ror #4
    224c:	f847 6d04 	str.w	r6, [r7, #-4]!
    2250:	4ed9      	ldr	r6, [pc, #868]	; (25b8 <init_name+0x28>)
    2252:	4770      	bx	lr
    2254:	00002214 	andeq	r2, r0, r4, lsl r2

00002258 <irq_vektor_porta>:
    2258:	48d7      	ldr	r0, [pc, #860]	; (25b8 <init_name+0x28>)
    225a:	6800      	ldr	r0, [r0, #0]
    225c:	3001      	adds	r0, #1
    225e:	4687      	mov	pc, r0
    2260:	0000223c 	andeq	r2, r0, ip, lsr r2
    2264:	69090081 	stmdbvs	r9, {r0, r7}
    2268:	702d7172 	eorvc	r7, sp, r2, ror r1
    226c:	6274726f 	rsbsvs	r7, r4, #-268435450	; 0xf0000006
    2270:	f847 6d04 	str.w	r6, [r7, #-4]!
    2274:	4ed1      	ldr	r6, [pc, #836]	; (25bc <init_name+0x2c>)
    2276:	4770      	bx	lr
    2278:	00002214 	andeq	r2, r0, r4, lsl r2

0000227c <irq_vektor_portb>:
    227c:	48cf      	ldr	r0, [pc, #828]	; (25bc <init_name+0x2c>)
    227e:	6800      	ldr	r0, [r0, #0]
    2280:	3001      	adds	r0, #1
    2282:	4687      	mov	pc, r0
    2284:	00002260 	andeq	r2, r0, r0, ror #4
    2288:	69090081 	stmdbvs	r9, {r0, r7}
    228c:	702d7172 	eorvc	r7, sp, r2, ror r1
    2290:	6374726f 	cmnvs	r4, #-268435450	; 0xf0000006
    2294:	f847 6d04 	str.w	r6, [r7, #-4]!
    2298:	4ec9      	ldr	r6, [pc, #804]	; (25c0 <init_name+0x30>)
    229a:	4770      	bx	lr
    229c:	00002214 	andeq	r2, r0, r4, lsl r2

000022a0 <irq_vektor_portc>:
    22a0:	48c7      	ldr	r0, [pc, #796]	; (25c0 <init_name+0x30>)
    22a2:	6800      	ldr	r0, [r0, #0]
    22a4:	3001      	adds	r0, #1
    22a6:	4687      	mov	pc, r0
    22a8:	00002284 	andeq	r2, r0, r4, lsl #5
    22ac:	69090081 	stmdbvs	r9, {r0, r7}
    22b0:	702d7172 	eorvc	r7, sp, r2, ror r1
    22b4:	6474726f 	ldrbtvs	r7, [r4], #-623	; 0x26f
    22b8:	f847 6d04 	str.w	r6, [r7, #-4]!
    22bc:	4ec1      	ldr	r6, [pc, #772]	; (25c4 <init_name+0x34>)
    22be:	4770      	bx	lr
    22c0:	00002214 	andeq	r2, r0, r4, lsl r2

000022c4 <irq_vektor_portd>:
    22c4:	48bf      	ldr	r0, [pc, #764]	; (25c4 <init_name+0x34>)
    22c6:	6800      	ldr	r0, [r0, #0]
    22c8:	3001      	adds	r0, #1
    22ca:	4687      	mov	pc, r0
    22cc:	000022a8 	andeq	r2, r0, r8, lsr #5
    22d0:	69090081 	stmdbvs	r9, {r0, r7}
    22d4:	702d7172 	eorvc	r7, sp, r2, ror r1
    22d8:	6574726f 	ldrbvs	r7, [r4, #-623]!	; 0x26f
    22dc:	f847 6d04 	str.w	r6, [r7, #-4]!
    22e0:	4eb9      	ldr	r6, [pc, #740]	; (25c8 <init_name+0x38>)
    22e2:	4770      	bx	lr
    22e4:	00002214 	andeq	r2, r0, r4, lsl r2

000022e8 <irq_vektor_porte>:
    22e8:	48b7      	ldr	r0, [pc, #732]	; (25c8 <init_name+0x38>)
    22ea:	6800      	ldr	r0, [r0, #0]
    22ec:	3001      	adds	r0, #1
    22ee:	4687      	mov	pc, r0
    22f0:	000022cc 	andeq	r2, r0, ip, asr #5
    22f4:	69090081 	stmdbvs	r9, {r0, r7}
    22f8:	702d7172 	eorvc	r7, sp, r2, ror r1
    22fc:	6674726f 	ldrbtvs	r7, [r4], -pc, ror #4
    2300:	f847 6d04 	str.w	r6, [r7, #-4]!
    2304:	4eb1      	ldr	r6, [pc, #708]	; (25cc <init_name+0x3c>)
    2306:	4770      	bx	lr
    2308:	00002214 	andeq	r2, r0, r4, lsl r2

0000230c <irq_vektor_portf>:
    230c:	48af      	ldr	r0, [pc, #700]	; (25cc <init_name+0x3c>)
    230e:	6800      	ldr	r0, [r0, #0]
    2310:	3001      	adds	r0, #1
    2312:	4687      	mov	pc, r0
    2314:	000022f0 	strdeq	r2, [r0], -r0
    2318:	690c0081 	stmdbvs	ip, {r0, r7}
    231c:	612d7172 	teqvs	sp, r2, ror r1
    2320:	73306364 	teqvc	r0, #-1879048191	; 0x90000001
    2324:	00307165 	eorseq	r7, r0, r5, ror #2
    2328:	f847 6d04 	str.w	r6, [r7, #-4]!
    232c:	4ea8      	ldr	r6, [pc, #672]	; (25d0 <init_name+0x40>)
    232e:	4770      	bx	lr
    2330:	00002214 	andeq	r2, r0, r4, lsl r2

00002334 <irq_vektor_adc0seq0>:
    2334:	48a6      	ldr	r0, [pc, #664]	; (25d0 <init_name+0x40>)
    2336:	6800      	ldr	r0, [r0, #0]
    2338:	3001      	adds	r0, #1
    233a:	4687      	mov	pc, r0
    233c:	00002314 	andeq	r2, r0, r4, lsl r3
    2340:	690c0081 	stmdbvs	ip, {r0, r7}
    2344:	612d7172 	teqvs	sp, r2, ror r1
    2348:	73306364 	teqvc	r0, #-1879048191	; 0x90000001
    234c:	00317165 	eorseq	r7, r1, r5, ror #2
    2350:	f847 6d04 	str.w	r6, [r7, #-4]!
    2354:	4e9f      	ldr	r6, [pc, #636]	; (25d4 <init_name+0x44>)
    2356:	4770      	bx	lr
    2358:	00002214 	andeq	r2, r0, r4, lsl r2

0000235c <irq_vektor_adc0seq1>:
    235c:	489d      	ldr	r0, [pc, #628]	; (25d4 <init_name+0x44>)
    235e:	6800      	ldr	r0, [r0, #0]
    2360:	3001      	adds	r0, #1
    2362:	4687      	mov	pc, r0
    2364:	0000233c 	andeq	r2, r0, ip, lsr r3
    2368:	690c0081 	stmdbvs	ip, {r0, r7}
    236c:	612d7172 	teqvs	sp, r2, ror r1
    2370:	73306364 	teqvc	r0, #-1879048191	; 0x90000001
    2374:	00327165 	eorseq	r7, r2, r5, ror #2
    2378:	f847 6d04 	str.w	r6, [r7, #-4]!
    237c:	4e96      	ldr	r6, [pc, #600]	; (25d8 <init_name+0x48>)
    237e:	4770      	bx	lr
    2380:	00002214 	andeq	r2, r0, r4, lsl r2

00002384 <irq_vektor_adc0seq2>:
    2384:	4894      	ldr	r0, [pc, #592]	; (25d8 <init_name+0x48>)
    2386:	6800      	ldr	r0, [r0, #0]
    2388:	3001      	adds	r0, #1
    238a:	4687      	mov	pc, r0
    238c:	00002364 	andeq	r2, r0, r4, ror #6
    2390:	690c0081 	stmdbvs	ip, {r0, r7}
    2394:	612d7172 	teqvs	sp, r2, ror r1
    2398:	73306364 	teqvc	r0, #-1879048191	; 0x90000001
    239c:	00337165 	eorseq	r7, r3, r5, ror #2
    23a0:	f847 6d04 	str.w	r6, [r7, #-4]!
    23a4:	4e8d      	ldr	r6, [pc, #564]	; (25dc <init_name+0x4c>)
    23a6:	4770      	bx	lr
    23a8:	00002214 	andeq	r2, r0, r4, lsl r2

000023ac <irq_vektor_adc0seq3>:
    23ac:	488b      	ldr	r0, [pc, #556]	; (25dc <init_name+0x4c>)
    23ae:	6800      	ldr	r0, [r0, #0]
    23b0:	3001      	adds	r0, #1
    23b2:	4687      	mov	pc, r0
    23b4:	0000238c 	andeq	r2, r0, ip, lsl #7
    23b8:	690b0081 	stmdbvs	fp, {r0, r7}
    23bc:	742d7172 	strtvc	r7, [sp], #-370	; 0x172
    23c0:	72656d69 	rsbvc	r6, r5, #6720	; 0x1a40
    23c4:	f8476130 			; <UNDEFINED> instruction: 0xf8476130
    23c8:	6d04      	ldr	r4, [r0, #80]	; 0x50
    23ca:	4e85      	ldr	r6, [pc, #532]	; (25e0 <init_name+0x50>)
    23cc:	4770      	bx	lr
    23ce:	00002214 	andeq	r2, r0, r4, lsl r2

000023d2 <irq_vektor_timer0a>:
    23d2:	4883      	ldr	r0, [pc, #524]	; (25e0 <init_name+0x50>)
    23d4:	6800      	ldr	r0, [r0, #0]
    23d6:	3001      	adds	r0, #1
    23d8:	4687      	mov	pc, r0
    23da:	000023b4 			; <UNDEFINED> instruction: 0x000023b4
    23de:	690b0081 	stmdbvs	fp, {r0, r7}
    23e2:	742d7172 	strtvc	r7, [sp], #-370	; 0x172
    23e6:	72656d69 	rsbvc	r6, r5, #6720	; 0x1a40
    23ea:	f8476230 			; <UNDEFINED> instruction: 0xf8476230
    23ee:	6d04      	ldr	r4, [r0, #80]	; 0x50
    23f0:	4e7c      	ldr	r6, [pc, #496]	; (25e4 <init_name+0x54>)
    23f2:	4770      	bx	lr
    23f4:	00002214 	andeq	r2, r0, r4, lsl r2

000023f8 <irq_vektor_timer0b>:
    23f8:	487a      	ldr	r0, [pc, #488]	; (25e4 <init_name+0x54>)
    23fa:	6800      	ldr	r0, [r0, #0]
    23fc:	3001      	adds	r0, #1
    23fe:	4687      	mov	pc, r0
    2400:	000023da 	ldrdeq	r2, [r0], -sl
    2404:	690b0081 	stmdbvs	fp, {r0, r7}
    2408:	742d7172 	strtvc	r7, [sp], #-370	; 0x172
    240c:	72656d69 	rsbvc	r6, r5, #6720	; 0x1a40
    2410:	f8476131 			; <UNDEFINED> instruction: 0xf8476131
    2414:	6d04      	ldr	r4, [r0, #80]	; 0x50
    2416:	4e74      	ldr	r6, [pc, #464]	; (25e8 <init_name+0x58>)
    2418:	4770      	bx	lr
    241a:	00002214 	andeq	r2, r0, r4, lsl r2

0000241e <irq_vektor_timer1a>:
    241e:	4872      	ldr	r0, [pc, #456]	; (25e8 <init_name+0x58>)
    2420:	6800      	ldr	r0, [r0, #0]
    2422:	3001      	adds	r0, #1
    2424:	4687      	mov	pc, r0
    2426:	00002400 	andeq	r2, r0, r0, lsl #8
    242a:	690b0081 	stmdbvs	fp, {r0, r7}
    242e:	742d7172 	strtvc	r7, [sp], #-370	; 0x172
    2432:	72656d69 	rsbvc	r6, r5, #6720	; 0x1a40
    2436:	f8476231 			; <UNDEFINED> instruction: 0xf8476231
    243a:	6d04      	ldr	r4, [r0, #80]	; 0x50
    243c:	4e6b      	ldr	r6, [pc, #428]	; (25ec <init_name+0x5c>)
    243e:	4770      	bx	lr
    2440:	00002214 	andeq	r2, r0, r4, lsl r2

00002444 <irq_vektor_timer1b>:
    2444:	4869      	ldr	r0, [pc, #420]	; (25ec <init_name+0x5c>)
    2446:	6800      	ldr	r0, [r0, #0]
    2448:	3001      	adds	r0, #1
    244a:	4687      	mov	pc, r0
    244c:	00002426 	andeq	r2, r0, r6, lsr #8
    2450:	690b0081 	stmdbvs	fp, {r0, r7}
    2454:	742d7172 	strtvc	r7, [sp], #-370	; 0x172
    2458:	72656d69 	rsbvc	r6, r5, #6720	; 0x1a40
    245c:	f8476132 			; <UNDEFINED> instruction: 0xf8476132
    2460:	6d04      	ldr	r4, [r0, #80]	; 0x50
    2462:	4e63      	ldr	r6, [pc, #396]	; (25f0 <init_name+0x60>)
    2464:	4770      	bx	lr
    2466:	00002214 	andeq	r2, r0, r4, lsl r2

0000246a <irq_vektor_timer2a>:
    246a:	4861      	ldr	r0, [pc, #388]	; (25f0 <init_name+0x60>)
    246c:	6800      	ldr	r0, [r0, #0]
    246e:	3001      	adds	r0, #1
    2470:	4687      	mov	pc, r0

00002472 <CoreDictionaryAnfang>:
    2472:	0000244c 	andeq	r2, r0, ip, asr #8
    2476:	690b0081 	stmdbvs	fp, {r0, r7}
    247a:	742d7172 	strtvc	r7, [sp], #-370	; 0x172
    247e:	72656d69 	rsbvc	r6, r5, #6720	; 0x1a40
    2482:	f8476232 			; <UNDEFINED> instruction: 0xf8476232
    2486:	6d04      	ldr	r4, [r0, #80]	; 0x50
    2488:	4e5a      	ldr	r6, [pc, #360]	; (25f4 <init_name+0x64>)
    248a:	4770      	bx	lr
    248c:	00002214 	andeq	r2, r0, r4, lsl r2

00002490 <irq_vektor_timer2b>:
    2490:	4858      	ldr	r0, [pc, #352]	; (25f4 <init_name+0x64>)
    2492:	6800      	ldr	r0, [r0, #0]
    2494:	3001      	adds	r0, #1
    2496:	4687      	mov	pc, r0

00002498 <Reset>:
    2498:	f7fe fa8a 	bl	9b0 <uart_init>

0000249c <Reset_Inneneinsprung>:
    249c:	4f40      	ldr	r7, [pc, #256]	; (25a0 <init_name+0x10>)
    249e:	262a      	movs	r6, #42	; 0x2a
    24a0:	4855      	ldr	r0, [pc, #340]	; (25f8 <init_name+0x68>)
    24a2:	4956      	ldr	r1, [pc, #344]	; (25fc <init_name+0x6c>)
    24a4:	6001      	str	r1, [r0, #0]
    24a6:	4856      	ldr	r0, [pc, #344]	; (2600 <init_name+0x70>)
    24a8:	4956      	ldr	r1, [pc, #344]	; (2604 <init_name+0x74>)
    24aa:	6001      	str	r1, [r0, #0]
    24ac:	4855      	ldr	r0, [pc, #340]	; (2604 <init_name+0x74>)
    24ae:	4d56      	ldr	r5, [pc, #344]	; (2608 <init_name+0x78>)

000024b0 <SucheFlashPointer_Hangelschleife>:
    24b0:	0004      	movs	r4, r0
    24b2:	6802      	ldr	r2, [r0, #0]
    24b4:	3004      	adds	r0, #4
    24b6:	8801      	ldrh	r1, [r0, #0]
    24b8:	3002      	adds	r0, #2
    24ba:	f64f 73ff 	movw	r3, #65535	; 0xffff
    24be:	4299      	cmp	r1, r3
    24c0:	f000 8017 	beq.w	24f2 <Sucheflashpointer_Speicherbelegung_fertig>
    24c4:	f011 0f80 	tst.w	r1, #128	; 0x80
    24c8:	f000 8013 	beq.w	24f2 <Sucheflashpointer_Speicherbelegung_fertig>
    24cc:	f011 010f 	ands.w	r1, r1, #15
    24d0:	0089      	lsls	r1, r1, #2
    24d2:	1a6d      	subs	r5, r5, r1
    24d4:	f7ff f99f 	bl	1816 <skipstring>
    24d8:	f7fe fe45 	bl	1166 <suchedefinitionsende>
    24dc:	f847 6d04 	str.w	r6, [r7, #-4]!
    24e0:	0006      	movs	r6, r0
    24e2:	f847 6d04 	str.w	r6, [r7, #-4]!
    24e6:	002e      	movs	r6, r5
    24e8:	f847 6d04 	str.w	r6, [r7, #-4]!
    24ec:	000e      	movs	r6, r1
    24ee:	f7fd ffa7 	bl	440 <move>

000024f2 <Sucheflashpointer_Speicherbelegung_fertig>:
    24f2:	f1b2 3fff 	cmp.w	r2, #4294967295
    24f6:	f000 8008 	beq.w	250a <SucheFlashPointer_Fadenende_gefunden>
    24fa:	0010      	movs	r0, r2
    24fc:	3206      	adds	r2, #6
    24fe:	7812      	ldrb	r2, [r2, #0]
    2500:	2aff      	cmp	r2, #255	; 0xff
    2502:	f000 8002 	beq.w	250a <SucheFlashPointer_Fadenende_gefunden>
    2506:	f7ff bfd3 	b.w	24b0 <SucheFlashPointer_Hangelschleife>

0000250a <SucheFlashPointer_Fadenende_gefunden>:
    250a:	4840      	ldr	r0, [pc, #256]	; (260c <init_name+0x7c>)
    250c:	6004      	str	r4, [r0, #0]
    250e:	4840      	ldr	r0, [pc, #256]	; (2610 <init_name+0x80>)
    2510:	6005      	str	r5, [r0, #0]
    2512:	4840      	ldr	r0, [pc, #256]	; (2614 <init_name+0x84>)
    2514:	4940      	ldr	r1, [pc, #256]	; (2618 <init_name+0x88>)
    2516:	4a41      	ldr	r2, [pc, #260]	; (261c <init_name+0x8c>)
    2518:	4288      	cmp	r0, r1
    251a:	d004      	beq.n	2526 <SucheFlashPointer_Fadenende_gefunden+0x1c>
    251c:	3802      	subs	r0, #2
    251e:	8803      	ldrh	r3, [r0, #0]
    2520:	4293      	cmp	r3, r2
    2522:	d0f9      	beq.n	2518 <SucheFlashPointer_Fadenende_gefunden+0xe>
    2524:	3002      	adds	r0, #2
    2526:	493e      	ldr	r1, [pc, #248]	; (2620 <init_name+0x90>)
    2528:	6008      	str	r0, [r1, #0]
    252a:	f7fe fb74 	bl	c16 <dotgaensefuesschen>
    252e:	63654d33 	cmnvs	r5, #3264	; 0xcc0
    2532:	70736972 	rsbsvc	r6, r3, r2, ror r9
    2536:	6574532d 	ldrbvs	r5, [r4, #-813]!	; 0x32d
    253a:	72616c6c 	rsbvc	r6, r1, #27648	; 0x6c00
    253e:	30207369 	eorcc	r7, r0, r9, ror #6
    2542:	6620372e 	strtvs	r3, [r0], -lr, lsr #14
    2546:	4c20726f 	sfmmi	f7, 4, [r0], #-444	; 0xfffffe44
    254a:	3146344d 	cmpcc	r6, sp, asr #8
    254e:	62203032 	eorvs	r3, r0, #50	; 0x32
    2552:	614d2079 	hvcvs	53769	; 0xd209
    2556:	69687474 	stmdbvs	r8!, {r2, r4, r5, r6, sl, ip, sp, lr}^
    255a:	4b207361 	blmi	81f2e6 <FlashDictionaryEnde+0x7df2e6>
    255e:	0a68636f 	beq	1a1b322 <FlashDictionaryEnde+0x19db322>
    2562:	480d      	ldr	r0, [pc, #52]	; (2598 <init_name+0x8>)
    2564:	210a      	movs	r1, #10
    2566:	6001      	str	r1, [r0, #0]
    2568:	4810      	ldr	r0, [pc, #64]	; (25ac <init_name+0x1c>)
    256a:	2100      	movs	r1, #0
    256c:	6001      	str	r1, [r0, #0]
    256e:	480e      	ldr	r0, [pc, #56]	; (25a8 <init_name+0x18>)
    2570:	2100      	movs	r1, #0
    2572:	6001      	str	r1, [r0, #0]
    2574:	482b      	ldr	r0, [pc, #172]	; (2624 <init_name+0x94>)
    2576:	f847 6d04 	str.w	r6, [r7, #-4]!
    257a:	0006      	movs	r6, r0
    257c:	f7ff f95a 	bl	1834 <find>
    2580:	cf40      	ldmia	r7!, {r6}
    2582:	2e00      	cmp	r6, #0
    2584:	d002      	beq.n	258c <SucheFlashPointer_Fadenende_gefunden+0x82>
    2586:	f7fe fe82 	bl	128e <execute>
    258a:	e624      	b.n	21d6 <quit_innenschleife>
    258c:	cf40      	ldmia	r7!, {r6}
    258e:	e616      	b.n	21be <quit>

00002590 <init_name>:
    2590:	696e6904 	stmdbvs	lr!, {r2, r8, fp, sp, lr}^
    2594:	00000074 	andeq	r0, r0, r4, ror r0
    2598:	20000010 	andcs	r0, r0, r0, lsl r0
    259c:	20000030 	andcs	r0, r0, r0, lsr r0
    25a0:	20000238 	andcs	r0, r0, r8, lsr r2
    25a4:	20000138 	andcs	r0, r0, r8, lsr r1
    25a8:	20000014 	andcs	r0, r0, r4, lsl r0
    25ac:	2000000c 	andcs	r0, r0, ip
    25b0:	20000338 	andcs	r0, r0, r8, lsr r3
    25b4:	20007ffc 	strdcs	r7, [r0], -ip
    25b8:	20007ff8 	strdcs	r7, [r0], -r8
    25bc:	20007ff4 	strdcs	r7, [r0], -r4
    25c0:	20007ff0 	strdcs	r7, [r0], -r0
    25c4:	20007fec 	andcs	r7, r0, ip, ror #31
    25c8:	20007fe8 	andcs	r7, r0, r8, ror #31
    25cc:	20007fe4 	andcs	r7, r0, r4, ror #31
    25d0:	20007fe0 	andcs	r7, r0, r0, ror #31
    25d4:	20007fdc 	ldrdcs	r7, [r0], -ip
    25d8:	20007fd8 	ldrdcs	r7, [r0], -r8
    25dc:	20007fd4 	ldrdcs	r7, [r0], -r4
    25e0:	20007fd0 	ldrdcs	r7, [r0], -r0
    25e4:	20007fcc 	andcs	r7, r0, ip, asr #31
    25e8:	20007fc8 	andcs	r7, r0, r8, asr #31
    25ec:	20007fc4 	andcs	r7, r0, r4, asr #31
    25f0:	20007fc0 	andcs	r7, r0, r0, asr #31
    25f4:	20007fbc 			; <UNDEFINED> instruction: 0x20007fbc
    25f8:	20000004 	andcs	r0, r0, r4
    25fc:	20000400 	andcs	r0, r0, r0, lsl #8
    2600:	20000008 	andcs	r0, r0, r8
    2604:	00002472 	andeq	r2, r0, r2, ror r4
    2608:	20008000 	andcs	r8, r0, r0
    260c:	20000024 	andcs	r0, r0, r4, lsr #32
    2610:	2000002c 	andcs	r0, r0, ip, lsr #32
    2614:	00040000 	andeq	r0, r4, r0
    2618:	00004000 	andeq	r4, r0, r0
    261c:	0000ffff 	strdeq	pc, [r0], -pc	; <UNPREDICTABLE>
    2620:	20000020 	andcs	r0, r0, r0, lsr #32
    2624:	00002590 	muleq	r0, r0, r5

Disassembly of section .ARM.attributes:

00000000 <.ARM.attributes>:
   0:	00002041 	andeq	r2, r0, r1, asr #32
   4:	61656100 	cmnvs	r5, r0, lsl #2
   8:	01006962 	tsteq	r0, r2, ror #18
   c:	00000016 	andeq	r0, r0, r6, lsl r0
  10:	726f4305 	rsbvc	r4, pc, #335544320	; 0x14000000
  14:	2d786574 	cfldr64cs	mvdx6, [r8, #-464]!	; 0xfffffe30
  18:	0600344d 	streq	r3, [r0], -sp, asr #8
  1c:	094d070d 	stmdbeq	sp, {r0, r2, r3, r8, r9, sl}^
  20:	Address 0x00000020 is out of bounds.

